(dp0
S'[[Goat Milk]]'
p1
I27
sS'[[Cacao]]'
p2
I5
sS'[[Woolly Chaps]]'
p3
I25
sS'[[Carrot Cake]]'
p4
I58
sS'[[Blackberry Jam]]'
p5
I86
sS'[[Strawberry Cake]]'
p6
I52
sS'[[Cherry Juice]]'
p7
I54
sS'[[Fish Burger]]'
p8
I43
sS'[[White Sugar]]'
p9
I57
sS'[[Buttered Popcorn]]'
p10
I4
sS'[[Cream Cake]]'
p11
I55
sS'[[Violet Dress]]'
p12
I42
sS'[[Soybean]]'
p13
I59
sS'[[Apple]]'
p14
I40
sS'[[Strawberry Ice Cream]]'
p15
I77
sS'[[Raspberry Muffin]]'
p16
I12
sS'[[Blue Woolly Hat]]'
p17
I14
sS'[[Apple Pie]]'
p18
I85
sS'[[Hamburger]]'
p19
I33
sS'[[Tomato Juice]]'
p20
I35
sS'[[Blue Sweater]]'
p21
I11
sS'[[Cherry Jam]]'
p22
I28
sS'[[Vanilla Ice Cream]]'
p23
I90
sS'[[Lure]]'
p24
I18
sS'[[Carrot Pie]]'
p25
I79
sS"[[Shepherd's Pie]]"
p26
I7
sS'[[Cheese]]'
p27
I71
sS'[[Tomato]]'
p28
I32
sS'[[Potato]]'
p29
I76
sS'[[Cheesecake]]'
p30
I23
sS'[[Fish Pie]]'
p31
I70
sS'[[Brown Sugar]]'
p32
I9
sS'[[Butter]]'
p33
I41
sS'[[Pancake]]'
p34
I67
sS'[[Bacon Pie]]'
p35
I65
sS'[[Strawberry]]'
p36
I69
sS'[[Corn]]'
p37
I87
sS'[[Popcorn]]'
p38
I64
sS'[[Fish Fillet]]'
p39
I82
sS'[[Egg]]'
p40
I29
sS'[[Chili Popcorn]]'
p41
I63
sS'[[Honey]]'
p42
I24
sS'[[Goat Cheese]]'
p43
I45
sS'[[Bacon]]'
p44
I39
sS'[[Cotton Fabric]]'
p45
I50
sS'[[Potato Bread]]'
p46
I66
sS'[[Goat Feed]]'
p47
I84
sS'[[Pumpkin Pie]]'
p48
I37
sS'[[Honey Popcorn]]'
p49
I46
sS'[[Red Berry Cake]]'
p50
I48
sS'[[Cookie]]'
p51
I78
sS'[[Cream]]'
p52
I22
sS'[[Pizza]]'
p53
I68
sS'[[Syrup]]'
p54
I74
sS'[[Pig Feed]]'
p55
I21
sS'[[Sheep Feed]]'
p56
I31
sS'[[Apple Juice]]'
p57
I15
sS'[[Cherry Popsicle]]'
p58
I60
sS'[[Bacon and Eggs]]'
p59
I2
sS'[[Cotton]]'
p60
I34
sS'[[Feta Pie]]'
p61
I83
sS'[[Carrot Juice]]'
p62
I26
sS'[[Baked Potato]]'
p63
I51
sS'[[Milk]]'
p64
I3
sS'[[Chocolate Ice Cream]]'
p65
I73
sS'[[Berry Juice]]'
p66
I61
sS'[[Apple Jam]]'
p67
I30
sS'[[Chicken Feed]]'
p68
I19
sS'[[Pumpkin]]'
p69
I56
sS'[[Carrot]]'
p70
I81
sS'[[Blackberry]]'
p71
I53
sS'[[Corn Bread]]'
p72
I47
sS'[[Cotton Shirt]]'
p73
I1
sS'[[Wool]]'
p74
I49
sS'[[Raspberry Jam]]'
p75
I38
sS'[[Cherry]]'
p76
I10
sS'[[Bread]]'
p77
I16
sS'[[Wheat]]'
p78
I0
sS'[[Casserole]]'
p79
I89
sS'[[Chili Pepper]]'
p80
I8
sS'[[Roasted Tomatoes]]'
p81
I6
sS'[[Potato Feta Cake]]'
p82
I88
sS'[[Sugarcane]]'
p83
I17
sS'[[Honeycomb]]'
p84
I75
sS'[[Indigo]]'
p85
I20
sS'[[Raspberry]]'
p86
I36
sS'[[Sweater]]'
p87
I13
sS'[[Blackberry Muffin]]'
p88
I62
sS'[[Chocolate Cake]]'
p89
I72
sS'[[Cow Feed]]'
p90
I44
sS'[[Spicy Pizza]]'
p91
I80
s.(dp0
S'[[Fish Fillet]]'
p1
I4
sS'[[Roasted Tomatoes]]'
p2
I1
sS'[[Hamburger]]'
p3
I0
sS'[[Cookie]]'
p4
I0
sS'[[Fish Burger]]'
p5
I0
sS'[[Chocolate Cake]]'
p6
I4
sS'[[Bacon Pie]]'
p7
I1
sS'[[Potato Bread]]'
p8
I0
s.