(dp0
S'[[Pumpkin]]'
p1
I19
sS'[[Blackberry Jam]]'
p2
I25
sS'[[Violet Dress]]'
p3
I3
sS'[[Strawberry Ice Cream]]'
p4
I1
sS'[[Raspberry Muffin]]'
p5
I58
sS'[[Apple Pie]]'
p6
I22
sS'[[Tomato Juice]]'
p7
I17
sS'[[Honey]]'
p8
I37
sS'[[Vanilla Ice Cream]]'
p9
I5
sS'[[Lure]]'
p10
I83
sS'[[Carrot Pie]]'
p11
I65
sS'[[Tomato]]'
p12
I50
sS'[[Potato]]'
p13
I39
sS'[[Cheesecake]]'
p14
I43
sS'[[Fish Pie]]'
p15
I71
sS'[[Pancake]]'
p16
I36
sS'[[Popcorn]]'
p17
I79
sS'[[Goat Cheese]]'
p18
I74
sS'[[Potato Bread]]'
p19
I44
sS'[[Goat Feed]]'
p20
I76
sS'[[Red Berry Cake]]'
p21
I59
sS'[[Pizza]]'
p22
I73
sS'[[Syrup]]'
p23
I20
sS'[[Sheep Feed]]'
p24
I66
sS'[[Cherry Popsicle]]'
p25
I55
sS'[[Bacon and Eggs]]'
p26
I4
sS'[[Carrot Juice]]'
p27
I53
sS'[[Baked Potato]]'
p28
I80
sS'[[Milk]]'
p29
I61
sS'[[Apple Jam]]'
p30
I63
sS'[[Carrot]]'
p31
I49
sS'[[Blackberry]]'
p32
I38
sS'[[Cotton Shirt]]'
p33
I42
sS'[[Cream]]'
p34
I78
sS'[[Raspberry Jam]]'
p35
I2
sS'[[Cherry]]'
p36
I67
sS'[[Bread]]'
p37
I77
sS'[[Wheat]]'
p38
I88
sS'[[Casserole]]'
p39
I29
sS'[[Chili Pepper]]'
p40
I87
sS'[[Honey Popcorn]]'
p41
I14
sS'[[Honeycomb]]'
p42
I35
sS'[[Indigo]]'
p43
I6
sS'[[Raspberry]]'
p44
I21
sS'[[Chocolate Cake]]'
p45
I84
sS'[[Spicy Pizza]]'
p46
I13
sS'[[Cacao]]'
p47
I9
sS'[[Woolly Chaps]]'
p48
I15
sS'[[Carrot Cake]]'
p49
I40
sS'[[Egg]]'
p50
I12
sS'[[Strawberry Cake]]'
p51
I81
sS'[[Cherry Juice]]'
p52
I41
sS'[[Fish Burger]]'
p53
I28
sS'[[White Sugar]]'
p54
I68
sS'[[Buttered Popcorn]]'
p55
I90
sS'[[Cream Cake]]'
p56
I51
sS'[[Soybean]]'
p57
I85
sS'[[Apple]]'
p58
I18
sS'[[Blue Woolly Hat]]'
p59
I69
sS'[[Goat Milk]]'
p60
I7
sS'[[Hamburger]]'
p61
I27
sS'[[Cherry Jam]]'
p62
I45
sS"[[Shepherd's Pie]]"
p63
I52
sS'[[Brown Sugar]]'
p64
I60
sS'[[Butter]]'
p65
I46
sS'[[Bacon Pie]]'
p66
I34
sS'[[Strawberry]]'
p67
I11
sS'[[Pumpkin Pie]]'
p68
I23
sS'[[Corn]]'
p69
I47
sS'[[Fish Fillet]]'
p70
I86
sS'[[Chili Popcorn]]'
p71
I32
sS'[[Bacon]]'
p72
I70
sS'[[Cotton Fabric]]'
p73
I8
sS'[[Blue Sweater]]'
p74
I26
sS'[[Potato Feta Cake]]'
p75
I54
sS'[[Sugarcane]]'
p76
I31
sS'[[Cookie]]'
p77
I16
sS'[[Apple Juice]]'
p78
I24
sS'[[Pig Feed]]'
p79
I0
sS'[[Cotton]]'
p80
I72
sS'[[Feta Pie]]'
p81
I10
sS'[[Cheese]]'
p82
I48
sS'[[Chocolate Ice Cream]]'
p83
I64
sS'[[Chicken Feed]]'
p84
I56
sS'[[Corn Bread]]'
p85
I33
sS'[[Wool]]'
p86
I62
sS'[[Roasted Tomatoes]]'
p87
I89
sS'[[Berry Juice]]'
p88
I30
sS'[[Sweater]]'
p89
I75
sS'[[Blackberry Muffin]]'
p90
I57
sS'[[Cow Feed]]'
p91
I82
s.(dp0
S'[[Brown Sugar]]'
p1
I5
sS'[[Fish Fillet]]'
p2
I4
sS'[[Roasted Tomatoes]]'
p3
I2
sS'[[Carrot]]'
p4
I1
sS'[[Cotton Shirt]]'
p5
I4
sS'[[Tomato Juice]]'
p6
I5
sS'[[Honeycomb]]'
p7
I0
sS'[[Indigo]]'
p8
I5
sS'[[Chili Popcorn]]'
p9
I1
sS'[[Pizza]]'
p10
I5
sS'[[Spicy Pizza]]'
p11
I1
s.