(dp0
S'[[Pumpkin]]'
p1
I16
sS'[[Blackberry Jam]]'
p2
I37
sS'[[Violet Dress]]'
p3
I75
sS'[[Strawberry Ice Cream]]'
p4
I20
sS'[[Raspberry Muffin]]'
p5
I31
sS'[[Apple Pie]]'
p6
I21
sS'[[Tomato Juice]]'
p7
I42
sS'[[Blue Sweater]]'
p8
I88
sS'[[Carrot Cake]]'
p9
I85
sS'[[Vanilla Ice Cream]]'
p10
I1
sS'[[Lure]]'
p11
I67
sS'[[Carrot Pie]]'
p12
I46
sS'[[Tomato]]'
p13
I77
sS'[[Cherry Juice]]'
p14
I61
sS'[[Cheesecake]]'
p15
I70
sS'[[Fish Pie]]'
p16
I81
sS'[[Pancake]]'
p17
I74
sS'[[Popcorn]]'
p18
I35
sS'[[Goat Cheese]]'
p19
I82
sS'[[Potato Bread]]'
p20
I80
sS'[[Goat Feed]]'
p21
I72
sS'[[Red Berry Cake]]'
p22
I33
sS'[[Pizza]]'
p23
I3
sS'[[Syrup]]'
p24
I62
sS'[[Sheep Feed]]'
p25
I55
sS'[[Cherry Popsicle]]'
p26
I14
sS'[[Bacon and Eggs]]'
p27
I0
sS'[[Carrot Juice]]'
p28
I90
sS'[[Baked Potato]]'
p29
I24
sS'[[Milk]]'
p30
I84
sS'[[Apple Jam]]'
p31
I39
sS'[[Carrot]]'
p32
I79
sS'[[Blackberry]]'
p33
I38
sS'[[Cotton Shirt]]'
p34
I69
sS'[[Cream]]'
p35
I73
sS'[[Raspberry Jam]]'
p36
I34
sS'[[Cherry]]'
p37
I86
sS'[[Bread]]'
p38
I45
sS'[[Wheat]]'
p39
I51
sS'[[Casserole]]'
p40
I41
sS'[[Strawberry]]'
p41
I63
sS'[[Potato Feta Cake]]'
p42
I30
sS'[[Honeycomb]]'
p43
I43
sS'[[Indigo]]'
p44
I71
sS'[[Raspberry]]'
p45
I49
sS'[[Chocolate Cake]]'
p46
I13
sS'[[Spicy Pizza]]'
p47
I53
sS'[[Cacao]]'
p48
I22
sS'[[Woolly Chaps]]'
p49
I23
sS'[[Honey]]'
p50
I5
sS'[[Egg]]'
p51
I78
sS'[[Strawberry Cake]]'
p52
I11
sS'[[Potato]]'
p53
I56
sS'[[Fish Burger]]'
p54
I87
sS'[[White Sugar]]'
p55
I66
sS'[[Buttered Popcorn]]'
p56
I2
sS'[[Cream Cake]]'
p57
I48
sS'[[Soybean]]'
p58
I40
sS'[[Apple]]'
p59
I36
sS'[[Blue Woolly Hat]]'
p60
I47
sS'[[Goat Milk]]'
p61
I29
sS'[[Hamburger]]'
p62
I6
sS'[[Cherry Jam]]'
p63
I65
sS"[[Shepherd's Pie]]"
p64
I15
sS'[[Brown Sugar]]'
p65
I27
sS'[[Butter]]'
p66
I26
sS'[[Bacon Pie]]'
p67
I28
sS'[[Chili Pepper]]'
p68
I83
sS'[[Corn]]'
p69
I60
sS'[[Fish Fillet]]'
p70
I58
sS'[[Chili Popcorn]]'
p71
I18
sS'[[Bacon]]'
p72
I76
sS'[[Cotton Fabric]]'
p73
I50
sS'[[Pumpkin Pie]]'
p74
I54
sS'[[Honey Popcorn]]'
p75
I64
sS'[[Sugarcane]]'
p76
I44
sS'[[Cookie]]'
p77
I59
sS'[[Apple Juice]]'
p78
I12
sS'[[Pig Feed]]'
p79
I32
sS'[[Cotton]]'
p80
I57
sS'[[Feta Pie]]'
p81
I7
sS'[[Cheese]]'
p82
I9
sS'[[Chocolate Ice Cream]]'
p83
I10
sS'[[Chicken Feed]]'
p84
I19
sS'[[Corn Bread]]'
p85
I89
sS'[[Wool]]'
p86
I17
sS'[[Roasted Tomatoes]]'
p87
I52
sS'[[Berry Juice]]'
p88
I4
sS'[[Sweater]]'
p89
I25
sS'[[Blackberry Muffin]]'
p90
I8
sS'[[Cow Feed]]'
p91
I68
s.(dp0
S'[[Pig Feed]]'
p1
I4
sS'[[Apple]]'
p2
I5
sS'[[Corn]]'
p3
I3
sS'[[Raspberry Muffin]]'
p4
I5
sS'[[Carrot]]'
p5
I3
sS'[[Carrot Pie]]'
p6
I2
sS'[[Honey Popcorn]]'
p7
I0
sS'[[Hamburger]]'
p8
I4
sS'[[Butter]]'
p9
I3
sS'[[Pumpkin Pie]]'
p10
I3
sS'[[Pizza]]'
p11
I1
s.