(dp0
S'[[Pumpkin]]'
p1
I50
sS'[[Blackberry Jam]]'
p2
I11
sS'[[Violet Dress]]'
p3
I0
sS'[[Strawberry Ice Cream]]'
p4
I52
sS'[[Raspberry Muffin]]'
p5
I37
sS'[[Apple Pie]]'
p6
I39
sS'[[Tomato Juice]]'
p7
I24
sS'[[Blue Sweater]]'
p8
I65
sS'[[Honey]]'
p9
I85
sS'[[Vanilla Ice Cream]]'
p10
I59
sS'[[Lure]]'
p11
I43
sS'[[Carrot Pie]]'
p12
I73
sS'[[Tomato]]'
p13
I38
sS'[[Potato]]'
p14
I76
sS'[[Cheesecake]]'
p15
I78
sS'[[Fish Pie]]'
p16
I70
sS'[[Pancake]]'
p17
I53
sS'[[Popcorn]]'
p18
I6
sS'[[Goat Cheese]]'
p19
I74
sS'[[Potato Bread]]'
p20
I62
sS'[[Goat Feed]]'
p21
I41
sS'[[Red Berry Cake]]'
p22
I49
sS'[[Pizza]]'
p23
I69
sS'[[Syrup]]'
p24
I31
sS'[[Sheep Feed]]'
p25
I12
sS'[[Cherry Popsicle]]'
p26
I46
sS'[[Bacon and Eggs]]'
p27
I45
sS'[[Carrot]]'
p28
I87
sS'[[Carrot Juice]]'
p29
I4
sS'[[Baked Potato]]'
p30
I21
sS'[[Milk]]'
p31
I7
sS'[[Apple Jam]]'
p32
I79
sS'[[Apple]]'
p33
I22
sS'[[Blackberry]]'
p34
I48
sS'[[Cotton Shirt]]'
p35
I71
sS'[[Cream]]'
p36
I61
sS'[[Raspberry Jam]]'
p37
I19
sS'[[Cherry]]'
p38
I28
sS'[[Bread]]'
p39
I82
sS'[[Wheat]]'
p40
I58
sS'[[Casserole]]'
p41
I75
sS'[[Strawberry]]'
p42
I47
sS'[[Potato Feta Cake]]'
p43
I35
sS'[[Honeycomb]]'
p44
I88
sS'[[Indigo]]'
p45
I9
sS'[[Raspberry]]'
p46
I83
sS'[[Chocolate Cake]]'
p47
I84
sS'[[Spicy Pizza]]'
p48
I81
sS'[[Cacao]]'
p49
I23
sS'[[Woolly Chaps]]'
p50
I5
sS'[[Carrot Cake]]'
p51
I44
sS'[[Egg]]'
p52
I56
sS'[[Strawberry Cake]]'
p53
I14
sS'[[Cherry Juice]]'
p54
I34
sS'[[Fish Burger]]'
p55
I68
sS'[[White Sugar]]'
p56
I40
sS'[[Buttered Popcorn]]'
p57
I54
sS'[[Cream Cake]]'
p58
I20
sS'[[Soybean]]'
p59
I55
sS'[[Brown Sugar]]'
p60
I2
sS'[[Blue Woolly Hat]]'
p61
I67
sS'[[Goat Milk]]'
p62
I77
sS'[[Hamburger]]'
p63
I51
sS'[[Cherry Jam]]'
p64
I29
sS"[[Shepherd's Pie]]"
p65
I32
sS'[[Butter]]'
p66
I42
sS'[[Bacon Pie]]'
p67
I25
sS'[[Chili Pepper]]'
p68
I33
sS'[[Corn]]'
p69
I72
sS'[[Fish Fillet]]'
p70
I26
sS'[[Chili Popcorn]]'
p71
I57
sS'[[Bacon]]'
p72
I64
sS'[[Cotton Fabric]]'
p73
I60
sS'[[Pumpkin Pie]]'
p74
I80
sS'[[Honey Popcorn]]'
p75
I16
sS'[[Sugarcane]]'
p76
I89
sS'[[Cookie]]'
p77
I3
sS'[[Apple Juice]]'
p78
I27
sS'[[Pig Feed]]'
p79
I17
sS'[[Cotton]]'
p80
I18
sS'[[Feta Pie]]'
p81
I36
sS'[[Cheese]]'
p82
I30
sS'[[Chocolate Ice Cream]]'
p83
I66
sS'[[Chicken Feed]]'
p84
I63
sS'[[Corn Bread]]'
p85
I90
sS'[[Wool]]'
p86
I10
sS'[[Roasted Tomatoes]]'
p87
I15
sS'[[Berry Juice]]'
p88
I86
sS'[[Sweater]]'
p89
I8
sS'[[Blackberry Muffin]]'
p90
I1
sS'[[Cow Feed]]'
p91
I13
s.(dp0
S'[[Sheep Feed]]'
p1
I0
sS'[[Strawberry Ice Cream]]'
p2
I0
sS'[[Cheesecake]]'
p3
I5
sS'[[Corn Bread]]'
p4
I3
sS'[[Apple Pie]]'
p5
I3
sS'[[Fish Burger]]'
p6
I1
sS'[[Wool]]'
p7
I1
sS'[[Bacon]]'
p8
I5
sS'[[Raspberry Jam]]'
p9
I3
sS'[[Raspberry]]'
p10
I4
sS'[[Raspberry Muffin]]'
p11
I2
s.