(dp0
S'[[Pumpkin]]'
p1
I53
sS'[[Blackberry Jam]]'
p2
I64
sS'[[Violet Dress]]'
p3
I22
sS'[[Strawberry Ice Cream]]'
p4
I72
sS'[[Raspberry Muffin]]'
p5
I52
sS'[[Apple Pie]]'
p6
I51
sS'[[Tomato Juice]]'
p7
I76
sS'[[Carrot Cake]]'
p8
I19
sS'[[Vanilla Ice Cream]]'
p9
I47
sS'[[Lure]]'
p10
I14
sS'[[Carrot Pie]]'
p11
I8
sS'[[Tomato]]'
p12
I35
sS'[[Cherry Juice]]'
p13
I23
sS'[[Cheesecake]]'
p14
I86
sS'[[Fish Pie]]'
p15
I5
sS'[[Pancake]]'
p16
I36
sS'[[Popcorn]]'
p17
I46
sS'[[Goat Cheese]]'
p18
I7
sS'[[Potato Bread]]'
p19
I63
sS'[[Goat Feed]]'
p20
I48
sS'[[Red Berry Cake]]'
p21
I6
sS'[[Pizza]]'
p22
I50
sS'[[Syrup]]'
p23
I25
sS'[[Sheep Feed]]'
p24
I71
sS'[[Cherry Popsicle]]'
p25
I1
sS'[[Bacon and Eggs]]'
p26
I87
sS'[[Carrot Juice]]'
p27
I38
sS'[[Baked Potato]]'
p28
I31
sS'[[Milk]]'
p29
I29
sS'[[Apple Jam]]'
p30
I81
sS'[[Carrot]]'
p31
I0
sS'[[Blackberry]]'
p32
I37
sS'[[Cotton Shirt]]'
p33
I32
sS'[[Cream]]'
p34
I55
sS'[[Raspberry Jam]]'
p35
I13
sS'[[Cherry]]'
p36
I89
sS'[[Bread]]'
p37
I74
sS'[[Wheat]]'
p38
I45
sS'[[Casserole]]'
p39
I84
sS'[[Chili Pepper]]'
p40
I21
sS'[[Potato Feta Cake]]'
p41
I43
sS'[[Honeycomb]]'
p42
I83
sS'[[Indigo]]'
p43
I78
sS'[[Raspberry]]'
p44
I77
sS'[[Chocolate Cake]]'
p45
I24
sS'[[Spicy Pizza]]'
p46
I49
sS'[[Cacao]]'
p47
I59
sS'[[Woolly Chaps]]'
p48
I61
sS'[[Honey]]'
p49
I44
sS'[[Egg]]'
p50
I57
sS'[[Strawberry Cake]]'
p51
I82
sS'[[Potato]]'
p52
I27
sS'[[Fish Burger]]'
p53
I10
sS'[[White Sugar]]'
p54
I30
sS'[[Buttered Popcorn]]'
p55
I15
sS'[[Cream Cake]]'
p56
I73
sS'[[Soybean]]'
p57
I90
sS'[[Apple]]'
p58
I12
sS'[[Blue Woolly Hat]]'
p59
I54
sS'[[Goat Milk]]'
p60
I26
sS'[[Hamburger]]'
p61
I20
sS'[[Cherry Jam]]'
p62
I3
sS"[[Shepherd's Pie]]"
p63
I2
sS'[[Brown Sugar]]'
p64
I28
sS'[[Butter]]'
p65
I4
sS'[[Bacon Pie]]'
p66
I69
sS'[[Strawberry]]'
p67
I16
sS'[[Pumpkin Pie]]'
p68
I75
sS'[[Corn]]'
p69
I58
sS'[[Fish Fillet]]'
p70
I42
sS'[[Chili Popcorn]]'
p71
I85
sS'[[Bacon]]'
p72
I62
sS'[[Cotton Fabric]]'
p73
I11
sS'[[Blue Sweater]]'
p74
I33
sS'[[Honey Popcorn]]'
p75
I70
sS'[[Sugarcane]]'
p76
I60
sS'[[Cookie]]'
p77
I18
sS'[[Apple Juice]]'
p78
I39
sS'[[Pig Feed]]'
p79
I65
sS'[[Cotton]]'
p80
I17
sS'[[Feta Pie]]'
p81
I34
sS'[[Cheese]]'
p82
I56
sS'[[Chocolate Ice Cream]]'
p83
I66
sS'[[Chicken Feed]]'
p84
I41
sS'[[Corn Bread]]'
p85
I68
sS'[[Wool]]'
p86
I9
sS'[[Roasted Tomatoes]]'
p87
I88
sS'[[Berry Juice]]'
p88
I40
sS'[[Sweater]]'
p89
I80
sS'[[Blackberry Muffin]]'
p90
I67
sS'[[Cow Feed]]'
p91
I79
s.(dp0
S'[[Carrot Cake]]'
p1
I0
sS'[[Blackberry]]'
p2
I3
sS'[[Cotton]]'
p3
I5
sS'[[Cookie]]'
p4
I0
sS'[[Carrot Juice]]'
p5
I2
sS'[[Baked Potato]]'
p6
I2
sS'[[Honeycomb]]'
p7
I3
sS'[[Fish Pie]]'
p8
I2
sS'[[Pancake]]'
p9
I4
sS'[[Chocolate Ice Cream]]'
p10
I4
sS'[[Syrup]]'
p11
I1
s.