(dp0
S'[[Pumpkin]]'
p1
I6
sS'[[Blackberry Jam]]'
p2
I50
sS'[[Violet Dress]]'
p3
I77
sS'[[Strawberry Ice Cream]]'
p4
I73
sS'[[Raspberry Muffin]]'
p5
I84
sS'[[Apple Pie]]'
p6
I51
sS'[[Tomato Juice]]'
p7
I24
sS'[[Blue Sweater]]'
p8
I55
sS'[[Carrot Cake]]'
p9
I33
sS'[[Vanilla Ice Cream]]'
p10
I16
sS'[[Lure]]'
p11
I87
sS'[[Carrot Pie]]'
p12
I7
sS'[[Tomato]]'
p13
I90
sS'[[Cherry Juice]]'
p14
I88
sS'[[Cheesecake]]'
p15
I60
sS'[[Fish Pie]]'
p16
I28
sS'[[Pancake]]'
p17
I4
sS'[[Popcorn]]'
p18
I57
sS'[[Goat Cheese]]'
p19
I39
sS'[[Potato Bread]]'
p20
I79
sS'[[Goat Feed]]'
p21
I10
sS'[[Red Berry Cake]]'
p22
I2
sS'[[Pizza]]'
p23
I5
sS'[[Syrup]]'
p24
I37
sS'[[Sheep Feed]]'
p25
I71
sS'[[Cherry Popsicle]]'
p26
I65
sS'[[Bacon and Eggs]]'
p27
I74
sS'[[Carrot]]'
p28
I3
sS'[[Carrot Juice]]'
p29
I47
sS'[[Baked Potato]]'
p30
I14
sS'[[Milk]]'
p31
I81
sS'[[Apple Jam]]'
p32
I38
sS'[[Apple]]'
p33
I61
sS'[[Blackberry]]'
p34
I21
sS'[[Cotton Shirt]]'
p35
I86
sS'[[Cream]]'
p36
I8
sS'[[Raspberry Jam]]'
p37
I72
sS'[[Cherry]]'
p38
I63
sS'[[Bread]]'
p39
I85
sS'[[Wheat]]'
p40
I43
sS'[[Casserole]]'
p41
I58
sS'[[Strawberry]]'
p42
I75
sS'[[Honey Popcorn]]'
p43
I59
sS'[[Honeycomb]]'
p44
I67
sS'[[Indigo]]'
p45
I45
sS'[[Raspberry]]'
p46
I82
sS'[[Chocolate Cake]]'
p47
I11
sS'[[Spicy Pizza]]'
p48
I36
sS'[[Cacao]]'
p49
I12
sS'[[Woolly Chaps]]'
p50
I23
sS'[[Honey]]'
p51
I22
sS'[[Egg]]'
p52
I53
sS'[[Strawberry Cake]]'
p53
I64
sS'[[Potato]]'
p54
I52
sS'[[Fish Burger]]'
p55
I83
sS'[[White Sugar]]'
p56
I15
sS'[[Buttered Popcorn]]'
p57
I34
sS'[[Cream Cake]]'
p58
I1
sS'[[Soybean]]'
p59
I20
sS'[[Brown Sugar]]'
p60
I27
sS'[[Blue Woolly Hat]]'
p61
I29
sS'[[Goat Milk]]'
p62
I68
sS'[[Hamburger]]'
p63
I44
sS'[[Cherry Jam]]'
p64
I69
sS"[[Shepherd's Pie]]"
p65
I30
sS'[[Butter]]'
p66
I42
sS'[[Bacon Pie]]'
p67
I9
sS'[[Chili Pepper]]'
p68
I19
sS'[[Corn]]'
p69
I25
sS'[[Fish Fillet]]'
p70
I48
sS'[[Chili Popcorn]]'
p71
I54
sS'[[Bacon]]'
p72
I46
sS'[[Cotton Fabric]]'
p73
I76
sS'[[Pumpkin Pie]]'
p74
I56
sS'[[Potato Feta Cake]]'
p75
I89
sS'[[Sugarcane]]'
p76
I66
sS'[[Cookie]]'
p77
I80
sS'[[Apple Juice]]'
p78
I78
sS'[[Pig Feed]]'
p79
I18
sS'[[Cotton]]'
p80
I35
sS'[[Feta Pie]]'
p81
I70
sS'[[Cheese]]'
p82
I40
sS'[[Chocolate Ice Cream]]'
p83
I26
sS'[[Chicken Feed]]'
p84
I31
sS'[[Corn Bread]]'
p85
I0
sS'[[Wool]]'
p86
I49
sS'[[Roasted Tomatoes]]'
p87
I32
sS'[[Berry Juice]]'
p88
I62
sS'[[Sweater]]'
p89
I13
sS'[[Blackberry Muffin]]'
p90
I17
sS'[[Cow Feed]]'
p91
I41
s.(dp0
S'[[Pumpkin Pie]]'
p1
I4
sS'[[Honey]]'
p2
I2
sS'[[Red Berry Cake]]'
p3
I0
sS'[[Bacon and Eggs]]'
p4
I0
sS'[[Feta Pie]]'
p5
I2
sS'[[Hamburger]]'
p6
I3
sS'[[Blackberry Muffin]]'
p7
I4
sS'[[Indigo]]'
p8
I1
sS'[[Vanilla Ice Cream]]'
p9
I0
sS'[[Cow Feed]]'
p10
I5
sS'[[Soybean]]'
p11
I3
s.