(dp0
S'[[Pumpkin]]'
p1
I60
sS'[[Blackberry Jam]]'
p2
I80
sS'[[Violet Dress]]'
p3
I8
sS'[[Strawberry Ice Cream]]'
p4
I59
sS'[[Raspberry Muffin]]'
p5
I52
sS'[[Apple Pie]]'
p6
I29
sS'[[Tomato Juice]]'
p7
I63
sS'[[Carrot Cake]]'
p8
I66
sS'[[Vanilla Ice Cream]]'
p9
I68
sS'[[Lure]]'
p10
I58
sS'[[Carrot Pie]]'
p11
I43
sS'[[Tomato]]'
p12
I15
sS'[[Cherry Juice]]'
p13
I34
sS'[[Cheesecake]]'
p14
I21
sS'[[Fish Pie]]'
p15
I84
sS'[[Pancake]]'
p16
I69
sS'[[Popcorn]]'
p17
I42
sS'[[Goat Cheese]]'
p18
I10
sS'[[Potato Bread]]'
p19
I2
sS'[[Goat Feed]]'
p20
I40
sS'[[Red Berry Cake]]'
p21
I77
sS'[[Pizza]]'
p22
I82
sS'[[Syrup]]'
p23
I76
sS'[[Sheep Feed]]'
p24
I54
sS'[[Cherry Popsicle]]'
p25
I36
sS'[[Bacon and Eggs]]'
p26
I64
sS'[[Carrot Juice]]'
p27
I6
sS'[[Baked Potato]]'
p28
I32
sS'[[Milk]]'
p29
I72
sS'[[Apple Jam]]'
p30
I50
sS'[[Carrot]]'
p31
I74
sS'[[Blackberry]]'
p32
I37
sS'[[Cotton Shirt]]'
p33
I89
sS'[[Cream]]'
p34
I56
sS'[[Raspberry Jam]]'
p35
I47
sS'[[Cherry]]'
p36
I19
sS'[[Bread]]'
p37
I16
sS'[[Wheat]]'
p38
I31
sS'[[Casserole]]'
p39
I26
sS'[[Chili Pepper]]'
p40
I48
sS'[[Potato Feta Cake]]'
p41
I45
sS'[[Honeycomb]]'
p42
I61
sS'[[Indigo]]'
p43
I71
sS'[[Raspberry]]'
p44
I20
sS'[[Chocolate Cake]]'
p45
I17
sS'[[Spicy Pizza]]'
p46
I18
sS'[[Cacao]]'
p47
I81
sS'[[Woolly Chaps]]'
p48
I70
sS'[[Honey]]'
p49
I79
sS'[[Egg]]'
p50
I53
sS'[[Strawberry Cake]]'
p51
I3
sS'[[Potato]]'
p52
I22
sS'[[Fish Burger]]'
p53
I65
sS'[[White Sugar]]'
p54
I39
sS'[[Buttered Popcorn]]'
p55
I35
sS'[[Cream Cake]]'
p56
I85
sS'[[Soybean]]'
p57
I88
sS'[[Apple]]'
p58
I90
sS'[[Blue Woolly Hat]]'
p59
I55
sS'[[Goat Milk]]'
p60
I9
sS'[[Hamburger]]'
p61
I0
sS'[[Cherry Jam]]'
p62
I33
sS"[[Shepherd's Pie]]"
p63
I57
sS'[[Brown Sugar]]'
p64
I73
sS'[[Butter]]'
p65
I11
sS'[[Bacon Pie]]'
p66
I4
sS'[[Strawberry]]'
p67
I13
sS'[[Pumpkin Pie]]'
p68
I5
sS'[[Corn]]'
p69
I83
sS'[[Fish Fillet]]'
p70
I1
sS'[[Chili Popcorn]]'
p71
I25
sS'[[Bacon]]'
p72
I28
sS'[[Cotton Fabric]]'
p73
I38
sS'[[Blue Sweater]]'
p74
I14
sS'[[Honey Popcorn]]'
p75
I67
sS'[[Sugarcane]]'
p76
I78
sS'[[Cookie]]'
p77
I24
sS'[[Apple Juice]]'
p78
I44
sS'[[Pig Feed]]'
p79
I27
sS'[[Cotton]]'
p80
I87
sS'[[Feta Pie]]'
p81
I46
sS'[[Cheese]]'
p82
I62
sS'[[Chocolate Ice Cream]]'
p83
I49
sS'[[Chicken Feed]]'
p84
I12
sS'[[Corn Bread]]'
p85
I86
sS'[[Wool]]'
p86
I51
sS'[[Roasted Tomatoes]]'
p87
I23
sS'[[Berry Juice]]'
p88
I75
sS'[[Sweater]]'
p89
I7
sS'[[Blackberry Muffin]]'
p90
I41
sS'[[Cow Feed]]'
p91
I30
s.(dp0
S'[[Sheep Feed]]'
p1
I3
sS'[[Honey Popcorn]]'
p2
I1
sS'[[Fish Fillet]]'
p3
I5
sS'[[Blackberry Jam]]'
p4
I0
sS'[[Apple Pie]]'
p5
I2
sS'[[Tomato Juice]]'
p6
I2
sS'[[Wool]]'
p7
I1
sS'[[Bacon]]'
p8
I3
sS'[[Cherry]]'
p9
I4
sS'[[Pizza]]'
p10
I4
sS'[[Syrup]]'
p11
I1
s.