(dp0
S'[[Pumpkin]]'
p1
I57
sS'[[Blackberry Jam]]'
p2
I77
sS'[[Violet Dress]]'
p3
I72
sS'[[Strawberry Ice Cream]]'
p4
I62
sS'[[Raspberry Muffin]]'
p5
I36
sS'[[Apple Pie]]'
p6
I85
sS'[[Tomato Juice]]'
p7
I11
sS'[[Blue Sweater]]'
p8
I50
sS'[[Honey]]'
p9
I12
sS'[[Vanilla Ice Cream]]'
p10
I45
sS'[[Lure]]'
p11
I49
sS'[[Carrot Pie]]'
p12
I30
sS'[[Tomato]]'
p13
I55
sS'[[Potato]]'
p14
I68
sS'[[Cheesecake]]'
p15
I6
sS'[[Fish Pie]]'
p16
I9
sS'[[Pancake]]'
p17
I7
sS'[[Popcorn]]'
p18
I65
sS'[[Goat Cheese]]'
p19
I78
sS'[[Potato Bread]]'
p20
I25
sS'[[Goat Feed]]'
p21
I75
sS'[[Red Berry Cake]]'
p22
I61
sS'[[Pizza]]'
p23
I41
sS'[[Syrup]]'
p24
I69
sS'[[Sheep Feed]]'
p25
I46
sS'[[Cherry Popsicle]]'
p26
I17
sS'[[Bacon and Eggs]]'
p27
I15
sS'[[Carrot]]'
p28
I86
sS'[[Carrot Juice]]'
p29
I34
sS'[[Baked Potato]]'
p30
I74
sS'[[Milk]]'
p31
I40
sS'[[Apple Jam]]'
p32
I38
sS'[[Apple]]'
p33
I24
sS'[[Blackberry]]'
p34
I63
sS'[[Cotton Shirt]]'
p35
I39
sS'[[Cream]]'
p36
I76
sS'[[Raspberry Jam]]'
p37
I13
sS'[[Cherry]]'
p38
I80
sS'[[Bread]]'
p39
I33
sS'[[Wheat]]'
p40
I35
sS'[[Casserole]]'
p41
I10
sS'[[Strawberry]]'
p42
I20
sS'[[Potato Feta Cake]]'
p43
I54
sS'[[Honeycomb]]'
p44
I81
sS'[[Indigo]]'
p45
I48
sS'[[Raspberry]]'
p46
I31
sS'[[Chocolate Cake]]'
p47
I28
sS'[[Spicy Pizza]]'
p48
I26
sS'[[Cacao]]'
p49
I60
sS'[[Woolly Chaps]]'
p50
I32
sS'[[Carrot Cake]]'
p51
I8
sS'[[Egg]]'
p52
I53
sS'[[Strawberry Cake]]'
p53
I70
sS'[[Cherry Juice]]'
p54
I59
sS'[[Fish Burger]]'
p55
I0
sS'[[White Sugar]]'
p56
I44
sS'[[Buttered Popcorn]]'
p57
I71
sS'[[Cream Cake]]'
p58
I1
sS'[[Soybean]]'
p59
I42
sS'[[Brown Sugar]]'
p60
I19
sS'[[Blue Woolly Hat]]'
p61
I84
sS'[[Goat Milk]]'
p62
I73
sS'[[Hamburger]]'
p63
I29
sS'[[Cherry Jam]]'
p64
I4
sS"[[Shepherd's Pie]]"
p65
I23
sS'[[Butter]]'
p66
I79
sS'[[Bacon Pie]]'
p67
I22
sS'[[Chili Pepper]]'
p68
I51
sS'[[Corn]]'
p69
I5
sS'[[Fish Fillet]]'
p70
I83
sS'[[Chili Popcorn]]'
p71
I47
sS'[[Bacon]]'
p72
I14
sS'[[Cotton Fabric]]'
p73
I27
sS'[[Pumpkin Pie]]'
p74
I16
sS'[[Honey Popcorn]]'
p75
I43
sS'[[Sugarcane]]'
p76
I2
sS'[[Cookie]]'
p77
I58
sS'[[Apple Juice]]'
p78
I66
sS'[[Pig Feed]]'
p79
I3
sS'[[Cotton]]'
p80
I89
sS'[[Feta Pie]]'
p81
I87
sS'[[Cheese]]'
p82
I82
sS'[[Chocolate Ice Cream]]'
p83
I56
sS'[[Chicken Feed]]'
p84
I90
sS'[[Corn Bread]]'
p85
I64
sS'[[Wool]]'
p86
I67
sS'[[Roasted Tomatoes]]'
p87
I88
sS'[[Berry Juice]]'
p88
I21
sS'[[Sweater]]'
p89
I37
sS'[[Blackberry Muffin]]'
p90
I18
sS'[[Cow Feed]]'
p91
I52
s.(dp0
S'[[Pig Feed]]'
p1
I3
sS'[[Strawberry Ice Cream]]'
p2
I5
sS'[[Raspberry Muffin]]'
p3
I1
sS'[[Blackberry Jam]]'
p4
I0
sS'[[Butter]]'
p5
I1
sS'[[Vanilla Ice Cream]]'
p6
I4
sS'[[Buttered Popcorn]]'
p7
I4
sS'[[Raspberry]]'
p8
I2
sS'[[Apple Jam]]'
p9
I3
sS'[[Goat Feed]]'
p10
I3
sS'[[Cheesecake]]'
p11
I0
s.