(dp0
S'[[Goat Milk]]'
p1
I86
sS'[[Cacao]]'
p2
I74
sS'[[Woolly Chaps]]'
p3
I85
sS'[[Carrot Cake]]'
p4
I27
sS'[[Blackberry Jam]]'
p5
I2
sS'[[Strawberry Cake]]'
p6
I57
sS'[[Cherry Juice]]'
p7
I29
sS'[[Fish Burger]]'
p8
I77
sS'[[White Sugar]]'
p9
I75
sS'[[Buttered Popcorn]]'
p10
I69
sS'[[Cream Cake]]'
p11
I49
sS'[[Violet Dress]]'
p12
I36
sS'[[Soybean]]'
p13
I82
sS'[[Apple]]'
p14
I78
sS'[[Strawberry Ice Cream]]'
p15
I66
sS'[[Raspberry Muffin]]'
p16
I90
sS'[[Blue Woolly Hat]]'
p17
I59
sS'[[Apple Pie]]'
p18
I8
sS'[[Hamburger]]'
p19
I45
sS'[[Tomato Juice]]'
p20
I53
sS'[[Blue Sweater]]'
p21
I44
sS'[[Cherry Jam]]'
p22
I72
sS'[[Vanilla Ice Cream]]'
p23
I65
sS'[[Lure]]'
p24
I41
sS'[[Carrot Pie]]'
p25
I28
sS"[[Shepherd's Pie]]"
p26
I35
sS'[[Cheese]]'
p27
I50
sS'[[Tomato]]'
p28
I9
sS'[[Potato]]'
p29
I38
sS'[[Cheesecake]]'
p30
I23
sS'[[Fish Pie]]'
p31
I56
sS'[[Brown Sugar]]'
p32
I10
sS'[[Butter]]'
p33
I54
sS'[[Pancake]]'
p34
I11
sS'[[Bacon Pie]]'
p35
I87
sS'[[Strawberry]]'
p36
I51
sS'[[Corn]]'
p37
I24
sS'[[Popcorn]]'
p38
I4
sS'[[Fish Fillet]]'
p39
I79
sS'[[Egg]]'
p40
I88
sS'[[Chili Popcorn]]'
p41
I15
sS'[[Honey]]'
p42
I1
sS'[[Goat Cheese]]'
p43
I17
sS'[[Bacon]]'
p44
I19
sS'[[Cotton Fabric]]'
p45
I25
sS'[[Potato Bread]]'
p46
I39
sS'[[Goat Feed]]'
p47
I42
sS'[[Pumpkin Pie]]'
p48
I20
sS'[[Honey Popcorn]]'
p49
I32
sS'[[Wool]]'
p50
I22
sS'[[Red Berry Cake]]'
p51
I64
sS'[[Cookie]]'
p52
I68
sS'[[Pizza]]'
p53
I13
sS'[[Syrup]]'
p54
I47
sS'[[Pig Feed]]'
p55
I89
sS'[[Sheep Feed]]'
p56
I12
sS'[[Apple Juice]]'
p57
I63
sS'[[Cherry Popsicle]]'
p58
I70
sS'[[Bacon and Eggs]]'
p59
I80
sS'[[Cotton]]'
p60
I18
sS'[[Feta Pie]]'
p61
I16
sS'[[Carrot Juice]]'
p62
I60
sS'[[Baked Potato]]'
p63
I46
sS'[[Milk]]'
p64
I21
sS'[[Chocolate Ice Cream]]'
p65
I34
sS'[[Berry Juice]]'
p66
I14
sS'[[Apple Jam]]'
p67
I37
sS'[[Chicken Feed]]'
p68
I67
sS'[[Pumpkin]]'
p69
I81
sS'[[Carrot]]'
p70
I73
sS'[[Blackberry]]'
p71
I62
sS'[[Corn Bread]]'
p72
I43
sS'[[Cotton Shirt]]'
p73
I26
sS'[[Cream]]'
p74
I31
sS'[[Raspberry Jam]]'
p75
I71
sS'[[Cherry]]'
p76
I0
sS'[[Bread]]'
p77
I84
sS'[[Wheat]]'
p78
I76
sS'[[Casserole]]'
p79
I7
sS'[[Chili Pepper]]'
p80
I40
sS'[[Roasted Tomatoes]]'
p81
I61
sS'[[Potato Feta Cake]]'
p82
I83
sS'[[Sugarcane]]'
p83
I6
sS'[[Honeycomb]]'
p84
I55
sS'[[Indigo]]'
p85
I52
sS'[[Raspberry]]'
p86
I5
sS'[[Sweater]]'
p87
I3
sS'[[Blackberry Muffin]]'
p88
I30
sS'[[Chocolate Cake]]'
p89
I33
sS'[[Cow Feed]]'
p90
I48
sS'[[Spicy Pizza]]'
p91
I58
s.(dp0
S'[[Indigo]]'
p1
I0
sS'[[Brown Sugar]]'
p2
I2
sS'[[Vanilla Ice Cream]]'
p3
I1
sS'[[Carrot Cake]]'
p4
I1
sS'[[Blue Woolly Hat]]'
p5
I3
sS'[[Berry Juice]]'
p6
I1
s.