(dp0
S'[[Pumpkin]]'
p1
I81
sS'[[Blackberry Jam]]'
p2
I68
sS'[[Violet Dress]]'
p3
I47
sS'[[Strawberry Ice Cream]]'
p4
I73
sS'[[Raspberry Muffin]]'
p5
I24
sS'[[Apple Pie]]'
p6
I67
sS'[[Tomato Juice]]'
p7
I37
sS'[[Carrot Cake]]'
p8
I85
sS'[[Vanilla Ice Cream]]'
p9
I55
sS'[[Lure]]'
p10
I50
sS'[[Carrot Pie]]'
p11
I52
sS'[[Tomato]]'
p12
I39
sS'[[Cherry Juice]]'
p13
I42
sS'[[Cheesecake]]'
p14
I64
sS'[[Fish Pie]]'
p15
I53
sS'[[Pancake]]'
p16
I59
sS'[[Popcorn]]'
p17
I61
sS'[[Goat Cheese]]'
p18
I7
sS'[[Potato Bread]]'
p19
I0
sS'[[Goat Feed]]'
p20
I21
sS'[[Red Berry Cake]]'
p21
I27
sS'[[Pizza]]'
p22
I49
sS'[[Syrup]]'
p23
I90
sS'[[Sheep Feed]]'
p24
I88
sS'[[Cherry Popsicle]]'
p25
I80
sS'[[Bacon and Eggs]]'
p26
I14
sS'[[Carrot Juice]]'
p27
I43
sS'[[Baked Potato]]'
p28
I75
sS'[[Milk]]'
p29
I69
sS'[[Apple Jam]]'
p30
I65
sS'[[Carrot]]'
p31
I58
sS'[[Blackberry]]'
p32
I87
sS'[[Cotton Shirt]]'
p33
I84
sS'[[Cream]]'
p34
I51
sS'[[Raspberry Jam]]'
p35
I89
sS'[[Cherry]]'
p36
I32
sS'[[Bread]]'
p37
I22
sS'[[Wheat]]'
p38
I28
sS'[[Casserole]]'
p39
I78
sS'[[Chili Pepper]]'
p40
I16
sS'[[Potato Feta Cake]]'
p41
I82
sS'[[Honeycomb]]'
p42
I15
sS'[[Indigo]]'
p43
I40
sS'[[Raspberry]]'
p44
I44
sS'[[Chocolate Cake]]'
p45
I10
sS'[[Spicy Pizza]]'
p46
I33
sS'[[Cacao]]'
p47
I1
sS'[[Woolly Chaps]]'
p48
I72
sS'[[Honey]]'
p49
I5
sS'[[Egg]]'
p50
I63
sS'[[Strawberry Cake]]'
p51
I31
sS'[[Potato]]'
p52
I25
sS'[[Fish Burger]]'
p53
I8
sS'[[White Sugar]]'
p54
I70
sS'[[Buttered Popcorn]]'
p55
I3
sS'[[Cream Cake]]'
p56
I23
sS'[[Soybean]]'
p57
I57
sS'[[Apple]]'
p58
I45
sS'[[Blue Woolly Hat]]'
p59
I41
sS'[[Goat Milk]]'
p60
I54
sS'[[Hamburger]]'
p61
I86
sS'[[Cherry Jam]]'
p62
I46
sS"[[Shepherd's Pie]]"
p63
I18
sS'[[Brown Sugar]]'
p64
I19
sS'[[Butter]]'
p65
I2
sS'[[Bacon Pie]]'
p66
I36
sS'[[Strawberry]]'
p67
I83
sS'[[Pumpkin Pie]]'
p68
I35
sS'[[Corn]]'
p69
I62
sS'[[Fish Fillet]]'
p70
I74
sS'[[Chili Popcorn]]'
p71
I26
sS'[[Bacon]]'
p72
I60
sS'[[Cotton Fabric]]'
p73
I34
sS'[[Blue Sweater]]'
p74
I48
sS'[[Honey Popcorn]]'
p75
I76
sS'[[Sugarcane]]'
p76
I11
sS'[[Cookie]]'
p77
I13
sS'[[Apple Juice]]'
p78
I4
sS'[[Pig Feed]]'
p79
I29
sS'[[Cotton]]'
p80
I30
sS'[[Feta Pie]]'
p81
I66
sS'[[Cheese]]'
p82
I71
sS'[[Chocolate Ice Cream]]'
p83
I6
sS'[[Chicken Feed]]'
p84
I17
sS'[[Corn Bread]]'
p85
I38
sS'[[Wool]]'
p86
I56
sS'[[Roasted Tomatoes]]'
p87
I12
sS'[[Berry Juice]]'
p88
I77
sS'[[Sweater]]'
p89
I79
sS'[[Blackberry Muffin]]'
p90
I20
sS'[[Cow Feed]]'
p91
I9
s.(dp0
S'[[Pumpkin]]'
p1
I3
sS'[[Popcorn]]'
p2
I3
sS'[[Potato Feta Cake]]'
p3
I3
sS'[[Goat Milk]]'
p4
I2
sS'[[Hamburger]]'
p5
I1
sS'[[Cream]]'
p6
I1
sS'[[Cheese]]'
p7
I3
sS'[[Raspberry Jam]]'
p8
I5
sS'[[Chocolate Cake]]'
p9
I5
sS'[[Raspberry]]'
p10
I2
sS'[[Bacon Pie]]'
p11
I1
s.