(dp0
S'[[Pumpkin]]'
p1
I79
sS'[[Blackberry Jam]]'
p2
I69
sS'[[Violet Dress]]'
p3
I45
sS'[[Strawberry Ice Cream]]'
p4
I89
sS'[[Raspberry Muffin]]'
p5
I50
sS'[[Apple Pie]]'
p6
I81
sS'[[Tomato Juice]]'
p7
I28
sS'[[Blue Sweater]]'
p8
I8
sS'[[Honey]]'
p9
I37
sS'[[Vanilla Ice Cream]]'
p10
I34
sS'[[Lure]]'
p11
I38
sS'[[Carrot Pie]]'
p12
I84
sS'[[Tomato]]'
p13
I58
sS'[[Potato]]'
p14
I68
sS'[[Cheesecake]]'
p15
I13
sS'[[Fish Pie]]'
p16
I9
sS'[[Pancake]]'
p17
I72
sS'[[Popcorn]]'
p18
I63
sS'[[Goat Cheese]]'
p19
I49
sS'[[Potato Bread]]'
p20
I51
sS'[[Goat Feed]]'
p21
I87
sS'[[Red Berry Cake]]'
p22
I43
sS'[[Pizza]]'
p23
I2
sS'[[Syrup]]'
p24
I59
sS'[[Sheep Feed]]'
p25
I75
sS'[[Cherry Popsicle]]'
p26
I73
sS'[[Bacon and Eggs]]'
p27
I60
sS'[[Carrot]]'
p28
I61
sS'[[Carrot Juice]]'
p29
I14
sS'[[Baked Potato]]'
p30
I35
sS'[[Milk]]'
p31
I19
sS'[[Apple Jam]]'
p32
I88
sS'[[Apple]]'
p33
I70
sS'[[Blackberry]]'
p34
I71
sS'[[Cotton Shirt]]'
p35
I46
sS'[[Cream]]'
p36
I40
sS'[[Raspberry Jam]]'
p37
I12
sS'[[Cherry]]'
p38
I22
sS'[[Bread]]'
p39
I30
sS'[[Wheat]]'
p40
I18
sS'[[Casserole]]'
p41
I74
sS'[[Strawberry]]'
p42
I44
sS'[[Potato Feta Cake]]'
p43
I4
sS'[[Honeycomb]]'
p44
I48
sS'[[Indigo]]'
p45
I26
sS'[[Raspberry]]'
p46
I57
sS'[[Chocolate Cake]]'
p47
I27
sS'[[Spicy Pizza]]'
p48
I65
sS'[[Cacao]]'
p49
I23
sS'[[Woolly Chaps]]'
p50
I21
sS'[[Carrot Cake]]'
p51
I39
sS'[[Egg]]'
p52
I82
sS'[[Strawberry Cake]]'
p53
I10
sS'[[Cherry Juice]]'
p54
I77
sS'[[Fish Burger]]'
p55
I29
sS'[[White Sugar]]'
p56
I11
sS'[[Buttered Popcorn]]'
p57
I67
sS'[[Cream Cake]]'
p58
I25
sS'[[Soybean]]'
p59
I7
sS'[[Brown Sugar]]'
p60
I66
sS'[[Blue Woolly Hat]]'
p61
I53
sS'[[Goat Milk]]'
p62
I17
sS'[[Hamburger]]'
p63
I31
sS'[[Cherry Jam]]'
p64
I47
sS"[[Shepherd's Pie]]"
p65
I54
sS'[[Butter]]'
p66
I76
sS'[[Bacon Pie]]'
p67
I36
sS'[[Chili Pepper]]'
p68
I3
sS'[[Corn]]'
p69
I16
sS'[[Fish Fillet]]'
p70
I42
sS'[[Chili Popcorn]]'
p71
I6
sS'[[Bacon]]'
p72
I85
sS'[[Cotton Fabric]]'
p73
I80
sS'[[Pumpkin Pie]]'
p74
I20
sS'[[Honey Popcorn]]'
p75
I62
sS'[[Sugarcane]]'
p76
I64
sS'[[Cookie]]'
p77
I1
sS'[[Apple Juice]]'
p78
I0
sS'[[Pig Feed]]'
p79
I83
sS'[[Cotton]]'
p80
I78
sS'[[Feta Pie]]'
p81
I86
sS'[[Cheese]]'
p82
I24
sS'[[Chocolate Ice Cream]]'
p83
I15
sS'[[Chicken Feed]]'
p84
I90
sS'[[Corn Bread]]'
p85
I41
sS'[[Wool]]'
p86
I52
sS'[[Roasted Tomatoes]]'
p87
I56
sS'[[Berry Juice]]'
p88
I32
sS'[[Sweater]]'
p89
I33
sS'[[Blackberry Muffin]]'
p90
I55
sS'[[Cow Feed]]'
p91
I5
s.(dp0
S'[[Casserole]]'
p1
I3
sS'[[Pizza]]'
p2
I5
sS'[[Apple Pie]]'
p3
I0
sS'[[Fish Pie]]'
p4
I3
sS'[[Carrot Juice]]'
p5
I0
sS'[[Baked Potato]]'
p6
I0
sS'[[White Sugar]]'
p7
I0
sS'[[Apple Jam]]'
p8
I1
sS"[[Shepherd's Pie]]"
p9
I0
sS'[[Violet Dress]]'
p10
I0
sS'[[Soybean]]'
p11
I1
s.