(dp0
S'[[Pumpkin]]'
p1
I22
sS'[[Blackberry Jam]]'
p2
I44
sS'[[Violet Dress]]'
p3
I16
sS'[[Strawberry Ice Cream]]'
p4
I6
sS'[[Raspberry Muffin]]'
p5
I82
sS'[[Apple Pie]]'
p6
I3
sS'[[Tomato Juice]]'
p7
I7
sS'[[Carrot Cake]]'
p8
I67
sS'[[Vanilla Ice Cream]]'
p9
I65
sS'[[Lure]]'
p10
I70
sS'[[Carrot Pie]]'
p11
I80
sS'[[Tomato]]'
p12
I34
sS'[[Cherry Juice]]'
p13
I29
sS'[[Cheesecake]]'
p14
I9
sS'[[Fish Pie]]'
p15
I59
sS'[[Pancake]]'
p16
I55
sS'[[Popcorn]]'
p17
I53
sS'[[Goat Cheese]]'
p18
I78
sS'[[Potato Bread]]'
p19
I86
sS'[[Goat Feed]]'
p20
I71
sS'[[Red Berry Cake]]'
p21
I43
sS'[[Pizza]]'
p22
I42
sS'[[Syrup]]'
p23
I40
sS'[[Sheep Feed]]'
p24
I52
sS'[[Cherry Popsicle]]'
p25
I54
sS'[[Bacon and Eggs]]'
p26
I25
sS'[[Carrot Juice]]'
p27
I83
sS'[[Baked Potato]]'
p28
I30
sS'[[Milk]]'
p29
I20
sS'[[Apple Jam]]'
p30
I64
sS'[[Carrot]]'
p31
I8
sS'[[Blackberry]]'
p32
I45
sS'[[Cotton Shirt]]'
p33
I28
sS'[[Cream]]'
p34
I15
sS'[[Raspberry Jam]]'
p35
I58
sS'[[Cherry]]'
p36
I60
sS'[[Bread]]'
p37
I90
sS'[[Wheat]]'
p38
I39
sS'[[Casserole]]'
p39
I1
sS'[[Chili Pepper]]'
p40
I61
sS'[[Potato Feta Cake]]'
p41
I47
sS'[[Honeycomb]]'
p42
I76
sS'[[Indigo]]'
p43
I79
sS'[[Raspberry]]'
p44
I31
sS'[[Chocolate Cake]]'
p45
I0
sS'[[Spicy Pizza]]'
p46
I48
sS'[[Cacao]]'
p47
I17
sS'[[Woolly Chaps]]'
p48
I81
sS'[[Honey]]'
p49
I89
sS'[[Egg]]'
p50
I36
sS'[[Strawberry Cake]]'
p51
I69
sS'[[Potato]]'
p52
I84
sS'[[Fish Burger]]'
p53
I4
sS'[[White Sugar]]'
p54
I72
sS'[[Buttered Popcorn]]'
p55
I33
sS'[[Cream Cake]]'
p56
I75
sS'[[Soybean]]'
p57
I27
sS'[[Apple]]'
p58
I85
sS'[[Blue Woolly Hat]]'
p59
I24
sS'[[Goat Milk]]'
p60
I10
sS'[[Hamburger]]'
p61
I38
sS'[[Cherry Jam]]'
p62
I74
sS"[[Shepherd's Pie]]"
p63
I5
sS'[[Brown Sugar]]'
p64
I51
sS'[[Butter]]'
p65
I50
sS'[[Bacon Pie]]'
p66
I19
sS'[[Strawberry]]'
p67
I14
sS'[[Pumpkin Pie]]'
p68
I23
sS'[[Corn]]'
p69
I41
sS'[[Fish Fillet]]'
p70
I13
sS'[[Chili Popcorn]]'
p71
I18
sS'[[Bacon]]'
p72
I68
sS'[[Cotton Fabric]]'
p73
I63
sS'[[Blue Sweater]]'
p74
I12
sS'[[Honey Popcorn]]'
p75
I73
sS'[[Sugarcane]]'
p76
I37
sS'[[Cookie]]'
p77
I49
sS'[[Apple Juice]]'
p78
I77
sS'[[Pig Feed]]'
p79
I87
sS'[[Cotton]]'
p80
I32
sS'[[Feta Pie]]'
p81
I56
sS'[[Cheese]]'
p82
I2
sS'[[Chocolate Ice Cream]]'
p83
I66
sS'[[Chicken Feed]]'
p84
I35
sS'[[Corn Bread]]'
p85
I57
sS'[[Wool]]'
p86
I88
sS'[[Roasted Tomatoes]]'
p87
I46
sS'[[Berry Juice]]'
p88
I26
sS'[[Sweater]]'
p89
I21
sS'[[Blackberry Muffin]]'
p90
I11
sS'[[Cow Feed]]'
p91
I62
s.(dp0
S'[[Cow Feed]]'
p1
I0
sS'[[Cacao]]'
p2
I1
sS'[[Blackberry]]'
p3
I5
sS'[[Bacon and Eggs]]'
p4
I0
sS'[[Pumpkin]]'
p5
I2
sS'[[Egg]]'
p6
I3
sS'[[Cotton Shirt]]'
p7
I2
sS'[[Wool]]'
p8
I4
sS'[[Raspberry Jam]]'
p9
I3
sS'[[Cotton Fabric]]'
p10
I2
sS'[[Chicken Feed]]'
p11
I4
s.