(dp0
S'[[Pumpkin]]'
p1
I44
sS'[[Blackberry Jam]]'
p2
I64
sS'[[Violet Dress]]'
p3
I25
sS'[[Strawberry Ice Cream]]'
p4
I45
sS'[[Raspberry Muffin]]'
p5
I53
sS'[[Apple Pie]]'
p6
I5
sS'[[Tomato Juice]]'
p7
I80
sS'[[Honey]]'
p8
I9
sS'[[Vanilla Ice Cream]]'
p9
I3
sS'[[Lure]]'
p10
I38
sS'[[Carrot Pie]]'
p11
I50
sS'[[Tomato]]'
p12
I63
sS'[[Potato]]'
p13
I2
sS'[[Cheesecake]]'
p14
I69
sS'[[Fish Pie]]'
p15
I87
sS'[[Pancake]]'
p16
I58
sS'[[Popcorn]]'
p17
I60
sS'[[Goat Cheese]]'
p18
I27
sS'[[Potato Bread]]'
p19
I16
sS'[[Goat Feed]]'
p20
I43
sS'[[Red Berry Cake]]'
p21
I72
sS'[[Pizza]]'
p22
I41
sS'[[Syrup]]'
p23
I71
sS'[[Sheep Feed]]'
p24
I48
sS'[[Cherry Popsicle]]'
p25
I47
sS'[[Bacon and Eggs]]'
p26
I7
sS'[[Carrot Juice]]'
p27
I40
sS'[[Baked Potato]]'
p28
I0
sS'[[Milk]]'
p29
I30
sS'[[Apple Jam]]'
p30
I24
sS'[[Carrot]]'
p31
I55
sS'[[Blackberry]]'
p32
I10
sS'[[Cotton Shirt]]'
p33
I37
sS'[[Cream]]'
p34
I70
sS'[[Raspberry Jam]]'
p35
I51
sS'[[Cherry]]'
p36
I14
sS'[[Bread]]'
p37
I8
sS'[[Wheat]]'
p38
I23
sS'[[Casserole]]'
p39
I36
sS'[[Chili Pepper]]'
p40
I34
sS'[[Honey Popcorn]]'
p41
I73
sS'[[Honeycomb]]'
p42
I39
sS'[[Indigo]]'
p43
I66
sS'[[Raspberry]]'
p44
I52
sS'[[Chocolate Cake]]'
p45
I20
sS'[[Spicy Pizza]]'
p46
I68
sS'[[Cacao]]'
p47
I29
sS'[[Woolly Chaps]]'
p48
I33
sS'[[Carrot Cake]]'
p49
I19
sS'[[Egg]]'
p50
I22
sS'[[Strawberry Cake]]'
p51
I21
sS'[[Cherry Juice]]'
p52
I18
sS'[[Fish Burger]]'
p53
I56
sS'[[White Sugar]]'
p54
I65
sS'[[Buttered Popcorn]]'
p55
I62
sS'[[Cream Cake]]'
p56
I35
sS'[[Soybean]]'
p57
I6
sS'[[Apple]]'
p58
I26
sS'[[Blue Woolly Hat]]'
p59
I28
sS'[[Goat Milk]]'
p60
I32
sS'[[Hamburger]]'
p61
I61
sS'[[Cherry Jam]]'
p62
I75
sS"[[Shepherd's Pie]]"
p63
I74
sS'[[Brown Sugar]]'
p64
I85
sS'[[Butter]]'
p65
I59
sS'[[Bacon Pie]]'
p66
I86
sS'[[Strawberry]]'
p67
I54
sS'[[Pumpkin Pie]]'
p68
I1
sS'[[Corn]]'
p69
I81
sS'[[Fish Fillet]]'
p70
I78
sS'[[Chili Popcorn]]'
p71
I49
sS'[[Bacon]]'
p72
I15
sS'[[Cotton Fabric]]'
p73
I11
sS'[[Blue Sweater]]'
p74
I12
sS'[[Potato Feta Cake]]'
p75
I82
sS'[[Sugarcane]]'
p76
I76
sS'[[Cookie]]'
p77
I17
sS'[[Apple Juice]]'
p78
I83
sS'[[Pig Feed]]'
p79
I77
sS'[[Cotton]]'
p80
I57
sS'[[Feta Pie]]'
p81
I88
sS'[[Cheese]]'
p82
I31
sS'[[Chocolate Ice Cream]]'
p83
I46
sS'[[Chicken Feed]]'
p84
I89
sS'[[Corn Bread]]'
p85
I42
sS'[[Wool]]'
p86
I84
sS'[[Roasted Tomatoes]]'
p87
I13
sS'[[Berry Juice]]'
p88
I4
sS'[[Sweater]]'
p89
I79
sS'[[Blackberry Muffin]]'
p90
I90
sS'[[Cow Feed]]'
p91
I67
s.(dp0
S'[[Brown Sugar]]'
p1
I2
sS'[[Corn]]'
p2
I5
sS'[[Strawberry]]'
p3
I5
sS'[[Roasted Tomatoes]]'
p4
I4
sS'[[Corn Bread]]'
p5
I2
sS'[[Potato Feta Cake]]'
p6
I2
sS'[[Goat Cheese]]'
p7
I4
sS'[[Sugarcane]]'
p8
I4
sS'[[Sweater]]'
p9
I0
sS'[[Raspberry Jam]]'
p10
I0
sS'[[Cherry]]'
p11
I1
s.