(dp0
S'[[Pumpkin]]'
p1
I2
sS'[[Blackberry Jam]]'
p2
I62
sS'[[Violet Dress]]'
p3
I49
sS'[[Strawberry Ice Cream]]'
p4
I63
sS'[[Raspberry Muffin]]'
p5
I77
sS'[[Apple Pie]]'
p6
I54
sS'[[Tomato Juice]]'
p7
I69
sS'[[Carrot Cake]]'
p8
I38
sS'[[Vanilla Ice Cream]]'
p9
I40
sS'[[Lure]]'
p10
I56
sS'[[Carrot Pie]]'
p11
I78
sS'[[Tomato]]'
p12
I59
sS'[[Cherry Juice]]'
p13
I19
sS'[[Cheesecake]]'
p14
I74
sS'[[Fish Pie]]'
p15
I37
sS'[[Pancake]]'
p16
I79
sS'[[Popcorn]]'
p17
I83
sS'[[Goat Cheese]]'
p18
I10
sS'[[Potato Bread]]'
p19
I85
sS'[[Goat Feed]]'
p20
I12
sS'[[Red Berry Cake]]'
p21
I65
sS'[[Pizza]]'
p22
I30
sS'[[Syrup]]'
p23
I61
sS'[[Sheep Feed]]'
p24
I17
sS'[[Cherry Popsicle]]'
p25
I41
sS'[[Bacon and Eggs]]'
p26
I57
sS'[[Carrot]]'
p27
I4
sS'[[Carrot Juice]]'
p28
I53
sS'[[Baked Potato]]'
p29
I72
sS'[[Milk]]'
p30
I32
sS'[[Apple Jam]]'
p31
I24
sS'[[Apple]]'
p32
I6
sS'[[Blackberry]]'
p33
I42
sS'[[Cotton Shirt]]'
p34
I76
sS'[[Cream]]'
p35
I11
sS'[[Raspberry Jam]]'
p36
I64
sS'[[Cherry]]'
p37
I47
sS'[[Bread]]'
p38
I0
sS'[[Wheat]]'
p39
I89
sS'[[Casserole]]'
p40
I21
sS'[[Chili Pepper]]'
p41
I27
sS'[[Honey Popcorn]]'
p42
I87
sS'[[Honeycomb]]'
p43
I34
sS'[[Indigo]]'
p44
I70
sS'[[Raspberry]]'
p45
I13
sS'[[Chocolate Cake]]'
p46
I29
sS'[[Spicy Pizza]]'
p47
I44
sS'[[Cacao]]'
p48
I52
sS'[[Woolly Chaps]]'
p49
I80
sS'[[Honey]]'
p50
I46
sS'[[Egg]]'
p51
I71
sS'[[Strawberry Cake]]'
p52
I90
sS'[[Potato]]'
p53
I5
sS'[[Fish Burger]]'
p54
I43
sS'[[White Sugar]]'
p55
I50
sS'[[Buttered Popcorn]]'
p56
I55
sS'[[Cream Cake]]'
p57
I82
sS'[[Soybean]]'
p58
I68
sS'[[Brown Sugar]]'
p59
I23
sS'[[Blue Woolly Hat]]'
p60
I9
sS'[[Goat Milk]]'
p61
I60
sS'[[Hamburger]]'
p62
I15
sS'[[Cherry Jam]]'
p63
I1
sS"[[Shepherd's Pie]]"
p64
I22
sS'[[Butter]]'
p65
I88
sS'[[Bacon Pie]]'
p66
I35
sS'[[Strawberry]]'
p67
I84
sS'[[Pumpkin Pie]]'
p68
I3
sS'[[Corn]]'
p69
I39
sS'[[Fish Fillet]]'
p70
I14
sS'[[Chili Popcorn]]'
p71
I86
sS'[[Bacon]]'
p72
I36
sS'[[Cotton Fabric]]'
p73
I48
sS'[[Blue Sweater]]'
p74
I81
sS'[[Potato Feta Cake]]'
p75
I67
sS'[[Sugarcane]]'
p76
I45
sS'[[Cookie]]'
p77
I66
sS'[[Apple Juice]]'
p78
I25
sS'[[Pig Feed]]'
p79
I75
sS'[[Cotton]]'
p80
I16
sS'[[Feta Pie]]'
p81
I51
sS'[[Cheese]]'
p82
I26
sS'[[Chocolate Ice Cream]]'
p83
I58
sS'[[Chicken Feed]]'
p84
I7
sS'[[Corn Bread]]'
p85
I20
sS'[[Wool]]'
p86
I28
sS'[[Roasted Tomatoes]]'
p87
I31
sS'[[Berry Juice]]'
p88
I18
sS'[[Sweater]]'
p89
I8
sS'[[Blackberry Muffin]]'
p90
I73
sS'[[Cow Feed]]'
p91
I33
s.(dp0
S'[[Cow Feed]]'
p1
I2
sS'[[Chili Pepper]]'
p2
I0
sS'[[Strawberry Cake]]'
p3
I1
sS'[[Carrot Juice]]'
p4
I3
sS'[[Tomato Juice]]'
p5
I1
sS'[[Spicy Pizza]]'
p6
I3
sS'[[Vanilla Ice Cream]]'
p7
I4
sS'[[Raspberry Jam]]'
p8
I0
sS'[[Apple Juice]]'
p9
I2
sS'[[Blue Woolly Hat]]'
p10
I2
s.