(dp0
S'[[Pumpkin]]'
p1
I23
sS'[[Blackberry Jam]]'
p2
I66
sS'[[Violet Dress]]'
p3
I55
sS'[[Strawberry Ice Cream]]'
p4
I82
sS'[[Raspberry Muffin]]'
p5
I47
sS'[[Apple Pie]]'
p6
I6
sS'[[Tomato Juice]]'
p7
I59
sS'[[Carrot Cake]]'
p8
I70
sS'[[Vanilla Ice Cream]]'
p9
I19
sS'[[Lure]]'
p10
I4
sS'[[Carrot Pie]]'
p11
I71
sS'[[Tomato]]'
p12
I27
sS'[[Cherry Juice]]'
p13
I28
sS'[[Cheesecake]]'
p14
I86
sS'[[Fish Pie]]'
p15
I32
sS'[[Pancake]]'
p16
I8
sS'[[Popcorn]]'
p17
I83
sS'[[Goat Cheese]]'
p18
I51
sS'[[Potato Bread]]'
p19
I78
sS'[[Goat Feed]]'
p20
I10
sS'[[Red Berry Cake]]'
p21
I33
sS'[[Pizza]]'
p22
I14
sS'[[Syrup]]'
p23
I48
sS'[[Sheep Feed]]'
p24
I76
sS'[[Cherry Popsicle]]'
p25
I68
sS'[[Bacon and Eggs]]'
p26
I21
sS'[[Carrot Juice]]'
p27
I30
sS'[[Baked Potato]]'
p28
I26
sS'[[Milk]]'
p29
I72
sS'[[Apple Jam]]'
p30
I85
sS'[[Carrot]]'
p31
I52
sS'[[Blackberry]]'
p32
I31
sS'[[Cotton Shirt]]'
p33
I18
sS'[[Cream]]'
p34
I35
sS'[[Raspberry Jam]]'
p35
I58
sS'[[Cherry]]'
p36
I80
sS'[[Bread]]'
p37
I43
sS'[[Wheat]]'
p38
I34
sS'[[Casserole]]'
p39
I73
sS'[[Chili Pepper]]'
p40
I89
sS'[[Potato Feta Cake]]'
p41
I90
sS'[[Honeycomb]]'
p42
I17
sS'[[Indigo]]'
p43
I75
sS'[[Raspberry]]'
p44
I81
sS'[[Chocolate Cake]]'
p45
I40
sS'[[Spicy Pizza]]'
p46
I36
sS'[[Cacao]]'
p47
I15
sS'[[Woolly Chaps]]'
p48
I88
sS'[[Honey]]'
p49
I29
sS'[[Egg]]'
p50
I20
sS'[[Strawberry Cake]]'
p51
I79
sS'[[Potato]]'
p52
I39
sS'[[Fish Burger]]'
p53
I5
sS'[[White Sugar]]'
p54
I3
sS'[[Buttered Popcorn]]'
p55
I62
sS'[[Cream Cake]]'
p56
I87
sS'[[Soybean]]'
p57
I65
sS'[[Apple]]'
p58
I0
sS'[[Blue Woolly Hat]]'
p59
I56
sS'[[Goat Milk]]'
p60
I67
sS'[[Hamburger]]'
p61
I24
sS'[[Cherry Jam]]'
p62
I64
sS"[[Shepherd's Pie]]"
p63
I16
sS'[[Brown Sugar]]'
p64
I11
sS'[[Butter]]'
p65
I44
sS'[[Bacon Pie]]'
p66
I49
sS'[[Strawberry]]'
p67
I38
sS'[[Pumpkin Pie]]'
p68
I54
sS'[[Corn]]'
p69
I41
sS'[[Fish Fillet]]'
p70
I61
sS'[[Chili Popcorn]]'
p71
I77
sS'[[Bacon]]'
p72
I46
sS'[[Cotton Fabric]]'
p73
I53
sS'[[Blue Sweater]]'
p74
I45
sS'[[Honey Popcorn]]'
p75
I63
sS'[[Sugarcane]]'
p76
I74
sS'[[Cookie]]'
p77
I9
sS'[[Apple Juice]]'
p78
I42
sS'[[Pig Feed]]'
p79
I57
sS'[[Cotton]]'
p80
I25
sS'[[Feta Pie]]'
p81
I60
sS'[[Cheese]]'
p82
I7
sS'[[Chocolate Ice Cream]]'
p83
I1
sS'[[Chicken Feed]]'
p84
I69
sS'[[Corn Bread]]'
p85
I12
sS'[[Wool]]'
p86
I22
sS'[[Roasted Tomatoes]]'
p87
I84
sS'[[Berry Juice]]'
p88
I13
sS'[[Sweater]]'
p89
I37
sS'[[Blackberry Muffin]]'
p90
I50
sS'[[Cow Feed]]'
p91
I2
s.(dp0
S'[[Pig Feed]]'
p1
I0
sS'[[Pumpkin Pie]]'
p2
I2
sS'[[Chili Pepper]]'
p3
I5
sS'[[Sheep Feed]]'
p4
I1
sS'[[Cotton]]'
p5
I3
sS'[[Cotton Shirt]]'
p6
I1
sS'[[Baked Potato]]'
p7
I0
sS'[[Indigo]]'
p8
I0
sS'[[Cheese]]'
p9
I5
sS'[[Butter]]'
p10
I2
sS'[[Chicken Feed]]'
p11
I2
s.