(dp0
S'[[Pumpkin]]'
p1
I75
sS'[[Blackberry Jam]]'
p2
I15
sS'[[Violet Dress]]'
p3
I67
sS'[[Strawberry Ice Cream]]'
p4
I20
sS'[[Raspberry Muffin]]'
p5
I52
sS'[[Apple Pie]]'
p6
I87
sS'[[Tomato Juice]]'
p7
I19
sS'[[Carrot Cake]]'
p8
I48
sS'[[Vanilla Ice Cream]]'
p9
I24
sS'[[Lure]]'
p10
I88
sS'[[Carrot Pie]]'
p11
I31
sS'[[Tomato]]'
p12
I59
sS'[[Cherry Juice]]'
p13
I37
sS'[[Cheesecake]]'
p14
I45
sS'[[Fish Pie]]'
p15
I8
sS'[[Pancake]]'
p16
I40
sS'[[Popcorn]]'
p17
I38
sS'[[Goat Cheese]]'
p18
I71
sS'[[Potato Bread]]'
p19
I51
sS'[[Goat Feed]]'
p20
I16
sS'[[Red Berry Cake]]'
p21
I68
sS'[[Pizza]]'
p22
I49
sS'[[Syrup]]'
p23
I57
sS'[[Sheep Feed]]'
p24
I46
sS'[[Cherry Popsicle]]'
p25
I6
sS'[[Bacon and Eggs]]'
p26
I42
sS'[[Carrot Juice]]'
p27
I84
sS'[[Baked Potato]]'
p28
I55
sS'[[Milk]]'
p29
I64
sS'[[Apple Jam]]'
p30
I32
sS'[[Carrot]]'
p31
I39
sS'[[Blackberry]]'
p32
I9
sS'[[Cotton Shirt]]'
p33
I28
sS'[[Cream]]'
p34
I44
sS'[[Raspberry Jam]]'
p35
I66
sS'[[Cherry]]'
p36
I90
sS'[[Bread]]'
p37
I36
sS'[[Wheat]]'
p38
I17
sS'[[Casserole]]'
p39
I21
sS'[[Chili Pepper]]'
p40
I81
sS'[[Potato Feta Cake]]'
p41
I43
sS'[[Honeycomb]]'
p42
I86
sS'[[Indigo]]'
p43
I13
sS'[[Raspberry]]'
p44
I70
sS'[[Chocolate Cake]]'
p45
I73
sS'[[Spicy Pizza]]'
p46
I3
sS'[[Cacao]]'
p47
I4
sS'[[Woolly Chaps]]'
p48
I53
sS'[[Honey]]'
p49
I22
sS'[[Egg]]'
p50
I74
sS'[[Strawberry Cake]]'
p51
I82
sS'[[Potato]]'
p52
I1
sS'[[Fish Burger]]'
p53
I27
sS'[[White Sugar]]'
p54
I63
sS'[[Buttered Popcorn]]'
p55
I18
sS'[[Cream Cake]]'
p56
I34
sS'[[Soybean]]'
p57
I30
sS'[[Apple]]'
p58
I33
sS'[[Blue Woolly Hat]]'
p59
I85
sS'[[Goat Milk]]'
p60
I25
sS'[[Hamburger]]'
p61
I62
sS'[[Cherry Jam]]'
p62
I47
sS"[[Shepherd's Pie]]"
p63
I7
sS'[[Brown Sugar]]'
p64
I69
sS'[[Butter]]'
p65
I58
sS'[[Bacon Pie]]'
p66
I79
sS'[[Strawberry]]'
p67
I29
sS'[[Pumpkin Pie]]'
p68
I54
sS'[[Corn]]'
p69
I72
sS'[[Fish Fillet]]'
p70
I77
sS'[[Chili Popcorn]]'
p71
I78
sS'[[Bacon]]'
p72
I11
sS'[[Cotton Fabric]]'
p73
I76
sS'[[Blue Sweater]]'
p74
I35
sS'[[Honey Popcorn]]'
p75
I50
sS'[[Sugarcane]]'
p76
I83
sS'[[Cookie]]'
p77
I0
sS'[[Apple Juice]]'
p78
I2
sS'[[Pig Feed]]'
p79
I89
sS'[[Cotton]]'
p80
I61
sS'[[Feta Pie]]'
p81
I12
sS'[[Cheese]]'
p82
I14
sS'[[Chocolate Ice Cream]]'
p83
I5
sS'[[Chicken Feed]]'
p84
I26
sS'[[Corn Bread]]'
p85
I80
sS'[[Wool]]'
p86
I23
sS'[[Roasted Tomatoes]]'
p87
I10
sS'[[Berry Juice]]'
p88
I65
sS'[[Sweater]]'
p89
I60
sS'[[Blackberry Muffin]]'
p90
I41
sS'[[Cow Feed]]'
p91
I56
s.(dp0
S'[[Pig Feed]]'
p1
I5
sS'[[Apple]]'
p2
I1
sS'[[Popcorn]]'
p3
I2
sS'[[Cheesecake]]'
p4
I1
sS'[[Carrot]]'
p5
I2
sS'[[Red Berry Cake]]'
p6
I3
sS'[[Strawberry Cake]]'
p7
I0
sS'[[Pumpkin]]'
p8
I0
sS'[[Baked Potato]]'
p9
I0
sS'[[Sugarcane]]'
p10
I0
sS'[[Cheese]]'
p11
I2
sS'[[Lure]]'
p12
I1
sS'[[Chili Pepper]]'
p13
I4
s.