(dp0
S'[[Pumpkin]]'
p1
I33
sS'[[Blackberry Jam]]'
p2
I83
sS'[[Violet Dress]]'
p3
I37
sS'[[Strawberry Ice Cream]]'
p4
I31
sS'[[Raspberry Muffin]]'
p5
I65
sS'[[Apple Pie]]'
p6
I90
sS'[[Tomato Juice]]'
p7
I56
sS'[[Blue Sweater]]'
p8
I55
sS'[[Honey]]'
p9
I57
sS'[[Vanilla Ice Cream]]'
p10
I32
sS'[[Lure]]'
p11
I89
sS'[[Carrot Pie]]'
p12
I27
sS'[[Tomato]]'
p13
I4
sS'[[Potato]]'
p14
I28
sS'[[Cheesecake]]'
p15
I87
sS'[[Fish Pie]]'
p16
I20
sS'[[Pancake]]'
p17
I77
sS'[[Popcorn]]'
p18
I25
sS'[[Goat Cheese]]'
p19
I8
sS'[[Potato Bread]]'
p20
I59
sS'[[Goat Feed]]'
p21
I47
sS'[[Red Berry Cake]]'
p22
I3
sS'[[Pizza]]'
p23
I63
sS'[[Syrup]]'
p24
I75
sS'[[Sheep Feed]]'
p25
I79
sS'[[Cherry Popsicle]]'
p26
I22
sS'[[Bacon and Eggs]]'
p27
I40
sS'[[Carrot Juice]]'
p28
I61
sS'[[Baked Potato]]'
p29
I2
sS'[[Milk]]'
p30
I0
sS'[[Apple Jam]]'
p31
I23
sS'[[Carrot]]'
p32
I7
sS'[[Blackberry]]'
p33
I41
sS'[[Cotton Shirt]]'
p34
I85
sS'[[Cream]]'
p35
I62
sS'[[Raspberry Jam]]'
p36
I38
sS'[[Cherry]]'
p37
I53
sS'[[Bread]]'
p38
I54
sS'[[Wheat]]'
p39
I11
sS'[[Casserole]]'
p40
I46
sS'[[Strawberry]]'
p41
I45
sS'[[Honey Popcorn]]'
p42
I43
sS'[[Honeycomb]]'
p43
I44
sS'[[Indigo]]'
p44
I17
sS'[[Raspberry]]'
p45
I68
sS'[[Chocolate Cake]]'
p46
I49
sS'[[Spicy Pizza]]'
p47
I15
sS'[[Cacao]]'
p48
I52
sS'[[Woolly Chaps]]'
p49
I71
sS'[[Carrot Cake]]'
p50
I21
sS'[[Egg]]'
p51
I14
sS'[[Strawberry Cake]]'
p52
I86
sS'[[Cherry Juice]]'
p53
I26
sS'[[Fish Burger]]'
p54
I76
sS'[[White Sugar]]'
p55
I19
sS'[[Buttered Popcorn]]'
p56
I58
sS'[[Cream Cake]]'
p57
I84
sS'[[Soybean]]'
p58
I66
sS'[[Apple]]'
p59
I51
sS'[[Blue Woolly Hat]]'
p60
I67
sS'[[Goat Milk]]'
p61
I36
sS'[[Hamburger]]'
p62
I10
sS'[[Cherry Jam]]'
p63
I30
sS"[[Shepherd's Pie]]"
p64
I1
sS'[[Brown Sugar]]'
p65
I50
sS'[[Butter]]'
p66
I69
sS'[[Bacon Pie]]'
p67
I60
sS'[[Chili Pepper]]'
p68
I34
sS'[[Corn]]'
p69
I80
sS'[[Fish Fillet]]'
p70
I35
sS'[[Chili Popcorn]]'
p71
I16
sS'[[Bacon]]'
p72
I6
sS'[[Cotton Fabric]]'
p73
I18
sS'[[Pumpkin Pie]]'
p74
I88
sS'[[Potato Feta Cake]]'
p75
I13
sS'[[Sugarcane]]'
p76
I74
sS'[[Cookie]]'
p77
I70
sS'[[Apple Juice]]'
p78
I48
sS'[[Pig Feed]]'
p79
I81
sS'[[Cotton]]'
p80
I29
sS'[[Feta Pie]]'
p81
I73
sS'[[Cheese]]'
p82
I64
sS'[[Chocolate Ice Cream]]'
p83
I9
sS'[[Chicken Feed]]'
p84
I12
sS'[[Corn Bread]]'
p85
I24
sS'[[Wool]]'
p86
I39
sS'[[Roasted Tomatoes]]'
p87
I5
sS'[[Berry Juice]]'
p88
I42
sS'[[Sweater]]'
p89
I72
sS'[[Blackberry Muffin]]'
p90
I78
sS'[[Cow Feed]]'
p91
I82
s.(dp0
S'[[Raspberry Muffin]]'
p1
I3
sS'[[Cherry Popsicle]]'
p2
I1
sS'[[Lure]]'
p3
I4
sS'[[Carrot Juice]]'
p4
I3
sS'[[Pancake]]'
p5
I0
sS'[[Vanilla Ice Cream]]'
p6
I5
sS'[[Sugarcane]]'
p7
I2
sS'[[Sweater]]'
p8
I4
sS'[[Pizza]]'
p9
I4
sS'[[Violet Dress]]'
p10
I1
sS'[[Fish Fillet]]'
p11
I4
s.