(dp0
S'[[Pumpkin]]'
p1
I75
sS'[[Blackberry Jam]]'
p2
I30
sS'[[Violet Dress]]'
p3
I73
sS'[[Strawberry Ice Cream]]'
p4
I9
sS'[[Raspberry Muffin]]'
p5
I88
sS'[[Apple Pie]]'
p6
I0
sS'[[Tomato Juice]]'
p7
I49
sS'[[Honey]]'
p8
I60
sS'[[Vanilla Ice Cream]]'
p9
I48
sS'[[Lure]]'
p10
I15
sS'[[Carrot Pie]]'
p11
I25
sS'[[Tomato]]'
p12
I2
sS'[[Potato]]'
p13
I12
sS'[[Cheesecake]]'
p14
I68
sS'[[Fish Pie]]'
p15
I40
sS'[[Pancake]]'
p16
I18
sS'[[Popcorn]]'
p17
I85
sS'[[Goat Cheese]]'
p18
I34
sS'[[Potato Bread]]'
p19
I7
sS'[[Goat Feed]]'
p20
I17
sS'[[Red Berry Cake]]'
p21
I44
sS'[[Pizza]]'
p22
I59
sS'[[Syrup]]'
p23
I3
sS'[[Sheep Feed]]'
p24
I69
sS'[[Cherry Popsicle]]'
p25
I31
sS'[[Bacon and Eggs]]'
p26
I39
sS'[[Carrot]]'
p27
I16
sS'[[Carrot Juice]]'
p28
I35
sS'[[Baked Potato]]'
p29
I83
sS'[[Milk]]'
p30
I45
sS'[[Apple Jam]]'
p31
I78
sS'[[Apple]]'
p32
I53
sS'[[Blackberry]]'
p33
I87
sS'[[Cotton Shirt]]'
p34
I42
sS'[[Cream]]'
p35
I26
sS'[[Raspberry Jam]]'
p36
I80
sS'[[Cherry]]'
p37
I21
sS'[[Bread]]'
p38
I62
sS'[[Wheat]]'
p39
I63
sS'[[Casserole]]'
p40
I51
sS'[[Chili Pepper]]'
p41
I43
sS'[[Potato Feta Cake]]'
p42
I20
sS'[[Honeycomb]]'
p43
I28
sS'[[Indigo]]'
p44
I82
sS'[[Raspberry]]'
p45
I71
sS'[[Chocolate Cake]]'
p46
I6
sS'[[Spicy Pizza]]'
p47
I29
sS'[[Cacao]]'
p48
I74
sS'[[Woolly Chaps]]'
p49
I38
sS'[[Carrot Cake]]'
p50
I4
sS'[[Egg]]'
p51
I52
sS'[[Strawberry Cake]]'
p52
I32
sS'[[Cherry Juice]]'
p53
I72
sS'[[Fish Burger]]'
p54
I41
sS'[[White Sugar]]'
p55
I36
sS'[[Buttered Popcorn]]'
p56
I76
sS'[[Cream Cake]]'
p57
I90
sS'[[Soybean]]'
p58
I61
sS'[[Brown Sugar]]'
p59
I58
sS'[[Blue Woolly Hat]]'
p60
I47
sS'[[Goat Milk]]'
p61
I50
sS'[[Hamburger]]'
p62
I37
sS'[[Cherry Jam]]'
p63
I79
sS"[[Shepherd's Pie]]"
p64
I70
sS'[[Butter]]'
p65
I14
sS'[[Bacon Pie]]'
p66
I55
sS'[[Strawberry]]'
p67
I19
sS'[[Pumpkin Pie]]'
p68
I5
sS'[[Corn]]'
p69
I24
sS'[[Fish Fillet]]'
p70
I8
sS'[[Chili Popcorn]]'
p71
I13
sS'[[Bacon]]'
p72
I11
sS'[[Cotton Fabric]]'
p73
I10
sS'[[Blue Sweater]]'
p74
I77
sS'[[Honey Popcorn]]'
p75
I22
sS'[[Sugarcane]]'
p76
I64
sS'[[Cookie]]'
p77
I33
sS'[[Apple Juice]]'
p78
I54
sS'[[Pig Feed]]'
p79
I84
sS'[[Cotton]]'
p80
I1
sS'[[Feta Pie]]'
p81
I56
sS'[[Cheese]]'
p82
I27
sS'[[Chocolate Ice Cream]]'
p83
I23
sS'[[Chicken Feed]]'
p84
I66
sS'[[Corn Bread]]'
p85
I89
sS'[[Wool]]'
p86
I46
sS'[[Roasted Tomatoes]]'
p87
I65
sS'[[Berry Juice]]'
p88
I86
sS'[[Sweater]]'
p89
I67
sS'[[Blackberry Muffin]]'
p90
I57
sS'[[Cow Feed]]'
p91
I81
s.(dp0
S'[[Pig Feed]]'
p1
I5
sS'[[Casserole]]'
p2
I3
sS'[[Cacao]]'
p3
I5
sS'[[Corn Bread]]'
p4
I5
sS'[[Pumpkin]]'
p5
I2
sS'[[Feta Pie]]'
p6
I0
sS'[[Cotton Shirt]]'
p7
I0
sS'[[White Sugar]]'
p8
I1
sS'[[Honeycomb]]'
p9
I2
sS'[[Bacon Pie]]'
p10
I3
sS'[[Bread]]'
p11
I5
s.