(dp0
S'[[Pumpkin]]'
p1
I25
sS'[[Blackberry Jam]]'
p2
I19
sS'[[Violet Dress]]'
p3
I14
sS'[[Strawberry Ice Cream]]'
p4
I58
sS'[[Raspberry Muffin]]'
p5
I84
sS'[[Apple Pie]]'
p6
I8
sS'[[Tomato Juice]]'
p7
I59
sS'[[Blue Sweater]]'
p8
I20
sS'[[Honey]]'
p9
I21
sS'[[Vanilla Ice Cream]]'
p10
I33
sS'[[Lure]]'
p11
I23
sS'[[Carrot Pie]]'
p12
I87
sS'[[Tomato]]'
p13
I7
sS'[[Potato]]'
p14
I18
sS'[[Cheesecake]]'
p15
I51
sS'[[Fish Pie]]'
p16
I73
sS'[[Pancake]]'
p17
I89
sS'[[Popcorn]]'
p18
I83
sS'[[Goat Cheese]]'
p19
I30
sS'[[Potato Bread]]'
p20
I78
sS'[[Goat Feed]]'
p21
I16
sS'[[Red Berry Cake]]'
p22
I62
sS'[[Pizza]]'
p23
I13
sS'[[Syrup]]'
p24
I88
sS'[[Sheep Feed]]'
p25
I50
sS'[[Cherry Popsicle]]'
p26
I45
sS'[[Bacon and Eggs]]'
p27
I76
sS'[[Carrot Juice]]'
p28
I27
sS'[[Baked Potato]]'
p29
I52
sS'[[Milk]]'
p30
I70
sS'[[Apple Jam]]'
p31
I5
sS'[[Carrot]]'
p32
I15
sS'[[Blackberry]]'
p33
I26
sS'[[Cotton Shirt]]'
p34
I60
sS'[[Cream]]'
p35
I48
sS'[[Raspberry Jam]]'
p36
I66
sS'[[Cherry]]'
p37
I43
sS'[[Bread]]'
p38
I69
sS'[[Wheat]]'
p39
I61
sS'[[Casserole]]'
p40
I71
sS'[[Strawberry]]'
p41
I64
sS'[[Honey Popcorn]]'
p42
I81
sS'[[Honeycomb]]'
p43
I90
sS'[[Indigo]]'
p44
I40
sS'[[Raspberry]]'
p45
I34
sS'[[Chocolate Cake]]'
p46
I77
sS'[[Spicy Pizza]]'
p47
I65
sS'[[Cacao]]'
p48
I85
sS'[[Woolly Chaps]]'
p49
I55
sS'[[Carrot Cake]]'
p50
I29
sS'[[Egg]]'
p51
I0
sS'[[Strawberry Cake]]'
p52
I11
sS'[[Cherry Juice]]'
p53
I12
sS'[[Fish Burger]]'
p54
I28
sS'[[White Sugar]]'
p55
I67
sS'[[Buttered Popcorn]]'
p56
I86
sS'[[Cream Cake]]'
p57
I39
sS'[[Soybean]]'
p58
I56
sS'[[Apple]]'
p59
I31
sS'[[Blue Woolly Hat]]'
p60
I38
sS'[[Goat Milk]]'
p61
I74
sS'[[Hamburger]]'
p62
I1
sS'[[Cherry Jam]]'
p63
I44
sS"[[Shepherd's Pie]]"
p64
I17
sS'[[Brown Sugar]]'
p65
I10
sS'[[Butter]]'
p66
I80
sS'[[Bacon Pie]]'
p67
I63
sS'[[Chili Pepper]]'
p68
I35
sS'[[Corn]]'
p69
I22
sS'[[Fish Fillet]]'
p70
I3
sS'[[Chili Popcorn]]'
p71
I54
sS'[[Bacon]]'
p72
I49
sS'[[Cotton Fabric]]'
p73
I46
sS'[[Pumpkin Pie]]'
p74
I72
sS'[[Potato Feta Cake]]'
p75
I47
sS'[[Sugarcane]]'
p76
I57
sS'[[Cookie]]'
p77
I79
sS'[[Apple Juice]]'
p78
I4
sS'[[Pig Feed]]'
p79
I41
sS'[[Cotton]]'
p80
I53
sS'[[Feta Pie]]'
p81
I36
sS'[[Cheese]]'
p82
I68
sS'[[Chocolate Ice Cream]]'
p83
I6
sS'[[Chicken Feed]]'
p84
I9
sS'[[Corn Bread]]'
p85
I37
sS'[[Wool]]'
p86
I75
sS'[[Roasted Tomatoes]]'
p87
I82
sS'[[Berry Juice]]'
p88
I24
sS'[[Sweater]]'
p89
I32
sS'[[Blackberry Muffin]]'
p90
I2
sS'[[Cow Feed]]'
p91
I42
s.(dp0
S'[[Pumpkin Pie]]'
p1
I1
sS'[[Blackberry Jam]]'
p2
I5
sS'[[Cherry Juice]]'
p3
I4
sS'[[Hamburger]]'
p4
I1
sS'[[Butter]]'
p5
I1
sS'[[Cherry Jam]]'
p6
I0
sS'[[Sugarcane]]'
p7
I1
sS'[[Cheese]]'
p8
I3
sS'[[Lure]]'
p9
I4
sS'[[Cow Feed]]'
p10
I3
sS'[[Milk]]'
p11
I5
s.