(dp0
S'[[Pumpkin]]'
p1
I73
sS'[[Blackberry Jam]]'
p2
I87
sS'[[Violet Dress]]'
p3
I70
sS'[[Strawberry Ice Cream]]'
p4
I7
sS'[[Raspberry Muffin]]'
p5
I29
sS'[[Apple Pie]]'
p6
I16
sS'[[Tomato Juice]]'
p7
I4
sS'[[Carrot Cake]]'
p8
I40
sS'[[Vanilla Ice Cream]]'
p9
I27
sS'[[Lure]]'
p10
I58
sS'[[Carrot Pie]]'
p11
I90
sS'[[Tomato]]'
p12
I10
sS'[[Cherry Juice]]'
p13
I78
sS'[[Cheesecake]]'
p14
I38
sS'[[Fish Pie]]'
p15
I33
sS'[[Pancake]]'
p16
I35
sS'[[Popcorn]]'
p17
I80
sS'[[Goat Cheese]]'
p18
I0
sS'[[Potato Bread]]'
p19
I74
sS'[[Goat Feed]]'
p20
I19
sS'[[Red Berry Cake]]'
p21
I76
sS'[[Pizza]]'
p22
I23
sS'[[Syrup]]'
p23
I49
sS'[[Sheep Feed]]'
p24
I28
sS'[[Cherry Popsicle]]'
p25
I71
sS'[[Bacon and Eggs]]'
p26
I50
sS'[[Carrot Juice]]'
p27
I34
sS'[[Baked Potato]]'
p28
I86
sS'[[Milk]]'
p29
I64
sS'[[Apple Jam]]'
p30
I20
sS'[[Carrot]]'
p31
I25
sS'[[Blackberry]]'
p32
I79
sS'[[Cotton Shirt]]'
p33
I89
sS'[[Cream]]'
p34
I5
sS'[[Raspberry Jam]]'
p35
I88
sS'[[Cherry]]'
p36
I13
sS'[[Bread]]'
p37
I41
sS'[[Wheat]]'
p38
I37
sS'[[Casserole]]'
p39
I46
sS'[[Chili Pepper]]'
p40
I77
sS'[[Potato Feta Cake]]'
p41
I72
sS'[[Honeycomb]]'
p42
I52
sS'[[Indigo]]'
p43
I85
sS'[[Raspberry]]'
p44
I18
sS'[[Chocolate Cake]]'
p45
I63
sS'[[Spicy Pizza]]'
p46
I21
sS'[[Cacao]]'
p47
I51
sS'[[Woolly Chaps]]'
p48
I22
sS'[[Honey]]'
p49
I8
sS'[[Egg]]'
p50
I1
sS'[[Strawberry Cake]]'
p51
I6
sS'[[Potato]]'
p52
I55
sS'[[Fish Burger]]'
p53
I47
sS'[[White Sugar]]'
p54
I60
sS'[[Buttered Popcorn]]'
p55
I83
sS'[[Cream Cake]]'
p56
I12
sS'[[Soybean]]'
p57
I65
sS'[[Apple]]'
p58
I43
sS'[[Blue Woolly Hat]]'
p59
I32
sS'[[Goat Milk]]'
p60
I14
sS'[[Hamburger]]'
p61
I26
sS'[[Cherry Jam]]'
p62
I75
sS"[[Shepherd's Pie]]"
p63
I42
sS'[[Brown Sugar]]'
p64
I54
sS'[[Butter]]'
p65
I67
sS'[[Bacon Pie]]'
p66
I15
sS'[[Strawberry]]'
p67
I48
sS'[[Pumpkin Pie]]'
p68
I53
sS'[[Corn]]'
p69
I31
sS'[[Fish Fillet]]'
p70
I82
sS'[[Chili Popcorn]]'
p71
I3
sS'[[Bacon]]'
p72
I39
sS'[[Cotton Fabric]]'
p73
I68
sS'[[Blue Sweater]]'
p74
I69
sS'[[Honey Popcorn]]'
p75
I24
sS'[[Sugarcane]]'
p76
I81
sS'[[Cookie]]'
p77
I17
sS'[[Apple Juice]]'
p78
I61
sS'[[Pig Feed]]'
p79
I84
sS'[[Cotton]]'
p80
I44
sS'[[Feta Pie]]'
p81
I59
sS'[[Cheese]]'
p82
I2
sS'[[Chocolate Ice Cream]]'
p83
I11
sS'[[Chicken Feed]]'
p84
I66
sS'[[Corn Bread]]'
p85
I9
sS'[[Wool]]'
p86
I56
sS'[[Roasted Tomatoes]]'
p87
I62
sS'[[Berry Juice]]'
p88
I36
sS'[[Sweater]]'
p89
I45
sS'[[Blackberry Muffin]]'
p90
I57
sS'[[Cow Feed]]'
p91
I30
s.(dp0
S'[[Brown Sugar]]'
p1
I0
sS'[[Casserole]]'
p2
I2
sS'[[Woolly Chaps]]'
p3
I4
sS'[[Apple Pie]]'
p4
I4
sS'[[Egg]]'
p5
I2
sS'[[Corn]]'
p6
I1
sS'[[Butter]]'
p7
I0
sS'[[Wool]]'
p8
I0
sS'[[Apple]]'
p9
I1
s.