(dp0
S'[[Pumpkin]]'
p1
I24
sS'[[Blackberry Jam]]'
p2
I39
sS'[[Violet Dress]]'
p3
I80
sS'[[Strawberry Ice Cream]]'
p4
I56
sS'[[Raspberry Muffin]]'
p5
I83
sS'[[Apple Pie]]'
p6
I7
sS'[[Tomato Juice]]'
p7
I8
sS'[[Honey]]'
p8
I20
sS'[[Vanilla Ice Cream]]'
p9
I66
sS'[[Lure]]'
p10
I57
sS'[[Carrot Pie]]'
p11
I87
sS'[[Tomato]]'
p12
I6
sS'[[Potato]]'
p13
I23
sS'[[Cheesecake]]'
p14
I89
sS'[[Fish Pie]]'
p15
I33
sS'[[Pancake]]'
p16
I0
sS'[[Popcorn]]'
p17
I17
sS'[[Goat Cheese]]'
p18
I68
sS'[[Potato Bread]]'
p19
I35
sS'[[Goat Feed]]'
p20
I30
sS'[[Red Berry Cake]]'
p21
I2
sS'[[Pizza]]'
p22
I42
sS'[[Syrup]]'
p23
I44
sS'[[Sheep Feed]]'
p24
I74
sS'[[Cherry Popsicle]]'
p25
I73
sS'[[Bacon and Eggs]]'
p26
I60
sS'[[Carrot]]'
p27
I55
sS'[[Carrot Juice]]'
p28
I75
sS'[[Baked Potato]]'
p29
I84
sS'[[Milk]]'
p30
I67
sS'[[Apple Jam]]'
p31
I41
sS'[[Apple]]'
p32
I78
sS'[[Blackberry]]'
p33
I90
sS'[[Cotton Shirt]]'
p34
I77
sS'[[Cream]]'
p35
I34
sS'[[Raspberry Jam]]'
p36
I61
sS'[[Cherry]]'
p37
I81
sS'[[Bread]]'
p38
I54
sS'[[Wheat]]'
p39
I82
sS'[[Casserole]]'
p40
I58
sS'[[Chili Pepper]]'
p41
I28
sS'[[Potato Feta Cake]]'
p42
I64
sS'[[Honeycomb]]'
p43
I65
sS'[[Indigo]]'
p44
I69
sS'[[Raspberry]]'
p45
I12
sS'[[Chocolate Cake]]'
p46
I32
sS'[[Spicy Pizza]]'
p47
I53
sS'[[Cacao]]'
p48
I1
sS'[[Woolly Chaps]]'
p49
I88
sS'[[Carrot Cake]]'
p50
I51
sS'[[Egg]]'
p51
I27
sS'[[Strawberry Cake]]'
p52
I36
sS'[[Cherry Juice]]'
p53
I72
sS'[[Fish Burger]]'
p54
I4
sS'[[White Sugar]]'
p55
I14
sS'[[Buttered Popcorn]]'
p56
I31
sS'[[Cream Cake]]'
p57
I22
sS'[[Soybean]]'
p58
I62
sS'[[Brown Sugar]]'
p59
I18
sS'[[Blue Woolly Hat]]'
p60
I5
sS'[[Goat Milk]]'
p61
I50
sS'[[Hamburger]]'
p62
I3
sS'[[Cherry Jam]]'
p63
I40
sS"[[Shepherd's Pie]]"
p64
I9
sS'[[Butter]]'
p65
I71
sS'[[Bacon Pie]]'
p66
I63
sS'[[Strawberry]]'
p67
I52
sS'[[Pumpkin Pie]]'
p68
I59
sS'[[Corn]]'
p69
I46
sS'[[Fish Fillet]]'
p70
I26
sS'[[Chili Popcorn]]'
p71
I70
sS'[[Bacon]]'
p72
I19
sS'[[Cotton Fabric]]'
p73
I21
sS'[[Blue Sweater]]'
p74
I76
sS'[[Honey Popcorn]]'
p75
I85
sS'[[Sugarcane]]'
p76
I86
sS'[[Cookie]]'
p77
I15
sS'[[Apple Juice]]'
p78
I25
sS'[[Pig Feed]]'
p79
I16
sS'[[Cotton]]'
p80
I29
sS'[[Feta Pie]]'
p81
I43
sS'[[Cheese]]'
p82
I13
sS'[[Chocolate Ice Cream]]'
p83
I11
sS'[[Chicken Feed]]'
p84
I49
sS'[[Corn Bread]]'
p85
I38
sS'[[Wool]]'
p86
I48
sS'[[Roasted Tomatoes]]'
p87
I45
sS'[[Berry Juice]]'
p88
I10
sS'[[Sweater]]'
p89
I79
sS'[[Blackberry Muffin]]'
p90
I47
sS'[[Cow Feed]]'
p91
I37
s.(dp0
S'[[Pig Feed]]'
p1
I5
sS'[[Pumpkin Pie]]'
p2
I4
sS'[[Chili Pepper]]'
p3
I1
sS'[[Blue Sweater]]'
p4
I1
sS'[[Honey]]'
p5
I0
sS'[[Red Berry Cake]]'
p6
I2
sS'[[Corn Bread]]'
p7
I4
sS'[[Pumpkin]]'
p8
I4
sS'[[Lure]]'
p9
I1
sS'[[Raspberry Jam]]'
p10
I3
sS'[[Cow Feed]]'
p11
I3
sS'[[Violet Dress]]'
p12
I3
sS'[[Fish Fillet]]'
p13
I2
s.