(dp0
S'[[Pumpkin]]'
p1
I32
sS'[[Blackberry Jam]]'
p2
I82
sS'[[Violet Dress]]'
p3
I24
sS'[[Strawberry Ice Cream]]'
p4
I42
sS'[[Raspberry Muffin]]'
p5
I35
sS'[[Apple Pie]]'
p6
I76
sS'[[Tomato Juice]]'
p7
I41
sS'[[Blue Sweater]]'
p8
I8
sS'[[Honey]]'
p9
I61
sS'[[Vanilla Ice Cream]]'
p10
I51
sS'[[Lure]]'
p11
I77
sS'[[Carrot Pie]]'
p12
I6
sS'[[Tomato]]'
p13
I59
sS'[[Potato]]'
p14
I75
sS'[[Cheesecake]]'
p15
I10
sS'[[Fish Pie]]'
p16
I66
sS'[[Pancake]]'
p17
I53
sS'[[Popcorn]]'
p18
I0
sS'[[Goat Cheese]]'
p19
I45
sS'[[Potato Bread]]'
p20
I39
sS'[[Goat Feed]]'
p21
I25
sS'[[Red Berry Cake]]'
p22
I46
sS'[[Pizza]]'
p23
I28
sS'[[Syrup]]'
p24
I19
sS'[[Sheep Feed]]'
p25
I20
sS'[[Cherry Popsicle]]'
p26
I56
sS'[[Bacon and Eggs]]'
p27
I9
sS'[[Carrot]]'
p28
I58
sS'[[Carrot Juice]]'
p29
I81
sS'[[Baked Potato]]'
p30
I30
sS'[[Milk]]'
p31
I36
sS'[[Apple Jam]]'
p32
I27
sS'[[Apple]]'
p33
I78
sS'[[Blackberry]]'
p34
I23
sS'[[Cotton Shirt]]'
p35
I79
sS'[[Cream]]'
p36
I33
sS'[[Raspberry Jam]]'
p37
I48
sS'[[Cherry]]'
p38
I71
sS'[[Bread]]'
p39
I52
sS'[[Wheat]]'
p40
I54
sS'[[Casserole]]'
p41
I11
sS'[[Strawberry]]'
p42
I49
sS'[[Potato Feta Cake]]'
p43
I37
sS'[[Honeycomb]]'
p44
I26
sS'[[Indigo]]'
p45
I17
sS'[[Raspberry]]'
p46
I18
sS'[[Chocolate Cake]]'
p47
I50
sS'[[Spicy Pizza]]'
p48
I83
sS'[[Cacao]]'
p49
I22
sS'[[Woolly Chaps]]'
p50
I5
sS'[[Carrot Cake]]'
p51
I63
sS'[[Egg]]'
p52
I3
sS'[[Strawberry Cake]]'
p53
I55
sS'[[Cherry Juice]]'
p54
I86
sS'[[Fish Burger]]'
p55
I69
sS'[[White Sugar]]'
p56
I34
sS'[[Buttered Popcorn]]'
p57
I43
sS'[[Cream Cake]]'
p58
I85
sS'[[Soybean]]'
p59
I1
sS'[[Brown Sugar]]'
p60
I21
sS'[[Blue Woolly Hat]]'
p61
I15
sS'[[Goat Milk]]'
p62
I73
sS'[[Hamburger]]'
p63
I12
sS'[[Cherry Jam]]'
p64
I40
sS"[[Shepherd's Pie]]"
p65
I57
sS'[[Butter]]'
p66
I87
sS'[[Bacon Pie]]'
p67
I84
sS'[[Chili Pepper]]'
p68
I4
sS'[[Corn]]'
p69
I62
sS'[[Fish Fillet]]'
p70
I16
sS'[[Chili Popcorn]]'
p71
I2
sS'[[Bacon]]'
p72
I67
sS'[[Cotton Fabric]]'
p73
I80
sS'[[Pumpkin Pie]]'
p74
I60
sS'[[Honey Popcorn]]'
p75
I13
sS'[[Sugarcane]]'
p76
I14
sS'[[Cookie]]'
p77
I44
sS'[[Apple Juice]]'
p78
I70
sS'[[Pig Feed]]'
p79
I38
sS'[[Cotton]]'
p80
I65
sS'[[Feta Pie]]'
p81
I72
sS'[[Cheese]]'
p82
I90
sS'[[Chocolate Ice Cream]]'
p83
I64
sS'[[Chicken Feed]]'
p84
I7
sS'[[Corn Bread]]'
p85
I31
sS'[[Wool]]'
p86
I89
sS'[[Roasted Tomatoes]]'
p87
I29
sS'[[Berry Juice]]'
p88
I47
sS'[[Sweater]]'
p89
I68
sS'[[Blackberry Muffin]]'
p90
I88
sS'[[Cow Feed]]'
p91
I74
s.(dp0
S'[[Wheat]]'
p1
I3
sS'[[Casserole]]'
p2
I0
sS'[[Cow Feed]]'
p3
I2
sS'[[Popcorn]]'
p4
I2
sS'[[Cacao]]'
p5
I0
sS'[[Sugarcane]]'
p6
I2
sS'[[Corn Bread]]'
p7
I3
sS'[[Potato Feta Cake]]'
p8
I0
sS'[[Bacon]]'
p9
I2
sS'[[Cream Cake]]'
p10
I0
sS'[[Cherry]]'
p11
I0
sS"[[Shepherd's Pie]]"
p12
I3
sS'[[Syrup]]'
p13
I3
sS'[[Pizza]]'
p14
I4
s.