(dp0
S'[[Pumpkin]]'
p1
I59
sS'[[Blackberry Jam]]'
p2
I67
sS'[[Violet Dress]]'
p3
I55
sS'[[Strawberry Ice Cream]]'
p4
I28
sS'[[Raspberry Muffin]]'
p5
I43
sS'[[Apple Pie]]'
p6
I74
sS'[[Tomato Juice]]'
p7
I45
sS'[[Carrot Cake]]'
p8
I3
sS'[[Vanilla Ice Cream]]'
p9
I38
sS'[[Lure]]'
p10
I24
sS'[[Carrot Pie]]'
p11
I53
sS'[[Tomato]]'
p12
I86
sS'[[Cherry Juice]]'
p13
I21
sS'[[Cheesecake]]'
p14
I15
sS'[[Fish Pie]]'
p15
I35
sS'[[Pancake]]'
p16
I54
sS'[[Popcorn]]'
p17
I62
sS'[[Goat Cheese]]'
p18
I78
sS'[[Potato Bread]]'
p19
I42
sS'[[Goat Feed]]'
p20
I7
sS'[[Red Berry Cake]]'
p21
I71
sS'[[Pizza]]'
p22
I17
sS'[[Syrup]]'
p23
I26
sS'[[Sheep Feed]]'
p24
I87
sS'[[Cherry Popsicle]]'
p25
I13
sS'[[Bacon and Eggs]]'
p26
I73
sS'[[Carrot]]'
p27
I47
sS'[[Carrot Juice]]'
p28
I83
sS'[[Baked Potato]]'
p29
I22
sS'[[Milk]]'
p30
I32
sS'[[Apple Jam]]'
p31
I8
sS'[[Apple]]'
p32
I85
sS'[[Blackberry]]'
p33
I64
sS'[[Cotton Shirt]]'
p34
I66
sS'[[Cream]]'
p35
I65
sS'[[Raspberry Jam]]'
p36
I1
sS'[[Cherry]]'
p37
I33
sS'[[Bread]]'
p38
I14
sS'[[Wheat]]'
p39
I36
sS'[[Casserole]]'
p40
I23
sS'[[Chili Pepper]]'
p41
I12
sS'[[Honey Popcorn]]'
p42
I51
sS'[[Honeycomb]]'
p43
I63
sS'[[Indigo]]'
p44
I30
sS'[[Raspberry]]'
p45
I75
sS'[[Chocolate Cake]]'
p46
I34
sS'[[Spicy Pizza]]'
p47
I58
sS'[[Cacao]]'
p48
I61
sS'[[Woolly Chaps]]'
p49
I84
sS'[[Honey]]'
p50
I6
sS'[[Egg]]'
p51
I44
sS'[[Strawberry Cake]]'
p52
I4
sS'[[Potato]]'
p53
I80
sS'[[Fish Burger]]'
p54
I81
sS'[[White Sugar]]'
p55
I25
sS'[[Buttered Popcorn]]'
p56
I57
sS'[[Cream Cake]]'
p57
I68
sS'[[Soybean]]'
p58
I40
sS'[[Brown Sugar]]'
p59
I79
sS'[[Blue Woolly Hat]]'
p60
I76
sS'[[Goat Milk]]'
p61
I48
sS'[[Hamburger]]'
p62
I60
sS'[[Cherry Jam]]'
p63
I2
sS"[[Shepherd's Pie]]"
p64
I77
sS'[[Butter]]'
p65
I52
sS'[[Bacon Pie]]'
p66
I50
sS'[[Strawberry]]'
p67
I70
sS'[[Pumpkin Pie]]'
p68
I20
sS'[[Corn]]'
p69
I29
sS'[[Fish Fillet]]'
p70
I5
sS'[[Chili Popcorn]]'
p71
I31
sS'[[Bacon]]'
p72
I9
sS'[[Cotton Fabric]]'
p73
I41
sS'[[Blue Sweater]]'
p74
I39
sS'[[Potato Feta Cake]]'
p75
I46
sS'[[Sugarcane]]'
p76
I56
sS'[[Cookie]]'
p77
I27
sS'[[Apple Juice]]'
p78
I49
sS'[[Pig Feed]]'
p79
I19
sS'[[Cotton]]'
p80
I88
sS'[[Feta Pie]]'
p81
I10
sS'[[Cheese]]'
p82
I89
sS'[[Chocolate Ice Cream]]'
p83
I11
sS'[[Chicken Feed]]'
p84
I0
sS'[[Corn Bread]]'
p85
I16
sS'[[Wool]]'
p86
I82
sS'[[Roasted Tomatoes]]'
p87
I90
sS'[[Berry Juice]]'
p88
I37
sS'[[Sweater]]'
p89
I18
sS'[[Blackberry Muffin]]'
p90
I69
sS'[[Cow Feed]]'
p91
I72
s.(dp0
S'[[Chili Pepper]]'
p1
I5
sS'[[Carrot]]'
p2
I3
sS'[[Pumpkin]]'
p3
I4
sS'[[Feta Pie]]'
p4
I3
sS'[[Chili Popcorn]]'
p5
I0
sS'[[Baked Potato]]'
p6
I1
sS'[[Raspberry]]'
p7
I0
sS'[[Milk]]'
p8
I5
sS'[[Raspberry Jam]]'
p9
I2
sS'[[Chocolate Cake]]'
p10
I0
sS'[[Cherry]]'
p11
I0
s.