(dp0
S'[[Pumpkin]]'
p1
I13
sS'[[Blackberry Jam]]'
p2
I11
sS'[[Violet Dress]]'
p3
I70
sS'[[Strawberry Ice Cream]]'
p4
I16
sS'[[Raspberry Muffin]]'
p5
I76
sS'[[Apple Pie]]'
p6
I2
sS'[[Tomato Juice]]'
p7
I36
sS'[[Honey]]'
p8
I19
sS'[[Vanilla Ice Cream]]'
p9
I35
sS'[[Lure]]'
p10
I43
sS'[[Carrot Pie]]'
p11
I59
sS'[[Tomato]]'
p12
I6
sS'[[Potato]]'
p13
I69
sS'[[Cheesecake]]'
p14
I42
sS'[[Fish Pie]]'
p15
I66
sS'[[Pancake]]'
p16
I22
sS'[[Popcorn]]'
p17
I60
sS'[[Goat Cheese]]'
p18
I1
sS'[[Potato Bread]]'
p19
I57
sS'[[Goat Feed]]'
p20
I88
sS'[[Red Berry Cake]]'
p21
I53
sS'[[Pizza]]'
p22
I10
sS'[[Syrup]]'
p23
I73
sS'[[Sheep Feed]]'
p24
I3
sS'[[Cherry Popsicle]]'
p25
I15
sS'[[Bacon and Eggs]]'
p26
I7
sS'[[Carrot]]'
p27
I78
sS'[[Carrot Juice]]'
p28
I4
sS'[[Baked Potato]]'
p29
I20
sS'[[Milk]]'
p30
I58
sS'[[Apple Jam]]'
p31
I54
sS'[[Brown Sugar]]'
p32
I61
sS'[[Blackberry]]'
p33
I38
sS'[[Cotton Shirt]]'
p34
I55
sS'[[Cream]]'
p35
I49
sS'[[Raspberry Jam]]'
p36
I5
sS'[[Cherry]]'
p37
I12
sS'[[Bread]]'
p38
I31
sS'[[Wheat]]'
p39
I90
sS'[[Casserole]]'
p40
I40
sS'[[Chili Pepper]]'
p41
I81
sS'[[Potato Feta Cake]]'
p42
I14
sS'[[Honeycomb]]'
p43
I17
sS'[[Indigo]]'
p44
I46
sS'[[Raspberry]]'
p45
I63
sS'[[Chocolate Cake]]'
p46
I87
sS'[[Spicy Pizza]]'
p47
I68
sS'[[Cacao]]'
p48
I75
sS'[[Woolly Chaps]]'
p49
I32
sS'[[Carrot Cake]]'
p50
I83
sS'[[Egg]]'
p51
I62
sS'[[Strawberry Cake]]'
p52
I34
sS'[[Cherry Juice]]'
p53
I51
sS'[[Fish Burger]]'
p54
I86
sS'[[White Sugar]]'
p55
I64
sS'[[Buttered Popcorn]]'
p56
I50
sS'[[Cream Cake]]'
p57
I39
sS'[[Soybean]]'
p58
I84
sS'[[Apple]]'
p59
I47
sS'[[Blue Woolly Hat]]'
p60
I71
sS'[[Goat Milk]]'
p61
I21
sS'[[Hamburger]]'
p62
I9
sS'[[Cherry Jam]]'
p63
I80
sS"[[Shepherd's Pie]]"
p64
I0
sS'[[Butter]]'
p65
I77
sS'[[Bacon Pie]]'
p66
I72
sS'[[Strawberry]]'
p67
I89
sS'[[Pumpkin Pie]]'
p68
I67
sS'[[Corn]]'
p69
I82
sS'[[Fish Fillet]]'
p70
I74
sS'[[Chili Popcorn]]'
p71
I52
sS'[[Bacon]]'
p72
I79
sS'[[Cotton Fabric]]'
p73
I23
sS'[[Blue Sweater]]'
p74
I41
sS'[[Honey Popcorn]]'
p75
I18
sS'[[Sugarcane]]'
p76
I29
sS'[[Cookie]]'
p77
I45
sS'[[Apple Juice]]'
p78
I85
sS'[[Pig Feed]]'
p79
I27
sS'[[Cotton]]'
p80
I28
sS'[[Feta Pie]]'
p81
I48
sS'[[Cheese]]'
p82
I30
sS'[[Chocolate Ice Cream]]'
p83
I26
sS'[[Chicken Feed]]'
p84
I24
sS'[[Corn Bread]]'
p85
I33
sS'[[Wool]]'
p86
I25
sS'[[Roasted Tomatoes]]'
p87
I65
sS'[[Berry Juice]]'
p88
I56
sS'[[Sweater]]'
p89
I8
sS'[[Blackberry Muffin]]'
p90
I37
sS'[[Cow Feed]]'
p91
I44
s.(dp0
S'[[Apple]]'
p1
I5
sS'[[Corn]]'
p2
I0
sS'[[Popcorn]]'
p3
I1
sS'[[Sweater]]'
p4
I2
sS'[[Roasted Tomatoes]]'
p5
I1
sS'[[Honey]]'
p6
I2
sS'[[Strawberry Cake]]'
p7
I2
sS'[[Cotton]]'
p8
I3
sS'[[Spicy Pizza]]'
p9
I0
sS'[[Indigo]]'
p10
I0
sS'[[Buttered Popcorn]]'
p11
I2
s.