(dp0
S'[[Pumpkin]]'
p1
I40
sS'[[Blackberry Jam]]'
p2
I46
sS'[[Violet Dress]]'
p3
I20
sS'[[Strawberry Ice Cream]]'
p4
I67
sS'[[Raspberry Muffin]]'
p5
I38
sS'[[Apple Pie]]'
p6
I87
sS'[[Tomato Juice]]'
p7
I33
sS'[[Carrot Cake]]'
p8
I78
sS'[[Vanilla Ice Cream]]'
p9
I53
sS'[[Lure]]'
p10
I57
sS'[[Carrot Pie]]'
p11
I71
sS'[[Tomato]]'
p12
I3
sS'[[Cherry Juice]]'
p13
I31
sS'[[Cheesecake]]'
p14
I6
sS'[[Fish Pie]]'
p15
I51
sS'[[Pancake]]'
p16
I24
sS'[[Popcorn]]'
p17
I17
sS'[[Goat Cheese]]'
p18
I69
sS'[[Potato Bread]]'
p19
I59
sS'[[Goat Feed]]'
p20
I42
sS'[[Red Berry Cake]]'
p21
I22
sS'[[Pizza]]'
p22
I48
sS'[[Syrup]]'
p23
I68
sS'[[Sheep Feed]]'
p24
I8
sS'[[Cherry Popsicle]]'
p25
I63
sS'[[Bacon and Eggs]]'
p26
I66
sS'[[Carrot Juice]]'
p27
I58
sS'[[Baked Potato]]'
p28
I74
sS'[[Milk]]'
p29
I85
sS'[[Apple Jam]]'
p30
I83
sS'[[Carrot]]'
p31
I15
sS'[[Blackberry]]'
p32
I44
sS'[[Cotton Shirt]]'
p33
I49
sS'[[Cream]]'
p34
I75
sS'[[Raspberry Jam]]'
p35
I81
sS'[[Cherry]]'
p36
I47
sS'[[Bread]]'
p37
I19
sS'[[Wheat]]'
p38
I90
sS'[[Casserole]]'
p39
I54
sS'[[Chili Pepper]]'
p40
I65
sS'[[Potato Feta Cake]]'
p41
I73
sS'[[Honeycomb]]'
p42
I9
sS'[[Indigo]]'
p43
I37
sS'[[Raspberry]]'
p44
I45
sS'[[Chocolate Cake]]'
p45
I64
sS'[[Spicy Pizza]]'
p46
I25
sS'[[Cacao]]'
p47
I32
sS'[[Woolly Chaps]]'
p48
I34
sS'[[Honey]]'
p49
I84
sS'[[Egg]]'
p50
I18
sS'[[Strawberry Cake]]'
p51
I30
sS'[[Potato]]'
p52
I70
sS'[[Fish Burger]]'
p53
I1
sS'[[White Sugar]]'
p54
I61
sS'[[Buttered Popcorn]]'
p55
I60
sS'[[Cream Cake]]'
p56
I86
sS'[[Soybean]]'
p57
I16
sS'[[Apple]]'
p58
I79
sS'[[Blue Woolly Hat]]'
p59
I35
sS'[[Goat Milk]]'
p60
I36
sS'[[Hamburger]]'
p61
I13
sS'[[Cherry Jam]]'
p62
I26
sS"[[Shepherd's Pie]]"
p63
I72
sS'[[Brown Sugar]]'
p64
I52
sS'[[Butter]]'
p65
I4
sS'[[Bacon Pie]]'
p66
I77
sS'[[Strawberry]]'
p67
I55
sS'[[Pumpkin Pie]]'
p68
I12
sS'[[Corn]]'
p69
I21
sS'[[Fish Fillet]]'
p70
I11
sS'[[Chili Popcorn]]'
p71
I14
sS'[[Bacon]]'
p72
I43
sS'[[Cotton Fabric]]'
p73
I0
sS'[[Blue Sweater]]'
p74
I88
sS'[[Honey Popcorn]]'
p75
I50
sS'[[Sugarcane]]'
p76
I56
sS'[[Cookie]]'
p77
I2
sS'[[Apple Juice]]'
p78
I89
sS'[[Pig Feed]]'
p79
I28
sS'[[Cotton]]'
p80
I41
sS'[[Feta Pie]]'
p81
I10
sS'[[Cheese]]'
p82
I39
sS'[[Chocolate Ice Cream]]'
p83
I62
sS'[[Chicken Feed]]'
p84
I23
sS'[[Corn Bread]]'
p85
I27
sS'[[Wool]]'
p86
I7
sS'[[Roasted Tomatoes]]'
p87
I76
sS'[[Berry Juice]]'
p88
I82
sS'[[Sweater]]'
p89
I80
sS'[[Blackberry Muffin]]'
p90
I29
sS'[[Cow Feed]]'
p91
I5
s.(dp0
S'[[Tomato]]'
p1
I3
sS'[[Casserole]]'
p2
I0
sS'[[Cheesecake]]'
p3
I1
sS'[[Carrot]]'
p4
I0
sS'[[Bacon and Eggs]]'
p5
I1
sS'[[Honeycomb]]'
p6
I1
sS'[[Cherry Jam]]'
p7
I0
sS'[[Strawberry Cake]]'
p8
I2
sS'[[Raspberry Muffin]]'
p9
I4
s.