(dp0
S'[[Pumpkin]]'
p1
I8
sS'[[Blackberry Jam]]'
p2
I27
sS'[[Violet Dress]]'
p3
I18
sS'[[Strawberry Ice Cream]]'
p4
I39
sS'[[Raspberry Muffin]]'
p5
I88
sS'[[Apple Pie]]'
p6
I72
sS'[[Tomato Juice]]'
p7
I78
sS'[[Blue Sweater]]'
p8
I41
sS'[[Carrot Cake]]'
p9
I26
sS'[[Vanilla Ice Cream]]'
p10
I38
sS'[[Lure]]'
p11
I21
sS'[[Carrot Pie]]'
p12
I87
sS'[[Tomato]]'
p13
I81
sS'[[Cherry Juice]]'
p14
I56
sS'[[Cheesecake]]'
p15
I33
sS'[[Fish Pie]]'
p16
I30
sS'[[Pancake]]'
p17
I31
sS'[[Popcorn]]'
p18
I37
sS'[[Goat Cheese]]'
p19
I34
sS'[[Potato Bread]]'
p20
I52
sS'[[Goat Feed]]'
p21
I89
sS'[[Red Berry Cake]]'
p22
I73
sS'[[Pizza]]'
p23
I44
sS'[[Syrup]]'
p24
I83
sS'[[Sheep Feed]]'
p25
I57
sS'[[Cherry Popsicle]]'
p26
I1
sS'[[Bacon and Eggs]]'
p27
I15
sS'[[Carrot Juice]]'
p28
I59
sS'[[Baked Potato]]'
p29
I48
sS'[[Milk]]'
p30
I28
sS'[[Apple Jam]]'
p31
I9
sS'[[Carrot]]'
p32
I85
sS'[[Blackberry]]'
p33
I17
sS'[[Cotton Shirt]]'
p34
I79
sS'[[Cream]]'
p35
I76
sS'[[Raspberry Jam]]'
p36
I6
sS'[[Cherry]]'
p37
I66
sS'[[Bread]]'
p38
I32
sS'[[Wheat]]'
p39
I70
sS'[[Casserole]]'
p40
I49
sS'[[Strawberry]]'
p41
I24
sS'[[Potato Feta Cake]]'
p42
I55
sS'[[Honeycomb]]'
p43
I69
sS'[[Indigo]]'
p44
I60
sS'[[Raspberry]]'
p45
I3
sS'[[Chocolate Cake]]'
p46
I84
sS'[[Spicy Pizza]]'
p47
I67
sS'[[Cacao]]'
p48
I25
sS'[[Woolly Chaps]]'
p49
I12
sS'[[Honey]]'
p50
I74
sS'[[Egg]]'
p51
I58
sS'[[Strawberry Cake]]'
p52
I50
sS'[[Potato]]'
p53
I90
sS'[[Fish Burger]]'
p54
I46
sS'[[White Sugar]]'
p55
I5
sS'[[Buttered Popcorn]]'
p56
I43
sS'[[Cream Cake]]'
p57
I10
sS'[[Soybean]]'
p58
I86
sS'[[Apple]]'
p59
I47
sS'[[Blue Woolly Hat]]'
p60
I71
sS'[[Goat Milk]]'
p61
I65
sS'[[Hamburger]]'
p62
I42
sS'[[Cherry Jam]]'
p63
I22
sS"[[Shepherd's Pie]]"
p64
I20
sS'[[Brown Sugar]]'
p65
I11
sS'[[Butter]]'
p66
I14
sS'[[Bacon Pie]]'
p67
I0
sS'[[Chili Pepper]]'
p68
I82
sS'[[Corn]]'
p69
I54
sS'[[Fish Fillet]]'
p70
I13
sS'[[Chili Popcorn]]'
p71
I35
sS'[[Bacon]]'
p72
I45
sS'[[Cotton Fabric]]'
p73
I29
sS'[[Pumpkin Pie]]'
p74
I23
sS'[[Honey Popcorn]]'
p75
I7
sS'[[Sugarcane]]'
p76
I40
sS'[[Cookie]]'
p77
I80
sS'[[Apple Juice]]'
p78
I36
sS'[[Pig Feed]]'
p79
I68
sS'[[Cotton]]'
p80
I16
sS'[[Feta Pie]]'
p81
I4
sS'[[Cheese]]'
p82
I19
sS'[[Chocolate Ice Cream]]'
p83
I2
sS'[[Chicken Feed]]'
p84
I75
sS'[[Corn Bread]]'
p85
I62
sS'[[Wool]]'
p86
I53
sS'[[Roasted Tomatoes]]'
p87
I63
sS'[[Berry Juice]]'
p88
I61
sS'[[Sweater]]'
p89
I64
sS'[[Blackberry Muffin]]'
p90
I51
sS'[[Cow Feed]]'
p91
I77
s.(dp0
S'[[Popcorn]]'
p1
I3
sS'[[Fish Fillet]]'
p2
I3
sS'[[Honey]]'
p3
I0
sS'[[Strawberry Cake]]'
p4
I4
sS'[[Apple Pie]]'
p5
I5
sS'[[Spicy Pizza]]'
p6
I2
sS'[[Raspberry]]'
p7
I2
sS'[[Milk]]'
p8
I5
sS'[[Raspberry Jam]]'
p9
I1
sS'[[Apple Juice]]'
p10
I2
sS'[[Goat Feed]]'
p11
I2
s.