(dp0
S'[[Pumpkin]]'
p1
I57
sS'[[Blackberry Jam]]'
p2
I44
sS'[[Violet Dress]]'
p3
I50
sS'[[Strawberry Ice Cream]]'
p4
I46
sS'[[Raspberry Muffin]]'
p5
I36
sS'[[Apple Pie]]'
p6
I68
sS'[[Tomato Juice]]'
p7
I71
sS'[[Blue Sweater]]'
p8
I18
sS'[[Carrot Cake]]'
p9
I76
sS'[[Vanilla Ice Cream]]'
p10
I86
sS'[[Lure]]'
p11
I12
sS'[[Carrot Pie]]'
p12
I0
sS'[[Tomato]]'
p13
I35
sS'[[Cherry Juice]]'
p14
I77
sS'[[Cheesecake]]'
p15
I56
sS'[[Fish Pie]]'
p16
I60
sS'[[Pancake]]'
p17
I88
sS'[[Popcorn]]'
p18
I84
sS'[[Goat Cheese]]'
p19
I9
sS'[[Potato Bread]]'
p20
I24
sS'[[Goat Feed]]'
p21
I5
sS'[[Red Berry Cake]]'
p22
I83
sS'[[Pizza]]'
p23
I65
sS'[[Syrup]]'
p24
I61
sS'[[Sheep Feed]]'
p25
I48
sS'[[Cherry Popsicle]]'
p26
I58
sS'[[Bacon and Eggs]]'
p27
I70
sS'[[Carrot Juice]]'
p28
I55
sS'[[Baked Potato]]'
p29
I45
sS'[[Milk]]'
p30
I74
sS'[[Apple Jam]]'
p31
I6
sS'[[Carrot]]'
p32
I80
sS'[[Blackberry]]'
p33
I49
sS'[[Cotton Shirt]]'
p34
I27
sS'[[Cream]]'
p35
I85
sS'[[Raspberry Jam]]'
p36
I30
sS'[[Cherry]]'
p37
I75
sS'[[Bread]]'
p38
I89
sS'[[Wheat]]'
p39
I38
sS'[[Casserole]]'
p40
I31
sS'[[Strawberry]]'
p41
I90
sS'[[Potato Feta Cake]]'
p42
I69
sS'[[Honeycomb]]'
p43
I33
sS'[[Indigo]]'
p44
I22
sS'[[Raspberry]]'
p45
I10
sS'[[Chocolate Cake]]'
p46
I16
sS'[[Spicy Pizza]]'
p47
I67
sS'[[Cacao]]'
p48
I64
sS'[[Woolly Chaps]]'
p49
I17
sS'[[Honey]]'
p50
I3
sS'[[Egg]]'
p51
I59
sS'[[Strawberry Cake]]'
p52
I15
sS'[[Potato]]'
p53
I2
sS'[[Fish Burger]]'
p54
I52
sS'[[White Sugar]]'
p55
I81
sS'[[Buttered Popcorn]]'
p56
I62
sS'[[Cream Cake]]'
p57
I19
sS'[[Soybean]]'
p58
I39
sS'[[Apple]]'
p59
I20
sS'[[Blue Woolly Hat]]'
p60
I11
sS'[[Goat Milk]]'
p61
I25
sS'[[Hamburger]]'
p62
I43
sS'[[Cherry Jam]]'
p63
I23
sS"[[Shepherd's Pie]]"
p64
I7
sS'[[Brown Sugar]]'
p65
I26
sS'[[Butter]]'
p66
I73
sS'[[Bacon Pie]]'
p67
I82
sS'[[Chili Pepper]]'
p68
I66
sS'[[Corn]]'
p69
I51
sS'[[Fish Fillet]]'
p70
I4
sS'[[Chili Popcorn]]'
p71
I37
sS'[[Bacon]]'
p72
I14
sS'[[Cotton Fabric]]'
p73
I72
sS'[[Pumpkin Pie]]'
p74
I40
sS'[[Honey Popcorn]]'
p75
I21
sS'[[Sugarcane]]'
p76
I13
sS'[[Cookie]]'
p77
I41
sS'[[Apple Juice]]'
p78
I1
sS'[[Pig Feed]]'
p79
I32
sS'[[Cotton]]'
p80
I78
sS'[[Feta Pie]]'
p81
I28
sS'[[Cheese]]'
p82
I47
sS'[[Chocolate Ice Cream]]'
p83
I42
sS'[[Chicken Feed]]'
p84
I29
sS'[[Corn Bread]]'
p85
I79
sS'[[Wool]]'
p86
I8
sS'[[Roasted Tomatoes]]'
p87
I87
sS'[[Berry Juice]]'
p88
I63
sS'[[Sweater]]'
p89
I53
sS'[[Blackberry Muffin]]'
p90
I34
sS'[[Cow Feed]]'
p91
I54
s.(dp0
S'[[Apple]]'
p1
I0
sS'[[Raspberry Muffin]]'
p2
I5
sS'[[Red Berry Cake]]'
p3
I3
sS'[[Apple Pie]]'
p4
I0
sS'[[Hamburger]]'
p5
I1
sS'[[Carrot Juice]]'
p6
I3
sS'[[Goat Cheese]]'
p7
I1
sS'[[Blackberry Jam]]'
p8
I1
sS"[[Shepherd's Pie]]"
p9
I2
sS'[[Soybean]]'
p10
I1
sS'[[Chili Pepper]]'
p11
I0
s.