(dp0
S'[[Pumpkin]]'
p1
I68
sS'[[Blackberry Jam]]'
p2
I73
sS'[[Violet Dress]]'
p3
I28
sS'[[Strawberry Ice Cream]]'
p4
I23
sS'[[Raspberry Muffin]]'
p5
I74
sS'[[Apple Pie]]'
p6
I85
sS'[[Tomato Juice]]'
p7
I75
sS'[[Carrot Cake]]'
p8
I25
sS'[[Vanilla Ice Cream]]'
p9
I18
sS'[[Lure]]'
p10
I49
sS'[[Carrot Pie]]'
p11
I47
sS'[[Tomato]]'
p12
I19
sS'[[Cherry Juice]]'
p13
I52
sS'[[Cheesecake]]'
p14
I83
sS'[[Fish Pie]]'
p15
I22
sS'[[Pancake]]'
p16
I51
sS'[[Popcorn]]'
p17
I10
sS'[[Goat Cheese]]'
p18
I76
sS'[[Potato Bread]]'
p19
I64
sS'[[Goat Feed]]'
p20
I20
sS'[[Red Berry Cake]]'
p21
I72
sS'[[Pizza]]'
p22
I0
sS'[[Syrup]]'
p23
I44
sS'[[Sheep Feed]]'
p24
I50
sS'[[Cherry Popsicle]]'
p25
I33
sS'[[Bacon and Eggs]]'
p26
I56
sS'[[Carrot]]'
p27
I40
sS'[[Carrot Juice]]'
p28
I90
sS'[[Baked Potato]]'
p29
I66
sS'[[Milk]]'
p30
I21
sS'[[Apple Jam]]'
p31
I6
sS'[[Apple]]'
p32
I71
sS'[[Blackberry]]'
p33
I17
sS'[[Cotton Shirt]]'
p34
I16
sS'[[Cream]]'
p35
I32
sS'[[Raspberry Jam]]'
p36
I15
sS'[[Cherry]]'
p37
I24
sS'[[Bread]]'
p38
I9
sS'[[Wheat]]'
p39
I78
sS'[[Casserole]]'
p40
I3
sS'[[Chili Pepper]]'
p41
I42
sS'[[Honey Popcorn]]'
p42
I61
sS'[[Honeycomb]]'
p43
I80
sS'[[Indigo]]'
p44
I29
sS'[[Raspberry]]'
p45
I8
sS'[[Chocolate Cake]]'
p46
I69
sS'[[Spicy Pizza]]'
p47
I63
sS'[[Cacao]]'
p48
I62
sS'[[Woolly Chaps]]'
p49
I81
sS'[[Honey]]'
p50
I36
sS'[[Egg]]'
p51
I35
sS'[[Strawberry Cake]]'
p52
I59
sS'[[Potato]]'
p53
I53
sS'[[Fish Burger]]'
p54
I12
sS'[[White Sugar]]'
p55
I48
sS'[[Buttered Popcorn]]'
p56
I70
sS'[[Cream Cake]]'
p57
I38
sS'[[Soybean]]'
p58
I7
sS'[[Brown Sugar]]'
p59
I1
sS'[[Blue Woolly Hat]]'
p60
I88
sS'[[Goat Milk]]'
p61
I11
sS'[[Hamburger]]'
p62
I57
sS'[[Cherry Jam]]'
p63
I4
sS"[[Shepherd's Pie]]"
p64
I65
sS'[[Butter]]'
p65
I5
sS'[[Bacon Pie]]'
p66
I82
sS'[[Strawberry]]'
p67
I84
sS'[[Pumpkin Pie]]'
p68
I77
sS'[[Corn]]'
p69
I89
sS'[[Fish Fillet]]'
p70
I55
sS'[[Chili Popcorn]]'
p71
I37
sS'[[Bacon]]'
p72
I87
sS'[[Cotton Fabric]]'
p73
I86
sS'[[Blue Sweater]]'
p74
I34
sS'[[Potato Feta Cake]]'
p75
I13
sS'[[Sugarcane]]'
p76
I39
sS'[[Cookie]]'
p77
I58
sS'[[Apple Juice]]'
p78
I60
sS'[[Pig Feed]]'
p79
I46
sS'[[Cotton]]'
p80
I54
sS'[[Feta Pie]]'
p81
I31
sS'[[Cheese]]'
p82
I30
sS'[[Chocolate Ice Cream]]'
p83
I2
sS'[[Chicken Feed]]'
p84
I26
sS'[[Corn Bread]]'
p85
I14
sS'[[Wool]]'
p86
I67
sS'[[Roasted Tomatoes]]'
p87
I27
sS'[[Berry Juice]]'
p88
I43
sS'[[Sweater]]'
p89
I41
sS'[[Blackberry Muffin]]'
p90
I45
sS'[[Cow Feed]]'
p91
I79
s.(dp0
S'[[Corn]]'
p1
I4
sS'[[Fish Fillet]]'
p2
I3
sS'[[Blackberry Jam]]'
p3
I4
sS'[[Strawberry Cake]]'
p4
I4
sS'[[Cookie]]'
p5
I0
sS'[[Cherry Jam]]'
p6
I3
sS'[[Raspberry]]'
p7
I3
sS'[[Buttered Popcorn]]'
p8
I3
sS'[[Chocolate Ice Cream]]'
p9
I1
sS'[[Chocolate Cake]]'
p10
I1
sS'[[Bread]]'
p11
I1
s.