(dp0
S'[[Pumpkin]]'
p1
I23
sS'[[Blackberry Jam]]'
p2
I47
sS'[[Violet Dress]]'
p3
I59
sS'[[Strawberry Ice Cream]]'
p4
I14
sS'[[Raspberry Muffin]]'
p5
I85
sS'[[Apple Pie]]'
p6
I19
sS'[[Tomato Juice]]'
p7
I56
sS'[[Honey]]'
p8
I66
sS'[[Vanilla Ice Cream]]'
p9
I68
sS'[[Lure]]'
p10
I44
sS'[[Carrot Pie]]'
p11
I41
sS'[[Tomato]]'
p12
I87
sS'[[Potato]]'
p13
I76
sS'[[Cheesecake]]'
p14
I38
sS'[[Fish Pie]]'
p15
I58
sS'[[Pancake]]'
p16
I42
sS'[[Popcorn]]'
p17
I49
sS'[[Goat Cheese]]'
p18
I78
sS'[[Potato Bread]]'
p19
I62
sS'[[Goat Feed]]'
p20
I37
sS'[[Red Berry Cake]]'
p21
I53
sS'[[Pizza]]'
p22
I82
sS'[[Syrup]]'
p23
I43
sS'[[Sheep Feed]]'
p24
I24
sS'[[Cherry Popsicle]]'
p25
I12
sS'[[Bacon and Eggs]]'
p26
I4
sS'[[Carrot]]'
p27
I40
sS'[[Carrot Juice]]'
p28
I55
sS'[[Baked Potato]]'
p29
I79
sS'[[Milk]]'
p30
I9
sS'[[Apple Jam]]'
p31
I67
sS'[[Apple]]'
p32
I27
sS'[[Blackberry]]'
p33
I18
sS'[[Cotton Shirt]]'
p34
I75
sS'[[Cream]]'
p35
I46
sS'[[Raspberry Jam]]'
p36
I36
sS'[[Cherry]]'
p37
I57
sS'[[Bread]]'
p38
I1
sS'[[Wheat]]'
p39
I65
sS'[[Casserole]]'
p40
I71
sS'[[Chili Pepper]]'
p41
I13
sS'[[Potato Feta Cake]]'
p42
I39
sS'[[Honeycomb]]'
p43
I30
sS'[[Indigo]]'
p44
I48
sS'[[Raspberry]]'
p45
I89
sS'[[Chocolate Cake]]'
p46
I45
sS'[[Spicy Pizza]]'
p47
I52
sS'[[Cacao]]'
p48
I5
sS'[[Woolly Chaps]]'
p49
I20
sS'[[Carrot Cake]]'
p50
I63
sS'[[Egg]]'
p51
I70
sS'[[Strawberry Cake]]'
p52
I90
sS'[[Cherry Juice]]'
p53
I17
sS'[[Fish Burger]]'
p54
I34
sS'[[White Sugar]]'
p55
I21
sS'[[Buttered Popcorn]]'
p56
I25
sS'[[Cream Cake]]'
p57
I88
sS'[[Soybean]]'
p58
I31
sS'[[Brown Sugar]]'
p59
I86
sS'[[Blue Woolly Hat]]'
p60
I60
sS'[[Goat Milk]]'
p61
I6
sS'[[Hamburger]]'
p62
I11
sS'[[Cherry Jam]]'
p63
I32
sS"[[Shepherd's Pie]]"
p64
I51
sS'[[Butter]]'
p65
I8
sS'[[Bacon Pie]]'
p66
I16
sS'[[Strawberry]]'
p67
I10
sS'[[Pumpkin Pie]]'
p68
I2
sS'[[Corn]]'
p69
I3
sS'[[Fish Fillet]]'
p70
I72
sS'[[Chili Popcorn]]'
p71
I0
sS'[[Bacon]]'
p72
I69
sS'[[Cotton Fabric]]'
p73
I83
sS'[[Blue Sweater]]'
p74
I61
sS'[[Honey Popcorn]]'
p75
I15
sS'[[Sugarcane]]'
p76
I80
sS'[[Cookie]]'
p77
I54
sS'[[Apple Juice]]'
p78
I28
sS'[[Pig Feed]]'
p79
I77
sS'[[Cotton]]'
p80
I73
sS'[[Feta Pie]]'
p81
I7
sS'[[Cheese]]'
p82
I64
sS'[[Chocolate Ice Cream]]'
p83
I26
sS'[[Chicken Feed]]'
p84
I81
sS'[[Corn Bread]]'
p85
I22
sS'[[Wool]]'
p86
I74
sS'[[Roasted Tomatoes]]'
p87
I84
sS'[[Berry Juice]]'
p88
I35
sS'[[Sweater]]'
p89
I33
sS'[[Blackberry Muffin]]'
p90
I29
sS'[[Cow Feed]]'
p91
I50
s.(dp0
S'[[Tomato]]'
p1
I3
sS'[[Wheat]]'
p2
I0
sS'[[Casserole]]'
p3
I2
sS'[[Pumpkin]]'
p4
I3
sS'[[Fish Fillet]]'
p5
I0
sS'[[Blackberry]]'
p6
I1
sS'[[Apple Pie]]'
p7
I2
sS'[[Buttered Popcorn]]'
p8
I2
sS'[[Goat Cheese]]'
p9
I4
sS'[[Lure]]'
p10
I2
sS'[[Chocolate Ice Cream]]'
p11
I0
s.