(dp0
S'[[Pumpkin]]'
p1
I67
sS'[[Blackberry Jam]]'
p2
I42
sS'[[Violet Dress]]'
p3
I33
sS'[[Strawberry Ice Cream]]'
p4
I83
sS'[[Raspberry Muffin]]'
p5
I55
sS'[[Apple Pie]]'
p6
I37
sS'[[Tomato Juice]]'
p7
I31
sS'[[Honey]]'
p8
I74
sS'[[Vanilla Ice Cream]]'
p9
I24
sS'[[Lure]]'
p10
I76
sS'[[Carrot Pie]]'
p11
I64
sS'[[Tomato]]'
p12
I17
sS'[[Potato]]'
p13
I13
sS'[[Cheesecake]]'
p14
I11
sS'[[Fish Pie]]'
p15
I1
sS'[[Pancake]]'
p16
I12
sS'[[Popcorn]]'
p17
I7
sS'[[Goat Cheese]]'
p18
I34
sS'[[Potato Bread]]'
p19
I28
sS'[[Goat Feed]]'
p20
I80
sS'[[Red Berry Cake]]'
p21
I81
sS'[[Pizza]]'
p22
I57
sS'[[Syrup]]'
p23
I21
sS'[[Sheep Feed]]'
p24
I40
sS'[[Cherry Popsicle]]'
p25
I62
sS'[[Bacon and Eggs]]'
p26
I51
sS'[[Carrot Juice]]'
p27
I30
sS'[[Baked Potato]]'
p28
I3
sS'[[Milk]]'
p29
I78
sS'[[Apple Jam]]'
p30
I56
sS'[[Carrot]]'
p31
I61
sS'[[Blackberry]]'
p32
I88
sS'[[Cotton Shirt]]'
p33
I36
sS'[[Cream]]'
p34
I70
sS'[[Raspberry Jam]]'
p35
I27
sS'[[Cherry]]'
p36
I46
sS'[[Bread]]'
p37
I5
sS'[[Wheat]]'
p38
I18
sS'[[Casserole]]'
p39
I14
sS'[[Chili Pepper]]'
p40
I73
sS'[[Honey Popcorn]]'
p41
I38
sS'[[Honeycomb]]'
p42
I26
sS'[[Indigo]]'
p43
I75
sS'[[Raspberry]]'
p44
I59
sS'[[Chocolate Cake]]'
p45
I0
sS'[[Spicy Pizza]]'
p46
I79
sS'[[Cacao]]'
p47
I86
sS'[[Woolly Chaps]]'
p48
I16
sS'[[Carrot Cake]]'
p49
I47
sS'[[Egg]]'
p50
I20
sS'[[Strawberry Cake]]'
p51
I39
sS'[[Cherry Juice]]'
p52
I77
sS'[[Fish Burger]]'
p53
I4
sS'[[White Sugar]]'
p54
I54
sS'[[Buttered Popcorn]]'
p55
I43
sS'[[Cream Cake]]'
p56
I10
sS'[[Soybean]]'
p57
I8
sS'[[Apple]]'
p58
I2
sS'[[Blue Woolly Hat]]'
p59
I84
sS'[[Goat Milk]]'
p60
I87
sS'[[Hamburger]]'
p61
I90
sS'[[Cherry Jam]]'
p62
I53
sS"[[Shepherd's Pie]]"
p63
I63
sS'[[Brown Sugar]]'
p64
I25
sS'[[Butter]]'
p65
I15
sS'[[Bacon Pie]]'
p66
I60
sS'[[Strawberry]]'
p67
I66
sS'[[Pumpkin Pie]]'
p68
I9
sS'[[Corn]]'
p69
I68
sS'[[Fish Fillet]]'
p70
I49
sS'[[Chili Popcorn]]'
p71
I41
sS'[[Bacon]]'
p72
I29
sS'[[Cotton Fabric]]'
p73
I32
sS'[[Blue Sweater]]'
p74
I6
sS'[[Potato Feta Cake]]'
p75
I69
sS'[[Sugarcane]]'
p76
I72
sS'[[Cookie]]'
p77
I44
sS'[[Apple Juice]]'
p78
I50
sS'[[Pig Feed]]'
p79
I89
sS'[[Cotton]]'
p80
I23
sS'[[Feta Pie]]'
p81
I22
sS'[[Cheese]]'
p82
I65
sS'[[Chocolate Ice Cream]]'
p83
I35
sS'[[Chicken Feed]]'
p84
I52
sS'[[Corn Bread]]'
p85
I48
sS'[[Wool]]'
p86
I82
sS'[[Roasted Tomatoes]]'
p87
I19
sS'[[Berry Juice]]'
p88
I71
sS'[[Sweater]]'
p89
I45
sS'[[Blackberry Muffin]]'
p90
I85
sS'[[Cow Feed]]'
p91
I58
s.(dp0
S'[[Wheat]]'
p1
I3
sS'[[Sheep Feed]]'
p2
I1
sS'[[Cow Feed]]'
p3
I2
sS'[[Strawberry Ice Cream]]'
p4
I5
sS'[[Feta Pie]]'
p5
I3
sS'[[Bacon and Eggs]]'
p6
I2
sS'[[Potato]]'
p7
I2
sS'[[Egg]]'
p8
I0
sS'[[Lure]]'
p9
I2
sS'[[Carrot Pie]]'
p10
I3
sS'[[Bread]]'
p11
I1
s.