(dp0
S'[[Pumpkin]]'
p1
I57
sS'[[Blackberry Jam]]'
p2
I49
sS'[[Violet Dress]]'
p3
I60
sS'[[Strawberry Ice Cream]]'
p4
I65
sS'[[Raspberry Muffin]]'
p5
I88
sS'[[Apple Pie]]'
p6
I75
sS'[[Tomato Juice]]'
p7
I71
sS'[[Carrot Cake]]'
p8
I5
sS'[[Vanilla Ice Cream]]'
p9
I4
sS'[[Lure]]'
p10
I67
sS'[[Carrot Pie]]'
p11
I25
sS'[[Tomato]]'
p12
I59
sS'[[Cherry Juice]]'
p13
I40
sS'[[Cheesecake]]'
p14
I46
sS'[[Fish Pie]]'
p15
I53
sS'[[Pancake]]'
p16
I9
sS'[[Popcorn]]'
p17
I31
sS'[[Goat Cheese]]'
p18
I79
sS'[[Potato Bread]]'
p19
I36
sS'[[Goat Feed]]'
p20
I2
sS'[[Red Berry Cake]]'
p21
I30
sS'[[Pizza]]'
p22
I20
sS'[[Syrup]]'
p23
I76
sS'[[Sheep Feed]]'
p24
I68
sS'[[Cherry Popsicle]]'
p25
I44
sS'[[Bacon and Eggs]]'
p26
I78
sS'[[Carrot Juice]]'
p27
I19
sS'[[Baked Potato]]'
p28
I69
sS'[[Milk]]'
p29
I22
sS'[[Apple Jam]]'
p30
I38
sS'[[Carrot]]'
p31
I11
sS'[[Blackberry]]'
p32
I54
sS'[[Cotton Shirt]]'
p33
I37
sS'[[Cream]]'
p34
I18
sS'[[Raspberry Jam]]'
p35
I10
sS'[[Cherry]]'
p36
I55
sS'[[Bread]]'
p37
I1
sS'[[Wheat]]'
p38
I27
sS'[[Casserole]]'
p39
I83
sS'[[Chili Pepper]]'
p40
I64
sS'[[Potato Feta Cake]]'
p41
I39
sS'[[Honeycomb]]'
p42
I21
sS'[[Indigo]]'
p43
I72
sS'[[Raspberry]]'
p44
I41
sS'[[Chocolate Cake]]'
p45
I74
sS'[[Spicy Pizza]]'
p46
I63
sS'[[Cacao]]'
p47
I89
sS'[[Woolly Chaps]]'
p48
I26
sS'[[Honey]]'
p49
I17
sS'[[Egg]]'
p50
I8
sS'[[Strawberry Cake]]'
p51
I42
sS'[[Potato]]'
p52
I70
sS'[[Fish Burger]]'
p53
I48
sS'[[White Sugar]]'
p54
I24
sS'[[Buttered Popcorn]]'
p55
I43
sS'[[Cream Cake]]'
p56
I32
sS'[[Soybean]]'
p57
I77
sS'[[Apple]]'
p58
I6
sS'[[Blue Woolly Hat]]'
p59
I87
sS'[[Goat Milk]]'
p60
I86
sS'[[Hamburger]]'
p61
I51
sS'[[Cherry Jam]]'
p62
I45
sS"[[Shepherd's Pie]]"
p63
I29
sS'[[Brown Sugar]]'
p64
I50
sS'[[Butter]]'
p65
I61
sS'[[Bacon Pie]]'
p66
I80
sS'[[Strawberry]]'
p67
I15
sS'[[Pumpkin Pie]]'
p68
I28
sS'[[Corn]]'
p69
I52
sS'[[Fish Fillet]]'
p70
I14
sS'[[Chili Popcorn]]'
p71
I66
sS'[[Bacon]]'
p72
I12
sS'[[Cotton Fabric]]'
p73
I81
sS'[[Blue Sweater]]'
p74
I35
sS'[[Honey Popcorn]]'
p75
I34
sS'[[Sugarcane]]'
p76
I3
sS'[[Cookie]]'
p77
I56
sS'[[Apple Juice]]'
p78
I73
sS'[[Pig Feed]]'
p79
I58
sS'[[Cotton]]'
p80
I0
sS'[[Feta Pie]]'
p81
I62
sS'[[Cheese]]'
p82
I90
sS'[[Chocolate Ice Cream]]'
p83
I85
sS'[[Chicken Feed]]'
p84
I82
sS'[[Corn Bread]]'
p85
I7
sS'[[Wool]]'
p86
I33
sS'[[Roasted Tomatoes]]'
p87
I47
sS'[[Berry Juice]]'
p88
I16
sS'[[Sweater]]'
p89
I84
sS'[[Blackberry Muffin]]'
p90
I13
sS'[[Cow Feed]]'
p91
I23
s.(dp0
S'[[Tomato]]'
p1
I4
sS'[[Brown Sugar]]'
p2
I5
sS'[[Casserole]]'
p3
I3
sS'[[Carrot]]'
p4
I0
sS'[[Carrot Cake]]'
p5
I3
sS'[[Blackberry Jam]]'
p6
I3
sS'[[Corn Bread]]'
p7
I5
sS'[[Blackberry Muffin]]'
p8
I2
sS'[[Pancake]]'
p9
I5
sS'[[Raspberry Jam]]'
p10
I0
sS'[[Violet Dress]]'
p11
I0
s.