(dp0
S'[[Pumpkin]]'
p1
I1
sS'[[Blackberry Jam]]'
p2
I87
sS'[[Violet Dress]]'
p3
I52
sS'[[Strawberry Ice Cream]]'
p4
I78
sS'[[Raspberry Muffin]]'
p5
I73
sS'[[Apple Pie]]'
p6
I74
sS'[[Tomato Juice]]'
p7
I15
sS'[[Blue Sweater]]'
p8
I51
sS'[[Carrot Cake]]'
p9
I44
sS'[[Vanilla Ice Cream]]'
p10
I56
sS'[[Lure]]'
p11
I7
sS'[[Carrot Pie]]'
p12
I17
sS'[[Tomato]]'
p13
I9
sS'[[Cherry Juice]]'
p14
I88
sS'[[Cheesecake]]'
p15
I61
sS'[[Fish Pie]]'
p16
I45
sS'[[Pancake]]'
p17
I47
sS'[[Popcorn]]'
p18
I12
sS'[[Goat Cheese]]'
p19
I24
sS'[[Potato Bread]]'
p20
I4
sS'[[Goat Feed]]'
p21
I11
sS'[[Red Berry Cake]]'
p22
I32
sS'[[Pizza]]'
p23
I89
sS'[[Syrup]]'
p24
I21
sS'[[Sheep Feed]]'
p25
I34
sS'[[Cherry Popsicle]]'
p26
I53
sS'[[Bacon and Eggs]]'
p27
I48
sS'[[Carrot Juice]]'
p28
I37
sS'[[Baked Potato]]'
p29
I41
sS'[[Milk]]'
p30
I49
sS'[[Apple Jam]]'
p31
I83
sS'[[Carrot]]'
p32
I57
sS'[[Blackberry]]'
p33
I59
sS'[[Cotton Shirt]]'
p34
I43
sS'[[Cream]]'
p35
I26
sS'[[Raspberry Jam]]'
p36
I54
sS'[[Cherry]]'
p37
I72
sS'[[Bread]]'
p38
I31
sS'[[Wheat]]'
p39
I85
sS'[[Casserole]]'
p40
I77
sS'[[Strawberry]]'
p41
I69
sS'[[Potato Feta Cake]]'
p42
I38
sS'[[Honeycomb]]'
p43
I29
sS'[[Indigo]]'
p44
I28
sS'[[Raspberry]]'
p45
I50
sS'[[Chocolate Cake]]'
p46
I65
sS'[[Spicy Pizza]]'
p47
I82
sS'[[Cacao]]'
p48
I8
sS'[[Woolly Chaps]]'
p49
I33
sS'[[Honey]]'
p50
I58
sS'[[Egg]]'
p51
I39
sS'[[Strawberry Cake]]'
p52
I27
sS'[[Potato]]'
p53
I80
sS'[[Fish Burger]]'
p54
I46
sS'[[White Sugar]]'
p55
I84
sS'[[Buttered Popcorn]]'
p56
I5
sS'[[Cream Cake]]'
p57
I3
sS'[[Soybean]]'
p58
I16
sS'[[Apple]]'
p59
I68
sS'[[Blue Woolly Hat]]'
p60
I62
sS'[[Goat Milk]]'
p61
I35
sS'[[Hamburger]]'
p62
I42
sS'[[Cherry Jam]]'
p63
I67
sS"[[Shepherd's Pie]]"
p64
I60
sS'[[Brown Sugar]]'
p65
I23
sS'[[Butter]]'
p66
I2
sS'[[Bacon Pie]]'
p67
I79
sS'[[Chili Pepper]]'
p68
I66
sS'[[Corn]]'
p69
I75
sS'[[Fish Fillet]]'
p70
I40
sS'[[Chili Popcorn]]'
p71
I22
sS'[[Bacon]]'
p72
I36
sS'[[Cotton Fabric]]'
p73
I90
sS'[[Pumpkin Pie]]'
p74
I86
sS'[[Honey Popcorn]]'
p75
I63
sS'[[Sugarcane]]'
p76
I14
sS'[[Cookie]]'
p77
I25
sS'[[Apple Juice]]'
p78
I18
sS'[[Pig Feed]]'
p79
I55
sS'[[Cotton]]'
p80
I76
sS'[[Feta Pie]]'
p81
I70
sS'[[Cheese]]'
p82
I0
sS'[[Chocolate Ice Cream]]'
p83
I64
sS'[[Chicken Feed]]'
p84
I71
sS'[[Corn Bread]]'
p85
I30
sS'[[Wool]]'
p86
I10
sS'[[Roasted Tomatoes]]'
p87
I19
sS'[[Berry Juice]]'
p88
I20
sS'[[Sweater]]'
p89
I81
sS'[[Blackberry Muffin]]'
p90
I13
sS'[[Cow Feed]]'
p91
I6
s.(dp0
S'[[Potato Bread]]'
p1
I3
sS'[[Raspberry Muffin]]'
p2
I0
sS'[[Cherry Juice]]'
p3
I1
sS'[[Chili Popcorn]]'
p4
I2
sS'[[Tomato Juice]]'
p5
I0
sS'[[Sugarcane]]'
p6
I0
sS'[[Potato]]'
p7
I2
sS'[[Bacon]]'
p8
I2
sS'[[Bread]]'
p9
I0
sS'[[Violet Dress]]'
p10
I0
sS'[[Cotton]]'
p11
I3
s.