(dp0
S'[[Pumpkin]]'
p1
I58
sS'[[Blackberry Jam]]'
p2
I48
sS'[[Violet Dress]]'
p3
I17
sS'[[Strawberry Ice Cream]]'
p4
I26
sS'[[Raspberry Muffin]]'
p5
I13
sS'[[Apple Pie]]'
p6
I10
sS'[[Tomato Juice]]'
p7
I56
sS'[[Honey]]'
p8
I78
sS'[[Vanilla Ice Cream]]'
p9
I41
sS'[[Lure]]'
p10
I3
sS'[[Carrot Pie]]'
p11
I32
sS'[[Tomato]]'
p12
I88
sS'[[Potato]]'
p13
I4
sS'[[Cheesecake]]'
p14
I87
sS'[[Fish Pie]]'
p15
I82
sS'[[Pancake]]'
p16
I47
sS'[[Popcorn]]'
p17
I65
sS'[[Goat Cheese]]'
p18
I68
sS'[[Potato Bread]]'
p19
I22
sS'[[Goat Feed]]'
p20
I77
sS'[[Red Berry Cake]]'
p21
I6
sS'[[Pizza]]'
p22
I14
sS'[[Syrup]]'
p23
I81
sS'[[Sheep Feed]]'
p24
I53
sS'[[Cherry Popsicle]]'
p25
I35
sS'[[Bacon and Eggs]]'
p26
I52
sS'[[Carrot Juice]]'
p27
I45
sS'[[Baked Potato]]'
p28
I63
sS'[[Milk]]'
p29
I23
sS'[[Apple Jam]]'
p30
I74
sS'[[Carrot]]'
p31
I73
sS'[[Blackberry]]'
p32
I51
sS'[[Cotton Shirt]]'
p33
I9
sS'[[Cream]]'
p34
I25
sS'[[Raspberry Jam]]'
p35
I90
sS'[[Cherry]]'
p36
I18
sS'[[Bread]]'
p37
I62
sS'[[Wheat]]'
p38
I50
sS'[[Casserole]]'
p39
I66
sS'[[Chili Pepper]]'
p40
I72
sS'[[Honey Popcorn]]'
p41
I8
sS'[[Honeycomb]]'
p42
I69
sS'[[Indigo]]'
p43
I67
sS'[[Raspberry]]'
p44
I71
sS'[[Chocolate Cake]]'
p45
I12
sS'[[Spicy Pizza]]'
p46
I42
sS'[[Cacao]]'
p47
I39
sS'[[Woolly Chaps]]'
p48
I21
sS'[[Carrot Cake]]'
p49
I30
sS'[[Egg]]'
p50
I85
sS'[[Strawberry Cake]]'
p51
I57
sS'[[Cherry Juice]]'
p52
I64
sS'[[Fish Burger]]'
p53
I86
sS'[[White Sugar]]'
p54
I20
sS'[[Buttered Popcorn]]'
p55
I29
sS'[[Cream Cake]]'
p56
I31
sS'[[Soybean]]'
p57
I60
sS'[[Apple]]'
p58
I46
sS'[[Blue Woolly Hat]]'
p59
I84
sS'[[Goat Milk]]'
p60
I15
sS'[[Hamburger]]'
p61
I80
sS'[[Cherry Jam]]'
p62
I19
sS"[[Shepherd's Pie]]"
p63
I34
sS'[[Brown Sugar]]'
p64
I37
sS'[[Butter]]'
p65
I70
sS'[[Bacon Pie]]'
p66
I89
sS'[[Strawberry]]'
p67
I75
sS'[[Pumpkin Pie]]'
p68
I7
sS'[[Corn]]'
p69
I27
sS'[[Fish Fillet]]'
p70
I5
sS'[[Chili Popcorn]]'
p71
I54
sS'[[Bacon]]'
p72
I59
sS'[[Cotton Fabric]]'
p73
I11
sS'[[Blue Sweater]]'
p74
I76
sS'[[Potato Feta Cake]]'
p75
I2
sS'[[Sugarcane]]'
p76
I83
sS'[[Cookie]]'
p77
I1
sS'[[Apple Juice]]'
p78
I36
sS'[[Pig Feed]]'
p79
I44
sS'[[Cotton]]'
p80
I0
sS'[[Feta Pie]]'
p81
I43
sS'[[Cheese]]'
p82
I40
sS'[[Chocolate Ice Cream]]'
p83
I16
sS'[[Chicken Feed]]'
p84
I79
sS'[[Corn Bread]]'
p85
I61
sS'[[Wool]]'
p86
I28
sS'[[Roasted Tomatoes]]'
p87
I33
sS'[[Berry Juice]]'
p88
I49
sS'[[Sweater]]'
p89
I38
sS'[[Blackberry Muffin]]'
p90
I55
sS'[[Cow Feed]]'
p91
I24
s.(dp0
S'[[Wheat]]'
p1
I5
sS'[[Apple]]'
p2
I4
sS'[[Cow Feed]]'
p3
I2
sS'[[Sweater]]'
p4
I0
sS'[[Pumpkin]]'
p5
I2
sS'[[Milk]]'
p6
I1
sS'[[Buttered Popcorn]]'
p7
I3
sS'[[Chocolate Ice Cream]]'
p8
I0
sS'[[Cream Cake]]'
p9
I2
sS'[[Pizza]]'
p10
I4
sS'[[Raspberry Jam]]'
p11
I0
s.