(dp0
S'[[Pumpkin]]'
p1
I12
sS'[[Blackberry Jam]]'
p2
I4
sS'[[Violet Dress]]'
p3
I79
sS'[[Strawberry Ice Cream]]'
p4
I44
sS'[[Raspberry Muffin]]'
p5
I81
sS'[[Apple Pie]]'
p6
I13
sS'[[Tomato Juice]]'
p7
I51
sS'[[Blue Sweater]]'
p8
I80
sS'[[Carrot Cake]]'
p9
I31
sS'[[Vanilla Ice Cream]]'
p10
I78
sS'[[Lure]]'
p11
I7
sS'[[Carrot Pie]]'
p12
I77
sS'[[Tomato]]'
p13
I61
sS'[[Cherry Juice]]'
p14
I10
sS'[[Cheesecake]]'
p15
I84
sS'[[Fish Pie]]'
p16
I64
sS'[[Pancake]]'
p17
I68
sS'[[Popcorn]]'
p18
I65
sS'[[Goat Cheese]]'
p19
I69
sS'[[Potato Bread]]'
p20
I59
sS'[[Goat Feed]]'
p21
I76
sS'[[Red Berry Cake]]'
p22
I48
sS'[[Pizza]]'
p23
I56
sS'[[Syrup]]'
p24
I22
sS'[[Sheep Feed]]'
p25
I26
sS'[[Cherry Popsicle]]'
p26
I52
sS'[[Bacon and Eggs]]'
p27
I23
sS'[[Carrot Juice]]'
p28
I82
sS'[[Baked Potato]]'
p29
I43
sS'[[Milk]]'
p30
I29
sS'[[Apple Jam]]'
p31
I17
sS'[[Carrot]]'
p32
I85
sS'[[Blackberry]]'
p33
I34
sS'[[Cotton Shirt]]'
p34
I49
sS'[[Cream]]'
p35
I75
sS'[[Raspberry Jam]]'
p36
I57
sS'[[Cherry]]'
p37
I14
sS'[[Bread]]'
p38
I63
sS'[[Wheat]]'
p39
I72
sS'[[Casserole]]'
p40
I16
sS'[[Strawberry]]'
p41
I74
sS'[[Potato Feta Cake]]'
p42
I9
sS'[[Honeycomb]]'
p43
I60
sS'[[Indigo]]'
p44
I58
sS'[[Raspberry]]'
p45
I87
sS'[[Chocolate Cake]]'
p46
I89
sS'[[Spicy Pizza]]'
p47
I19
sS'[[Cacao]]'
p48
I18
sS'[[Woolly Chaps]]'
p49
I39
sS'[[Honey]]'
p50
I3
sS'[[Egg]]'
p51
I41
sS'[[Strawberry Cake]]'
p52
I36
sS'[[Potato]]'
p53
I62
sS'[[Fish Burger]]'
p54
I46
sS'[[White Sugar]]'
p55
I50
sS'[[Buttered Popcorn]]'
p56
I55
sS'[[Cream Cake]]'
p57
I8
sS'[[Soybean]]'
p58
I47
sS'[[Apple]]'
p59
I2
sS'[[Blue Woolly Hat]]'
p60
I66
sS'[[Goat Milk]]'
p61
I71
sS'[[Hamburger]]'
p62
I24
sS'[[Cherry Jam]]'
p63
I42
sS"[[Shepherd's Pie]]"
p64
I32
sS'[[Brown Sugar]]'
p65
I0
sS'[[Butter]]'
p66
I83
sS'[[Bacon Pie]]'
p67
I54
sS'[[Chili Pepper]]'
p68
I28
sS'[[Corn]]'
p69
I11
sS'[[Fish Fillet]]'
p70
I15
sS'[[Chili Popcorn]]'
p71
I88
sS'[[Bacon]]'
p72
I38
sS'[[Cotton Fabric]]'
p73
I6
sS'[[Pumpkin Pie]]'
p74
I67
sS'[[Honey Popcorn]]'
p75
I73
sS'[[Sugarcane]]'
p76
I21
sS'[[Cookie]]'
p77
I90
sS'[[Apple Juice]]'
p78
I53
sS'[[Pig Feed]]'
p79
I25
sS'[[Cotton]]'
p80
I70
sS'[[Feta Pie]]'
p81
I45
sS'[[Cheese]]'
p82
I1
sS'[[Chocolate Ice Cream]]'
p83
I27
sS'[[Chicken Feed]]'
p84
I35
sS'[[Corn Bread]]'
p85
I33
sS'[[Wool]]'
p86
I30
sS'[[Roasted Tomatoes]]'
p87
I40
sS'[[Berry Juice]]'
p88
I37
sS'[[Sweater]]'
p89
I20
sS'[[Blackberry Muffin]]'
p90
I86
sS'[[Cow Feed]]'
p91
I5
s.(dp0
S'[[Wheat]]'
p1
I4
sS'[[Casserole]]'
p2
I3
sS'[[Potato Bread]]'
p3
I4
sS'[[Popcorn]]'
p4
I4
sS'[[Carrot Cake]]'
p5
I1
sS'[[Potato]]'
p6
I4
sS'[[Chili Popcorn]]'
p7
I1
sS'[[Spicy Pizza]]'
p8
I0
sS'[[Cotton Fabric]]'
p9
I0
sS'[[Cow Feed]]'
p10
I5
sS'[[Pumpkin]]'
p11
I1
s.