(dp0
S'[[Pumpkin]]'
p1
I7
sS'[[Blackberry Jam]]'
p2
I62
sS'[[Violet Dress]]'
p3
I4
sS'[[Strawberry Ice Cream]]'
p4
I61
sS'[[Raspberry Muffin]]'
p5
I56
sS'[[Apple Pie]]'
p6
I11
sS'[[Tomato Juice]]'
p7
I2
sS'[[Blue Sweater]]'
p8
I44
sS'[[Honey]]'
p9
I87
sS'[[Vanilla Ice Cream]]'
p10
I76
sS'[[Lure]]'
p11
I53
sS'[[Carrot Pie]]'
p12
I34
sS'[[Tomato]]'
p13
I79
sS'[[Potato]]'
p14
I36
sS'[[Cheesecake]]'
p15
I82
sS'[[Fish Pie]]'
p16
I23
sS'[[Pancake]]'
p17
I42
sS'[[Popcorn]]'
p18
I51
sS'[[Goat Cheese]]'
p19
I77
sS'[[Potato Bread]]'
p20
I74
sS'[[Goat Feed]]'
p21
I80
sS'[[Red Berry Cake]]'
p22
I43
sS'[[Pizza]]'
p23
I29
sS'[[Syrup]]'
p24
I8
sS'[[Sheep Feed]]'
p25
I64
sS'[[Cherry Popsicle]]'
p26
I57
sS'[[Bacon and Eggs]]'
p27
I18
sS'[[Carrot Juice]]'
p28
I1
sS'[[Baked Potato]]'
p29
I13
sS'[[Milk]]'
p30
I54
sS'[[Apple Jam]]'
p31
I85
sS'[[Carrot]]'
p32
I55
sS'[[Blackberry]]'
p33
I63
sS'[[Cotton Shirt]]'
p34
I73
sS'[[Cream]]'
p35
I37
sS'[[Raspberry Jam]]'
p36
I52
sS'[[Cherry]]'
p37
I20
sS'[[Bread]]'
p38
I30
sS'[[Wheat]]'
p39
I0
sS'[[Casserole]]'
p40
I59
sS'[[Strawberry]]'
p41
I49
sS'[[Honey Popcorn]]'
p42
I9
sS'[[Honeycomb]]'
p43
I17
sS'[[Indigo]]'
p44
I35
sS'[[Raspberry]]'
p45
I69
sS'[[Chocolate Cake]]'
p46
I67
sS'[[Spicy Pizza]]'
p47
I48
sS'[[Cacao]]'
p48
I26
sS'[[Woolly Chaps]]'
p49
I45
sS'[[Carrot Cake]]'
p50
I46
sS'[[Egg]]'
p51
I58
sS'[[Strawberry Cake]]'
p52
I28
sS'[[Cherry Juice]]'
p53
I32
sS'[[Fish Burger]]'
p54
I71
sS'[[White Sugar]]'
p55
I19
sS'[[Buttered Popcorn]]'
p56
I41
sS'[[Cream Cake]]'
p57
I16
sS'[[Soybean]]'
p58
I84
sS'[[Apple]]'
p59
I6
sS'[[Blue Woolly Hat]]'
p60
I81
sS'[[Goat Milk]]'
p61
I90
sS'[[Hamburger]]'
p62
I14
sS'[[Cherry Jam]]'
p63
I10
sS"[[Shepherd's Pie]]"
p64
I12
sS'[[Brown Sugar]]'
p65
I31
sS'[[Butter]]'
p66
I66
sS'[[Bacon Pie]]'
p67
I78
sS'[[Chili Pepper]]'
p68
I72
sS'[[Corn]]'
p69
I22
sS'[[Fish Fillet]]'
p70
I89
sS'[[Chili Popcorn]]'
p71
I21
sS'[[Bacon]]'
p72
I39
sS'[[Cotton Fabric]]'
p73
I27
sS'[[Pumpkin Pie]]'
p74
I83
sS'[[Potato Feta Cake]]'
p75
I5
sS'[[Sugarcane]]'
p76
I88
sS'[[Cookie]]'
p77
I47
sS'[[Apple Juice]]'
p78
I65
sS'[[Pig Feed]]'
p79
I75
sS'[[Cotton]]'
p80
I70
sS'[[Feta Pie]]'
p81
I40
sS'[[Cheese]]'
p82
I86
sS'[[Chocolate Ice Cream]]'
p83
I24
sS'[[Chicken Feed]]'
p84
I25
sS'[[Corn Bread]]'
p85
I68
sS'[[Wool]]'
p86
I60
sS'[[Roasted Tomatoes]]'
p87
I50
sS'[[Berry Juice]]'
p88
I3
sS'[[Sweater]]'
p89
I38
sS'[[Blackberry Muffin]]'
p90
I15
sS'[[Cow Feed]]'
p91
I33
s.(dp0
S'[[Tomato]]'
p1
I1
sS'[[Bread]]'
p2
I5
sS'[[Roasted Tomatoes]]'
p3
I3
sS'[[Strawberry Cake]]'
p4
I1
sS'[[Apple Pie]]'
p5
I2
sS'[[Fish Pie]]'
p6
I3
sS'[[Cheese]]'
p7
I1
sS"[[Shepherd's Pie]]"
p8
I3
sS'[[Cow Feed]]'
p9
I2
s.