(dp0
S'[[Pumpkin]]'
p1
I42
sS'[[Blackberry Jam]]'
p2
I7
sS'[[Violet Dress]]'
p3
I53
sS'[[Strawberry Ice Cream]]'
p4
I85
sS'[[Raspberry Muffin]]'
p5
I77
sS'[[Apple Pie]]'
p6
I66
sS'[[Tomato Juice]]'
p7
I30
sS'[[Carrot Cake]]'
p8
I33
sS'[[Vanilla Ice Cream]]'
p9
I82
sS'[[Lure]]'
p10
I84
sS'[[Carrot Pie]]'
p11
I62
sS'[[Tomato]]'
p12
I56
sS'[[Cherry Juice]]'
p13
I15
sS'[[Cheesecake]]'
p14
I81
sS'[[Fish Pie]]'
p15
I88
sS'[[Pancake]]'
p16
I28
sS'[[Popcorn]]'
p17
I69
sS'[[Goat Cheese]]'
p18
I61
sS'[[Potato Bread]]'
p19
I8
sS'[[Goat Feed]]'
p20
I46
sS'[[Red Berry Cake]]'
p21
I31
sS'[[Pizza]]'
p22
I4
sS'[[Syrup]]'
p23
I34
sS'[[Sheep Feed]]'
p24
I68
sS'[[Cherry Popsicle]]'
p25
I54
sS'[[Bacon and Eggs]]'
p26
I65
sS'[[Carrot Juice]]'
p27
I37
sS'[[Baked Potato]]'
p28
I35
sS'[[Milk]]'
p29
I60
sS'[[Apple Jam]]'
p30
I90
sS'[[Carrot]]'
p31
I19
sS'[[Blackberry]]'
p32
I3
sS'[[Cotton Shirt]]'
p33
I74
sS'[[Cream]]'
p34
I83
sS'[[Raspberry Jam]]'
p35
I48
sS'[[Cherry]]'
p36
I22
sS'[[Bread]]'
p37
I70
sS'[[Wheat]]'
p38
I12
sS'[[Casserole]]'
p39
I10
sS'[[Chili Pepper]]'
p40
I17
sS'[[Potato Feta Cake]]'
p41
I32
sS'[[Honeycomb]]'
p42
I87
sS'[[Indigo]]'
p43
I29
sS'[[Raspberry]]'
p44
I2
sS'[[Chocolate Cake]]'
p45
I76
sS'[[Spicy Pizza]]'
p46
I59
sS'[[Cacao]]'
p47
I55
sS'[[Woolly Chaps]]'
p48
I51
sS'[[Honey]]'
p49
I1
sS'[[Egg]]'
p50
I79
sS'[[Strawberry Cake]]'
p51
I38
sS'[[Potato]]'
p52
I16
sS'[[Fish Burger]]'
p53
I71
sS'[[White Sugar]]'
p54
I6
sS'[[Buttered Popcorn]]'
p55
I43
sS'[[Cream Cake]]'
p56
I73
sS'[[Soybean]]'
p57
I21
sS'[[Apple]]'
p58
I20
sS'[[Blue Woolly Hat]]'
p59
I11
sS'[[Goat Milk]]'
p60
I45
sS'[[Hamburger]]'
p61
I89
sS'[[Cherry Jam]]'
p62
I57
sS"[[Shepherd's Pie]]"
p63
I14
sS'[[Brown Sugar]]'
p64
I86
sS'[[Butter]]'
p65
I5
sS'[[Bacon Pie]]'
p66
I23
sS'[[Strawberry]]'
p67
I40
sS'[[Pumpkin Pie]]'
p68
I18
sS'[[Corn]]'
p69
I44
sS'[[Fish Fillet]]'
p70
I64
sS'[[Chili Popcorn]]'
p71
I78
sS'[[Bacon]]'
p72
I80
sS'[[Cotton Fabric]]'
p73
I52
sS'[[Blue Sweater]]'
p74
I26
sS'[[Honey Popcorn]]'
p75
I0
sS'[[Sugarcane]]'
p76
I58
sS'[[Cookie]]'
p77
I39
sS'[[Apple Juice]]'
p78
I27
sS'[[Pig Feed]]'
p79
I13
sS'[[Cotton]]'
p80
I63
sS'[[Feta Pie]]'
p81
I25
sS'[[Cheese]]'
p82
I24
sS'[[Chocolate Ice Cream]]'
p83
I47
sS'[[Chicken Feed]]'
p84
I36
sS'[[Corn Bread]]'
p85
I50
sS'[[Wool]]'
p86
I67
sS'[[Roasted Tomatoes]]'
p87
I75
sS'[[Berry Juice]]'
p88
I9
sS'[[Sweater]]'
p89
I72
sS'[[Blackberry Muffin]]'
p90
I49
sS'[[Cow Feed]]'
p91
I41
s.(dp0
S'[[Strawberry]]'
p1
I5
sS'[[Egg]]'
p2
I3
sS'[[Cookie]]'
p3
I1
sS'[[Hamburger]]'
p4
I4
sS'[[Carrot Juice]]'
p5
I0
sS'[[Honeycomb]]'
p6
I2
sS'[[Butter]]'
p7
I1
sS'[[Pancake]]'
p8
I3
sS'[[Buttered Popcorn]]'
p9
I5
sS'[[Cream Cake]]'
p10
I5
sS"[[Shepherd's Pie]]"
p11
I4
s.