(dp0
S'[[Pumpkin]]'
p1
I38
sS'[[Blackberry Jam]]'
p2
I42
sS'[[Violet Dress]]'
p3
I69
sS'[[Strawberry Ice Cream]]'
p4
I22
sS'[[Raspberry Muffin]]'
p5
I53
sS'[[Apple Pie]]'
p6
I0
sS'[[Tomato Juice]]'
p7
I3
sS'[[Blue Sweater]]'
p8
I21
sS'[[Carrot Cake]]'
p9
I90
sS'[[Vanilla Ice Cream]]'
p10
I70
sS'[[Lure]]'
p11
I32
sS'[[Carrot Pie]]'
p12
I48
sS'[[Tomato]]'
p13
I66
sS'[[Cherry Juice]]'
p14
I1
sS'[[Cheesecake]]'
p15
I17
sS'[[Fish Pie]]'
p16
I63
sS'[[Pancake]]'
p17
I51
sS'[[Popcorn]]'
p18
I44
sS'[[Goat Cheese]]'
p19
I43
sS'[[Potato Bread]]'
p20
I52
sS'[[Goat Feed]]'
p21
I58
sS'[[Red Berry Cake]]'
p22
I56
sS'[[Pizza]]'
p23
I55
sS'[[Syrup]]'
p24
I46
sS'[[Sheep Feed]]'
p25
I36
sS'[[Cherry Popsicle]]'
p26
I28
sS'[[Bacon and Eggs]]'
p27
I89
sS'[[Carrot Juice]]'
p28
I75
sS'[[Baked Potato]]'
p29
I62
sS'[[Milk]]'
p30
I87
sS'[[Apple Jam]]'
p31
I59
sS'[[Carrot]]'
p32
I33
sS'[[Blackberry]]'
p33
I37
sS'[[Cotton Shirt]]'
p34
I88
sS'[[Cream]]'
p35
I72
sS'[[Raspberry Jam]]'
p36
I84
sS'[[Cherry]]'
p37
I18
sS'[[Bread]]'
p38
I27
sS'[[Wheat]]'
p39
I83
sS'[[Casserole]]'
p40
I19
sS'[[Strawberry]]'
p41
I41
sS'[[Potato Feta Cake]]'
p42
I29
sS'[[Honeycomb]]'
p43
I67
sS'[[Indigo]]'
p44
I76
sS'[[Raspberry]]'
p45
I47
sS'[[Chocolate Cake]]'
p46
I86
sS'[[Spicy Pizza]]'
p47
I24
sS'[[Cacao]]'
p48
I82
sS'[[Woolly Chaps]]'
p49
I61
sS'[[Honey]]'
p50
I16
sS'[[Egg]]'
p51
I85
sS'[[Strawberry Cake]]'
p52
I39
sS'[[Potato]]'
p53
I65
sS'[[Fish Burger]]'
p54
I49
sS'[[White Sugar]]'
p55
I23
sS'[[Buttered Popcorn]]'
p56
I73
sS'[[Cream Cake]]'
p57
I9
sS'[[Soybean]]'
p58
I12
sS'[[Apple]]'
p59
I6
sS'[[Blue Woolly Hat]]'
p60
I14
sS'[[Goat Milk]]'
p61
I77
sS'[[Hamburger]]'
p62
I26
sS'[[Cherry Jam]]'
p63
I35
sS"[[Shepherd's Pie]]"
p64
I68
sS'[[Brown Sugar]]'
p65
I40
sS'[[Butter]]'
p66
I74
sS'[[Bacon Pie]]'
p67
I15
sS'[[Chili Pepper]]'
p68
I10
sS'[[Corn]]'
p69
I8
sS'[[Fish Fillet]]'
p70
I50
sS'[[Chili Popcorn]]'
p71
I78
sS'[[Bacon]]'
p72
I57
sS'[[Cotton Fabric]]'
p73
I25
sS'[[Pumpkin Pie]]'
p74
I13
sS'[[Honey Popcorn]]'
p75
I31
sS'[[Sugarcane]]'
p76
I30
sS'[[Cookie]]'
p77
I45
sS'[[Apple Juice]]'
p78
I71
sS'[[Pig Feed]]'
p79
I11
sS'[[Cotton]]'
p80
I81
sS'[[Feta Pie]]'
p81
I79
sS'[[Cheese]]'
p82
I64
sS'[[Chocolate Ice Cream]]'
p83
I7
sS'[[Chicken Feed]]'
p84
I54
sS'[[Corn Bread]]'
p85
I20
sS'[[Wool]]'
p86
I4
sS'[[Roasted Tomatoes]]'
p87
I34
sS'[[Berry Juice]]'
p88
I60
sS'[[Sweater]]'
p89
I2
sS'[[Blackberry Muffin]]'
p90
I80
sS'[[Cow Feed]]'
p91
I5
s.(dp0
S'[[Casserole]]'
p1
I2
sS'[[Strawberry Ice Cream]]'
p2
I0
sS'[[Honey]]'
p3
I1
sS'[[Blackberry]]'
p4
I4
sS'[[Egg]]'
p5
I5
sS'[[Tomato Juice]]'
p6
I4
sS'[[Pancake]]'
p7
I1
sS'[[Cream]]'
p8
I1
sS'[[Cherry]]'
p9
I5
sS'[[Bread]]'
p10
I3
sS'[[Syrup]]'
p11
I3
s.