(dp0
S'[[Pumpkin]]'
p1
I67
sS'[[Blackberry Jam]]'
p2
I79
sS'[[Violet Dress]]'
p3
I63
sS'[[Strawberry Ice Cream]]'
p4
I60
sS'[[Raspberry Muffin]]'
p5
I41
sS'[[Apple Pie]]'
p6
I32
sS'[[Tomato Juice]]'
p7
I36
sS'[[Blue Sweater]]'
p8
I45
sS'[[Carrot Cake]]'
p9
I9
sS'[[Vanilla Ice Cream]]'
p10
I39
sS'[[Lure]]'
p11
I34
sS'[[Carrot Pie]]'
p12
I13
sS'[[Tomato]]'
p13
I78
sS'[[Cherry Juice]]'
p14
I2
sS'[[Cheesecake]]'
p15
I28
sS'[[Fish Pie]]'
p16
I89
sS'[[Pancake]]'
p17
I82
sS'[[Popcorn]]'
p18
I84
sS'[[Goat Cheese]]'
p19
I87
sS'[[Potato Bread]]'
p20
I15
sS'[[Goat Feed]]'
p21
I50
sS'[[Red Berry Cake]]'
p22
I62
sS'[[Pizza]]'
p23
I53
sS'[[Syrup]]'
p24
I1
sS'[[Sheep Feed]]'
p25
I27
sS'[[Cherry Popsicle]]'
p26
I54
sS'[[Bacon and Eggs]]'
p27
I90
sS'[[Carrot Juice]]'
p28
I6
sS'[[Baked Potato]]'
p29
I23
sS'[[Milk]]'
p30
I22
sS'[[Apple Jam]]'
p31
I14
sS'[[Carrot]]'
p32
I30
sS'[[Blackberry]]'
p33
I51
sS'[[Cotton Shirt]]'
p34
I7
sS'[[Cream]]'
p35
I35
sS'[[Raspberry Jam]]'
p36
I46
sS'[[Cherry]]'
p37
I64
sS'[[Bread]]'
p38
I4
sS'[[Wheat]]'
p39
I81
sS'[[Casserole]]'
p40
I58
sS'[[Strawberry]]'
p41
I5
sS'[[Potato Feta Cake]]'
p42
I77
sS'[[Honeycomb]]'
p43
I72
sS'[[Indigo]]'
p44
I48
sS'[[Raspberry]]'
p45
I49
sS'[[Chocolate Cake]]'
p46
I59
sS'[[Spicy Pizza]]'
p47
I3
sS'[[Cacao]]'
p48
I44
sS'[[Woolly Chaps]]'
p49
I12
sS'[[Honey]]'
p50
I47
sS'[[Egg]]'
p51
I19
sS'[[Strawberry Cake]]'
p52
I17
sS'[[Potato]]'
p53
I88
sS'[[Fish Burger]]'
p54
I73
sS'[[White Sugar]]'
p55
I43
sS'[[Buttered Popcorn]]'
p56
I71
sS'[[Cream Cake]]'
p57
I29
sS'[[Soybean]]'
p58
I66
sS'[[Apple]]'
p59
I31
sS'[[Blue Woolly Hat]]'
p60
I52
sS'[[Goat Milk]]'
p61
I42
sS'[[Hamburger]]'
p62
I10
sS'[[Cherry Jam]]'
p63
I21
sS"[[Shepherd's Pie]]"
p64
I25
sS'[[Brown Sugar]]'
p65
I8
sS'[[Butter]]'
p66
I37
sS'[[Bacon Pie]]'
p67
I11
sS'[[Chili Pepper]]'
p68
I56
sS'[[Corn]]'
p69
I0
sS'[[Fish Fillet]]'
p70
I18
sS'[[Chili Popcorn]]'
p71
I38
sS'[[Bacon]]'
p72
I24
sS'[[Cotton Fabric]]'
p73
I85
sS'[[Pumpkin Pie]]'
p74
I61
sS'[[Honey Popcorn]]'
p75
I33
sS'[[Sugarcane]]'
p76
I80
sS'[[Cookie]]'
p77
I65
sS'[[Apple Juice]]'
p78
I26
sS'[[Pig Feed]]'
p79
I74
sS'[[Cotton]]'
p80
I40
sS'[[Feta Pie]]'
p81
I75
sS'[[Cheese]]'
p82
I70
sS'[[Chocolate Ice Cream]]'
p83
I68
sS'[[Chicken Feed]]'
p84
I16
sS'[[Corn Bread]]'
p85
I86
sS'[[Wool]]'
p86
I20
sS'[[Roasted Tomatoes]]'
p87
I69
sS'[[Berry Juice]]'
p88
I57
sS'[[Sweater]]'
p89
I76
sS'[[Blackberry Muffin]]'
p90
I83
sS'[[Cow Feed]]'
p91
I55
s.(dp0
S'[[Apple]]'
p1
I2
sS'[[Bread]]'
p2
I5
sS'[[Cheesecake]]'
p3
I1
sS'[[Goat Milk]]'
p4
I3
sS'[[Feta Pie]]'
p5
I3
sS'[[Tomato Juice]]'
p6
I3
sS'[[Blackberry Muffin]]'
p7
I0
sS'[[Vanilla Ice Cream]]'
p8
I4
sS'[[Cream]]'
p9
I1
sS'[[Berry Juice]]'
p10
I1
sS'[[Honeycomb]]'
p11
I2
s.