(dp0
S'[[Pumpkin]]'
p1
I79
sS'[[Blackberry Jam]]'
p2
I9
sS'[[Violet Dress]]'
p3
I47
sS'[[Strawberry Ice Cream]]'
p4
I74
sS'[[Raspberry Muffin]]'
p5
I76
sS'[[Apple Pie]]'
p6
I81
sS'[[Tomato Juice]]'
p7
I52
sS'[[Blue Sweater]]'
p8
I18
sS'[[Honey]]'
p9
I5
sS'[[Vanilla Ice Cream]]'
p10
I60
sS'[[Lure]]'
p11
I62
sS'[[Carrot Pie]]'
p12
I71
sS'[[Tomato]]'
p13
I12
sS'[[Potato]]'
p14
I34
sS'[[Cheesecake]]'
p15
I43
sS'[[Fish Pie]]'
p16
I75
sS'[[Pancake]]'
p17
I59
sS'[[Popcorn]]'
p18
I56
sS'[[Goat Cheese]]'
p19
I61
sS'[[Potato Bread]]'
p20
I8
sS'[[Goat Feed]]'
p21
I88
sS'[[Red Berry Cake]]'
p22
I84
sS'[[Pizza]]'
p23
I15
sS'[[Syrup]]'
p24
I89
sS'[[Sheep Feed]]'
p25
I65
sS'[[Cherry Popsicle]]'
p26
I73
sS'[[Bacon and Eggs]]'
p27
I24
sS'[[Carrot]]'
p28
I57
sS'[[Carrot Juice]]'
p29
I42
sS'[[Baked Potato]]'
p30
I58
sS'[[Milk]]'
p31
I48
sS'[[Apple Jam]]'
p32
I63
sS'[[Apple]]'
p33
I50
sS'[[Blackberry]]'
p34
I90
sS'[[Cotton Shirt]]'
p35
I83
sS'[[Cream]]'
p36
I21
sS'[[Raspberry Jam]]'
p37
I31
sS'[[Cherry]]'
p38
I66
sS'[[Bread]]'
p39
I3
sS'[[Wheat]]'
p40
I11
sS'[[Casserole]]'
p41
I16
sS'[[Strawberry]]'
p42
I22
sS'[[Potato Feta Cake]]'
p43
I77
sS'[[Honeycomb]]'
p44
I87
sS'[[Indigo]]'
p45
I26
sS'[[Raspberry]]'
p46
I30
sS'[[Chocolate Cake]]'
p47
I39
sS'[[Spicy Pizza]]'
p48
I14
sS'[[Cacao]]'
p49
I10
sS'[[Woolly Chaps]]'
p50
I55
sS'[[Carrot Cake]]'
p51
I82
sS'[[Egg]]'
p52
I20
sS'[[Strawberry Cake]]'
p53
I7
sS'[[Cherry Juice]]'
p54
I1
sS'[[Fish Burger]]'
p55
I68
sS'[[White Sugar]]'
p56
I80
sS'[[Buttered Popcorn]]'
p57
I2
sS'[[Cream Cake]]'
p58
I36
sS'[[Soybean]]'
p59
I49
sS'[[Brown Sugar]]'
p60
I0
sS'[[Blue Woolly Hat]]'
p61
I35
sS'[[Goat Milk]]'
p62
I13
sS'[[Hamburger]]'
p63
I6
sS'[[Cherry Jam]]'
p64
I86
sS"[[Shepherd's Pie]]"
p65
I72
sS'[[Butter]]'
p66
I78
sS'[[Bacon Pie]]'
p67
I28
sS'[[Chili Pepper]]'
p68
I46
sS'[[Corn]]'
p69
I27
sS'[[Fish Fillet]]'
p70
I38
sS'[[Chili Popcorn]]'
p71
I53
sS'[[Bacon]]'
p72
I41
sS'[[Cotton Fabric]]'
p73
I67
sS'[[Pumpkin Pie]]'
p74
I51
sS'[[Honey Popcorn]]'
p75
I4
sS'[[Sugarcane]]'
p76
I23
sS'[[Cookie]]'
p77
I29
sS'[[Apple Juice]]'
p78
I25
sS'[[Pig Feed]]'
p79
I64
sS'[[Cotton]]'
p80
I37
sS'[[Feta Pie]]'
p81
I19
sS'[[Cheese]]'
p82
I32
sS'[[Chocolate Ice Cream]]'
p83
I70
sS'[[Chicken Feed]]'
p84
I54
sS'[[Corn Bread]]'
p85
I85
sS'[[Wool]]'
p86
I69
sS'[[Roasted Tomatoes]]'
p87
I40
sS'[[Berry Juice]]'
p88
I45
sS'[[Sweater]]'
p89
I17
sS'[[Blackberry Muffin]]'
p90
I44
sS'[[Cow Feed]]'
p91
I33
s.(dp0
S'[[Wheat]]'
p1
I1
sS'[[Tomato]]'
p2
I5
sS'[[Pig Feed]]'
p3
I0
sS'[[Cacao]]'
p4
I5
sS'[[Corn Bread]]'
p5
I2
sS'[[Cookie]]'
p6
I5
sS'[[Carrot Juice]]'
p7
I5
sS'[[Wool]]'
p8
I4
sS'[[Bacon]]'
p9
I2
sS'[[Cream Cake]]'
p10
I3
sS'[[Chicken Feed]]'
p11
I0
s.