(dp0
S'[[Pumpkin]]'
p1
I57
sS'[[Blackberry Jam]]'
p2
I35
sS'[[Violet Dress]]'
p3
I54
sS'[[Strawberry Ice Cream]]'
p4
I13
sS'[[Raspberry Muffin]]'
p5
I87
sS'[[Apple Pie]]'
p6
I49
sS'[[Tomato Juice]]'
p7
I33
sS'[[Carrot Cake]]'
p8
I65
sS'[[Vanilla Ice Cream]]'
p9
I58
sS'[[Lure]]'
p10
I47
sS'[[Carrot Pie]]'
p11
I26
sS'[[Tomato]]'
p12
I41
sS'[[Cherry Juice]]'
p13
I81
sS'[[Cheesecake]]'
p14
I82
sS'[[Fish Pie]]'
p15
I27
sS'[[Pancake]]'
p16
I12
sS'[[Popcorn]]'
p17
I48
sS'[[Goat Cheese]]'
p18
I44
sS'[[Potato Bread]]'
p19
I10
sS'[[Goat Feed]]'
p20
I72
sS'[[Red Berry Cake]]'
p21
I30
sS'[[Pizza]]'
p22
I62
sS'[[Syrup]]'
p23
I66
sS'[[Sheep Feed]]'
p24
I90
sS'[[Cherry Popsicle]]'
p25
I14
sS'[[Bacon and Eggs]]'
p26
I60
sS'[[Carrot]]'
p27
I1
sS'[[Carrot Juice]]'
p28
I52
sS'[[Baked Potato]]'
p29
I8
sS'[[Milk]]'
p30
I45
sS'[[Apple Jam]]'
p31
I29
sS'[[Apple]]'
p32
I16
sS'[[Blackberry]]'
p33
I84
sS'[[Cotton Shirt]]'
p34
I3
sS'[[Cream]]'
p35
I2
sS'[[Raspberry Jam]]'
p36
I20
sS'[[Cherry]]'
p37
I88
sS'[[Bread]]'
p38
I21
sS'[[Wheat]]'
p39
I5
sS'[[Casserole]]'
p40
I4
sS'[[Chili Pepper]]'
p41
I53
sS'[[Honey Popcorn]]'
p42
I43
sS'[[Honeycomb]]'
p43
I7
sS'[[Indigo]]'
p44
I86
sS'[[Raspberry]]'
p45
I59
sS'[[Chocolate Cake]]'
p46
I46
sS'[[Spicy Pizza]]'
p47
I67
sS'[[Cacao]]'
p48
I39
sS'[[Woolly Chaps]]'
p49
I36
sS'[[Honey]]'
p50
I40
sS'[[Egg]]'
p51
I32
sS'[[Strawberry Cake]]'
p52
I38
sS'[[Potato]]'
p53
I22
sS'[[Fish Burger]]'
p54
I75
sS'[[White Sugar]]'
p55
I34
sS'[[Buttered Popcorn]]'
p56
I17
sS'[[Cream Cake]]'
p57
I56
sS'[[Soybean]]'
p58
I76
sS'[[Brown Sugar]]'
p59
I74
sS'[[Blue Woolly Hat]]'
p60
I85
sS'[[Goat Milk]]'
p61
I73
sS'[[Hamburger]]'
p62
I25
sS'[[Cherry Jam]]'
p63
I70
sS"[[Shepherd's Pie]]"
p64
I19
sS'[[Butter]]'
p65
I51
sS'[[Bacon Pie]]'
p66
I11
sS'[[Strawberry]]'
p67
I80
sS'[[Pumpkin Pie]]'
p68
I83
sS'[[Corn]]'
p69
I63
sS'[[Fish Fillet]]'
p70
I23
sS'[[Chili Popcorn]]'
p71
I78
sS'[[Bacon]]'
p72
I71
sS'[[Cotton Fabric]]'
p73
I28
sS'[[Blue Sweater]]'
p74
I68
sS'[[Potato Feta Cake]]'
p75
I55
sS'[[Sugarcane]]'
p76
I61
sS'[[Cookie]]'
p77
I50
sS'[[Apple Juice]]'
p78
I89
sS'[[Pig Feed]]'
p79
I79
sS'[[Cotton]]'
p80
I64
sS'[[Feta Pie]]'
p81
I31
sS'[[Cheese]]'
p82
I24
sS'[[Chocolate Ice Cream]]'
p83
I69
sS'[[Chicken Feed]]'
p84
I18
sS'[[Corn Bread]]'
p85
I0
sS'[[Wool]]'
p86
I15
sS'[[Roasted Tomatoes]]'
p87
I9
sS'[[Berry Juice]]'
p88
I37
sS'[[Sweater]]'
p89
I77
sS'[[Blackberry Muffin]]'
p90
I42
sS'[[Cow Feed]]'
p91
I6
s.(dp0
S'[[Blue Sweater]]'
p1
I4
sS'[[Apple Pie]]'
p2
I5
sS'[[Roasted Tomatoes]]'
p3
I2
sS'[[Brown Sugar]]'
p4
I5
sS'[[Honey]]'
p5
I1
sS'[[Blackberry Jam]]'
p6
I4
sS'[[Cherry Juice]]'
p7
I3
sS'[[Carrot]]'
p8
I3
sS'[[Sugarcane]]'
p9
I0
sS'[[Violet Dress]]'
p10
I5
sS'[[Pumpkin]]'
p11
I2
s.