(dp0
S'[[Pumpkin]]'
p1
I81
sS'[[Blackberry Jam]]'
p2
I0
sS'[[Violet Dress]]'
p3
I14
sS'[[Strawberry Ice Cream]]'
p4
I71
sS'[[Raspberry Muffin]]'
p5
I63
sS'[[Apple Pie]]'
p6
I2
sS'[[Tomato Juice]]'
p7
I57
sS'[[Honey]]'
p8
I84
sS'[[Vanilla Ice Cream]]'
p9
I72
sS'[[Lure]]'
p10
I7
sS'[[Carrot Pie]]'
p11
I56
sS'[[Tomato]]'
p12
I38
sS'[[Potato]]'
p13
I67
sS'[[Cheesecake]]'
p14
I82
sS'[[Fish Pie]]'
p15
I79
sS'[[Pancake]]'
p16
I68
sS'[[Popcorn]]'
p17
I55
sS'[[Goat Cheese]]'
p18
I1
sS'[[Potato Bread]]'
p19
I4
sS'[[Goat Feed]]'
p20
I3
sS'[[Red Berry Cake]]'
p21
I42
sS'[[Pizza]]'
p22
I53
sS'[[Syrup]]'
p23
I28
sS'[[Sheep Feed]]'
p24
I70
sS'[[Cherry Popsicle]]'
p25
I69
sS'[[Bacon and Eggs]]'
p26
I21
sS'[[Carrot Juice]]'
p27
I45
sS'[[Baked Potato]]'
p28
I26
sS'[[Milk]]'
p29
I49
sS'[[Apple Jam]]'
p30
I30
sS'[[Carrot]]'
p31
I20
sS'[[Blackberry]]'
p32
I75
sS'[[Cotton Shirt]]'
p33
I76
sS'[[Cream]]'
p34
I18
sS'[[Raspberry Jam]]'
p35
I19
sS'[[Cherry]]'
p36
I74
sS'[[Bread]]'
p37
I37
sS'[[Wheat]]'
p38
I48
sS'[[Casserole]]'
p39
I80
sS'[[Chili Pepper]]'
p40
I90
sS'[[Honey Popcorn]]'
p41
I36
sS'[[Honeycomb]]'
p42
I73
sS'[[Indigo]]'
p43
I9
sS'[[Raspberry]]'
p44
I39
sS'[[Chocolate Cake]]'
p45
I5
sS'[[Spicy Pizza]]'
p46
I34
sS'[[Cacao]]'
p47
I15
sS'[[Woolly Chaps]]'
p48
I25
sS'[[Carrot Cake]]'
p49
I32
sS'[[Egg]]'
p50
I47
sS'[[Strawberry Cake]]'
p51
I6
sS'[[Cherry Juice]]'
p52
I43
sS'[[Fish Burger]]'
p53
I16
sS'[[White Sugar]]'
p54
I60
sS'[[Buttered Popcorn]]'
p55
I11
sS'[[Cream Cake]]'
p56
I50
sS'[[Soybean]]'
p57
I27
sS'[[Apple]]'
p58
I24
sS'[[Blue Woolly Hat]]'
p59
I40
sS'[[Goat Milk]]'
p60
I66
sS'[[Hamburger]]'
p61
I78
sS'[[Cherry Jam]]'
p62
I51
sS"[[Shepherd's Pie]]"
p63
I77
sS'[[Brown Sugar]]'
p64
I35
sS'[[Butter]]'
p65
I22
sS'[[Bacon Pie]]'
p66
I54
sS'[[Strawberry]]'
p67
I10
sS'[[Pumpkin Pie]]'
p68
I44
sS'[[Corn]]'
p69
I59
sS'[[Fish Fillet]]'
p70
I89
sS'[[Chili Popcorn]]'
p71
I88
sS'[[Bacon]]'
p72
I13
sS'[[Cotton Fabric]]'
p73
I85
sS'[[Blue Sweater]]'
p74
I65
sS'[[Potato Feta Cake]]'
p75
I46
sS'[[Sugarcane]]'
p76
I61
sS'[[Cookie]]'
p77
I8
sS'[[Apple Juice]]'
p78
I86
sS'[[Pig Feed]]'
p79
I58
sS'[[Cotton]]'
p80
I52
sS'[[Feta Pie]]'
p81
I62
sS'[[Cheese]]'
p82
I29
sS'[[Chocolate Ice Cream]]'
p83
I83
sS'[[Chicken Feed]]'
p84
I64
sS'[[Corn Bread]]'
p85
I23
sS'[[Wool]]'
p86
I87
sS'[[Roasted Tomatoes]]'
p87
I33
sS'[[Berry Juice]]'
p88
I17
sS'[[Sweater]]'
p89
I31
sS'[[Blackberry Muffin]]'
p90
I12
sS'[[Cow Feed]]'
p91
I41
s.(dp0
S'[[Raspberry Muffin]]'
p1
I4
sS'[[Carrot]]'
p2
I1
sS'[[Red Berry Cake]]'
p3
I1
sS'[[Chili Popcorn]]'
p4
I2
sS'[[Tomato Juice]]'
p5
I3
sS'[[Syrup]]'
p6
I5
sS'[[Sugarcane]]'
p7
I0
sS'[[Blackberry]]'
p8
I4
sS'[[Cotton Fabric]]'
p9
I0
sS'[[Pizza]]'
p10
I0
sS'[[Violet Dress]]'
p11
I0
s.