(dp0
S'[[Goat Milk]]'
p1
I2
sS'[[Cacao]]'
p2
I89
sS'[[Woolly Chaps]]'
p3
I87
sS'[[Honey]]'
p4
I69
sS'[[Blackberry Jam]]'
p5
I49
sS'[[Strawberry Cake]]'
p6
I85
sS'[[Potato]]'
p7
I40
sS'[[Fish Burger]]'
p8
I12
sS'[[White Sugar]]'
p9
I9
sS'[[Buttered Popcorn]]'
p10
I41
sS'[[Cream Cake]]'
p11
I67
sS'[[Violet Dress]]'
p12
I31
sS'[[Soybean]]'
p13
I74
sS'[[Apple]]'
p14
I84
sS'[[Strawberry Ice Cream]]'
p15
I70
sS'[[Raspberry Muffin]]'
p16
I83
sS'[[Blue Woolly Hat]]'
p17
I86
sS'[[Apple Pie]]'
p18
I34
sS'[[Hamburger]]'
p19
I22
sS'[[Tomato Juice]]'
p20
I35
sS'[[Cherry Jam]]'
p21
I88
sS'[[Vanilla Ice Cream]]'
p22
I64
sS'[[Lure]]'
p23
I43
sS'[[Carrot Pie]]'
p24
I6
sS"[[Shepherd's Pie]]"
p25
I19
sS'[[Cheese]]'
p26
I76
sS'[[Tomato]]'
p27
I68
sS'[[Cherry Juice]]'
p28
I48
sS'[[Cheesecake]]'
p29
I50
sS'[[Fish Pie]]'
p30
I77
sS'[[Brown Sugar]]'
p31
I26
sS'[[Butter]]'
p32
I4
sS'[[Pancake]]'
p33
I53
sS'[[Bacon Pie]]'
p34
I90
sS'[[Chili Pepper]]'
p35
I65
sS'[[Pumpkin Pie]]'
p36
I29
sS'[[Corn]]'
p37
I56
sS'[[Popcorn]]'
p38
I60
sS'[[Fish Fillet]]'
p39
I81
sS'[[Egg]]'
p40
I59
sS'[[Chili Popcorn]]'
p41
I51
sS'[[Goat Cheese]]'
p42
I28
sS'[[Bacon]]'
p43
I37
sS'[[Cotton Fabric]]'
p44
I44
sS'[[Potato Bread]]'
p45
I32
sS'[[Carrot Cake]]'
p46
I15
sS'[[Blue Sweater]]'
p47
I20
sS'[[Honey Popcorn]]'
p48
I58
sS'[[Wool]]'
p49
I61
sS'[[Red Berry Cake]]'
p50
I13
sS'[[Cookie]]'
p51
I38
sS'[[Pizza]]'
p52
I45
sS'[[Syrup]]'
p53
I8
sS'[[Pig Feed]]'
p54
I30
sS'[[Sheep Feed]]'
p55
I78
sS'[[Apple Juice]]'
p56
I73
sS'[[Cherry Popsicle]]'
p57
I39
sS'[[Bacon and Eggs]]'
p58
I10
sS'[[Cotton]]'
p59
I55
sS'[[Feta Pie]]'
p60
I0
sS'[[Carrot Juice]]'
p61
I66
sS'[[Baked Potato]]'
p62
I71
sS'[[Milk]]'
p63
I25
sS'[[Chocolate Ice Cream]]'
p64
I17
sS'[[Berry Juice]]'
p65
I14
sS'[[Apple Jam]]'
p66
I5
sS'[[Chicken Feed]]'
p67
I42
sS'[[Pumpkin]]'
p68
I7
sS'[[Carrot]]'
p69
I18
sS'[[Blackberry]]'
p70
I57
sS'[[Corn Bread]]'
p71
I80
sS'[[Cotton Shirt]]'
p72
I1
sS'[[Cream]]'
p73
I33
sS'[[Raspberry Jam]]'
p74
I72
sS'[[Cherry]]'
p75
I11
sS'[[Bread]]'
p76
I63
sS'[[Wheat]]'
p77
I24
sS'[[Casserole]]'
p78
I16
sS'[[Strawberry]]'
p79
I36
sS'[[Roasted Tomatoes]]'
p80
I27
sS'[[Potato Feta Cake]]'
p81
I46
sS'[[Sugarcane]]'
p82
I3
sS'[[Honeycomb]]'
p83
I52
sS'[[Indigo]]'
p84
I54
sS'[[Raspberry]]'
p85
I23
sS'[[Goat Feed]]'
p86
I62
sS'[[Sweater]]'
p87
I75
sS'[[Blackberry Muffin]]'
p88
I47
sS'[[Chocolate Cake]]'
p89
I82
sS'[[Cow Feed]]'
p90
I79
sS'[[Spicy Pizza]]'
p91
I21
s.(dp0
S'[[Indigo]]'
p1
I3
sS'[[Apple]]'
p2
I0
sS'[[Cherry Popsicle]]'
p3
I5
sS'[[Cream Cake]]'
p4
I5
sS"[[Shepherd's Pie]]"
p5
I0
sS'[[Syrup]]'
p6
I3
s.