(dp0
S'[[Pumpkin]]'
p1
I64
sS'[[Blackberry Jam]]'
p2
I80
sS'[[Violet Dress]]'
p3
I50
sS'[[Strawberry Ice Cream]]'
p4
I73
sS'[[Raspberry Muffin]]'
p5
I1
sS'[[Apple Pie]]'
p6
I30
sS'[[Tomato Juice]]'
p7
I15
sS'[[Honey]]'
p8
I32
sS'[[Vanilla Ice Cream]]'
p9
I5
sS'[[Lure]]'
p10
I44
sS'[[Carrot Pie]]'
p11
I63
sS'[[Tomato]]'
p12
I18
sS'[[Potato]]'
p13
I59
sS'[[Cheesecake]]'
p14
I35
sS'[[Fish Pie]]'
p15
I75
sS'[[Pancake]]'
p16
I7
sS'[[Popcorn]]'
p17
I69
sS'[[Goat Cheese]]'
p18
I24
sS'[[Potato Bread]]'
p19
I8
sS'[[Goat Feed]]'
p20
I61
sS'[[Red Berry Cake]]'
p21
I41
sS'[[Pizza]]'
p22
I13
sS'[[Syrup]]'
p23
I17
sS'[[Sheep Feed]]'
p24
I81
sS'[[Cherry Popsicle]]'
p25
I26
sS'[[Bacon and Eggs]]'
p26
I21
sS'[[Carrot]]'
p27
I14
sS'[[Carrot Juice]]'
p28
I10
sS'[[Baked Potato]]'
p29
I33
sS'[[Milk]]'
p30
I43
sS'[[Apple Jam]]'
p31
I29
sS'[[Apple]]'
p32
I71
sS'[[Blackberry]]'
p33
I45
sS'[[Cotton Shirt]]'
p34
I54
sS'[[Cream]]'
p35
I31
sS'[[Raspberry Jam]]'
p36
I72
sS'[[Cherry]]'
p37
I4
sS'[[Bread]]'
p38
I27
sS'[[Wheat]]'
p39
I28
sS'[[Casserole]]'
p40
I90
sS'[[Chili Pepper]]'
p41
I74
sS'[[Potato Feta Cake]]'
p42
I87
sS'[[Honeycomb]]'
p43
I78
sS'[[Indigo]]'
p44
I39
sS'[[Raspberry]]'
p45
I9
sS'[[Chocolate Cake]]'
p46
I82
sS'[[Spicy Pizza]]'
p47
I49
sS'[[Cacao]]'
p48
I58
sS'[[Woolly Chaps]]'
p49
I67
sS'[[Carrot Cake]]'
p50
I16
sS'[[Egg]]'
p51
I56
sS'[[Strawberry Cake]]'
p52
I60
sS'[[Cherry Juice]]'
p53
I47
sS'[[Fish Burger]]'
p54
I46
sS'[[White Sugar]]'
p55
I57
sS'[[Buttered Popcorn]]'
p56
I55
sS'[[Cream Cake]]'
p57
I88
sS'[[Soybean]]'
p58
I66
sS'[[Brown Sugar]]'
p59
I85
sS'[[Blue Woolly Hat]]'
p60
I65
sS'[[Goat Milk]]'
p61
I19
sS'[[Hamburger]]'
p62
I22
sS'[[Cherry Jam]]'
p63
I53
sS"[[Shepherd's Pie]]"
p64
I38
sS'[[Butter]]'
p65
I68
sS'[[Bacon Pie]]'
p66
I76
sS'[[Strawberry]]'
p67
I36
sS'[[Pumpkin Pie]]'
p68
I34
sS'[[Corn]]'
p69
I40
sS'[[Fish Fillet]]'
p70
I42
sS'[[Chili Popcorn]]'
p71
I23
sS'[[Bacon]]'
p72
I51
sS'[[Cotton Fabric]]'
p73
I77
sS'[[Blue Sweater]]'
p74
I48
sS'[[Honey Popcorn]]'
p75
I12
sS'[[Sugarcane]]'
p76
I83
sS'[[Cookie]]'
p77
I86
sS'[[Apple Juice]]'
p78
I2
sS'[[Pig Feed]]'
p79
I11
sS'[[Cotton]]'
p80
I37
sS'[[Feta Pie]]'
p81
I0
sS'[[Cheese]]'
p82
I52
sS'[[Chocolate Ice Cream]]'
p83
I6
sS'[[Chicken Feed]]'
p84
I20
sS'[[Corn Bread]]'
p85
I70
sS'[[Wool]]'
p86
I84
sS'[[Roasted Tomatoes]]'
p87
I62
sS'[[Berry Juice]]'
p88
I89
sS'[[Sweater]]'
p89
I3
sS'[[Blackberry Muffin]]'
p90
I79
sS'[[Cow Feed]]'
p91
I25
s.(dp0
S'[[Apple]]'
p1
I3
sS'[[Casserole]]'
p2
I0
sS'[[Cacao]]'
p3
I5
sS'[[Woolly Chaps]]'
p4
I3
sS'[[Feta Pie]]'
p5
I1
sS'[[Chili Popcorn]]'
p6
I4
sS'[[Indigo]]'
p7
I5
sS'[[Raspberry]]'
p8
I0
sS'[[Lure]]'
p9
I1
sS'[[Raspberry Jam]]'
p10
I1
sS'[[Goat Feed]]'
p11
I1
s.