(dp0
S'[[Pumpkin]]'
p1
I42
sS'[[Blackberry Jam]]'
p2
I68
sS'[[Violet Dress]]'
p3
I14
sS'[[Strawberry Ice Cream]]'
p4
I24
sS'[[Raspberry Muffin]]'
p5
I29
sS'[[Apple Pie]]'
p6
I18
sS'[[Tomato Juice]]'
p7
I2
sS'[[Honey]]'
p8
I57
sS'[[Vanilla Ice Cream]]'
p9
I59
sS'[[Lure]]'
p10
I28
sS'[[Carrot Pie]]'
p11
I38
sS'[[Tomato]]'
p12
I15
sS'[[Potato]]'
p13
I71
sS'[[Cheesecake]]'
p14
I61
sS'[[Fish Pie]]'
p15
I58
sS'[[Pancake]]'
p16
I48
sS'[[Popcorn]]'
p17
I77
sS'[[Goat Cheese]]'
p18
I46
sS'[[Potato Bread]]'
p19
I20
sS'[[Goat Feed]]'
p20
I4
sS'[[Red Berry Cake]]'
p21
I12
sS'[[Pizza]]'
p22
I75
sS'[[Syrup]]'
p23
I39
sS'[[Sheep Feed]]'
p24
I72
sS'[[Cherry Popsicle]]'
p25
I88
sS'[[Bacon and Eggs]]'
p26
I81
sS'[[Carrot]]'
p27
I82
sS'[[Carrot Juice]]'
p28
I35
sS'[[Baked Potato]]'
p29
I87
sS'[[Milk]]'
p30
I54
sS'[[Apple Jam]]'
p31
I22
sS'[[Apple]]'
p32
I53
sS'[[Blackberry]]'
p33
I85
sS'[[Cotton Shirt]]'
p34
I76
sS'[[Cream]]'
p35
I89
sS'[[Raspberry Jam]]'
p36
I36
sS'[[Cherry]]'
p37
I13
sS'[[Bread]]'
p38
I16
sS'[[Wheat]]'
p39
I47
sS'[[Casserole]]'
p40
I62
sS'[[Chili Pepper]]'
p41
I74
sS'[[Potato Feta Cake]]'
p42
I23
sS'[[Honeycomb]]'
p43
I43
sS'[[Indigo]]'
p44
I5
sS'[[Raspberry]]'
p45
I34
sS'[[Chocolate Cake]]'
p46
I63
sS'[[Spicy Pizza]]'
p47
I6
sS'[[Cacao]]'
p48
I7
sS'[[Woolly Chaps]]'
p49
I50
sS'[[Carrot Cake]]'
p50
I17
sS'[[Egg]]'
p51
I8
sS'[[Strawberry Cake]]'
p52
I66
sS'[[Cherry Juice]]'
p53
I73
sS'[[Fish Burger]]'
p54
I3
sS'[[White Sugar]]'
p55
I37
sS'[[Buttered Popcorn]]'
p56
I86
sS'[[Cream Cake]]'
p57
I67
sS'[[Soybean]]'
p58
I27
sS'[[Brown Sugar]]'
p59
I52
sS'[[Blue Woolly Hat]]'
p60
I83
sS'[[Goat Milk]]'
p61
I19
sS'[[Hamburger]]'
p62
I70
sS'[[Cherry Jam]]'
p63
I79
sS"[[Shepherd's Pie]]"
p64
I65
sS'[[Butter]]'
p65
I44
sS'[[Bacon Pie]]'
p66
I45
sS'[[Strawberry]]'
p67
I80
sS'[[Pumpkin Pie]]'
p68
I26
sS'[[Corn]]'
p69
I25
sS'[[Fish Fillet]]'
p70
I55
sS'[[Chili Popcorn]]'
p71
I56
sS'[[Bacon]]'
p72
I41
sS'[[Cotton Fabric]]'
p73
I78
sS'[[Blue Sweater]]'
p74
I84
sS'[[Honey Popcorn]]'
p75
I10
sS'[[Sugarcane]]'
p76
I0
sS'[[Cookie]]'
p77
I69
sS'[[Apple Juice]]'
p78
I21
sS'[[Pig Feed]]'
p79
I64
sS'[[Cotton]]'
p80
I60
sS'[[Feta Pie]]'
p81
I31
sS'[[Cheese]]'
p82
I33
sS'[[Chocolate Ice Cream]]'
p83
I90
sS'[[Chicken Feed]]'
p84
I11
sS'[[Corn Bread]]'
p85
I30
sS'[[Wool]]'
p86
I49
sS'[[Roasted Tomatoes]]'
p87
I1
sS'[[Berry Juice]]'
p88
I51
sS'[[Sweater]]'
p89
I9
sS'[[Blackberry Muffin]]'
p90
I40
sS'[[Cow Feed]]'
p91
I32
s.(dp0
S'[[Cherry Juice]]'
p1
I1
sS'[[Raspberry Muffin]]'
p2
I3
sS'[[Carrot Cake]]'
p3
I1
sS'[[Blackberry Jam]]'
p4
I2
sS'[[Strawberry Cake]]'
p5
I3
sS'[[Potato]]'
p6
I5
sS'[[Egg]]'
p7
I4
sS'[[White Sugar]]'
p8
I5
sS'[[Berry Juice]]'
p9
I4
sS'[[Fish Burger]]'
p10
I1
sS'[[Bacon]]'
p11
I4
s.