(dp0
S'[[Pumpkin]]'
p1
I53
sS'[[Blackberry Jam]]'
p2
I73
sS'[[Violet Dress]]'
p3
I56
sS'[[Strawberry Ice Cream]]'
p4
I31
sS'[[Raspberry Muffin]]'
p5
I35
sS'[[Apple Pie]]'
p6
I44
sS'[[Tomato Juice]]'
p7
I66
sS'[[Blue Sweater]]'
p8
I2
sS'[[Honey]]'
p9
I8
sS'[[Vanilla Ice Cream]]'
p10
I85
sS'[[Lure]]'
p11
I37
sS'[[Carrot Pie]]'
p12
I78
sS'[[Tomato]]'
p13
I82
sS'[[Potato]]'
p14
I38
sS'[[Cheesecake]]'
p15
I47
sS'[[Fish Pie]]'
p16
I63
sS'[[Pancake]]'
p17
I18
sS'[[Popcorn]]'
p18
I88
sS'[[Goat Cheese]]'
p19
I70
sS'[[Potato Bread]]'
p20
I46
sS'[[Goat Feed]]'
p21
I9
sS'[[Red Berry Cake]]'
p22
I7
sS'[[Pizza]]'
p23
I11
sS'[[Syrup]]'
p24
I10
sS'[[Sheep Feed]]'
p25
I40
sS'[[Cherry Popsicle]]'
p26
I68
sS'[[Bacon and Eggs]]'
p27
I49
sS'[[Carrot]]'
p28
I17
sS'[[Carrot Juice]]'
p29
I28
sS'[[Baked Potato]]'
p30
I6
sS'[[Milk]]'
p31
I81
sS'[[Apple Jam]]'
p32
I52
sS'[[Apple]]'
p33
I51
sS'[[Blackberry]]'
p34
I33
sS'[[Cotton Shirt]]'
p35
I0
sS'[[Cream]]'
p36
I29
sS'[[Raspberry Jam]]'
p37
I87
sS'[[Cherry]]'
p38
I50
sS'[[Bread]]'
p39
I41
sS'[[Wheat]]'
p40
I84
sS'[[Casserole]]'
p41
I30
sS'[[Strawberry]]'
p42
I15
sS'[[Potato Feta Cake]]'
p43
I83
sS'[[Honeycomb]]'
p44
I64
sS'[[Indigo]]'
p45
I65
sS'[[Raspberry]]'
p46
I67
sS'[[Chocolate Cake]]'
p47
I32
sS'[[Spicy Pizza]]'
p48
I54
sS'[[Cacao]]'
p49
I36
sS'[[Woolly Chaps]]'
p50
I24
sS'[[Carrot Cake]]'
p51
I59
sS'[[Egg]]'
p52
I42
sS'[[Strawberry Cake]]'
p53
I13
sS'[[Cherry Juice]]'
p54
I75
sS'[[Fish Burger]]'
p55
I23
sS'[[White Sugar]]'
p56
I39
sS'[[Buttered Popcorn]]'
p57
I79
sS'[[Cream Cake]]'
p58
I72
sS'[[Soybean]]'
p59
I5
sS'[[Brown Sugar]]'
p60
I74
sS'[[Blue Woolly Hat]]'
p61
I57
sS'[[Goat Milk]]'
p62
I58
sS'[[Hamburger]]'
p63
I69
sS'[[Cherry Jam]]'
p64
I20
sS"[[Shepherd's Pie]]"
p65
I1
sS'[[Butter]]'
p66
I25
sS'[[Bacon Pie]]'
p67
I86
sS'[[Chili Pepper]]'
p68
I77
sS'[[Corn]]'
p69
I48
sS'[[Fish Fillet]]'
p70
I22
sS'[[Chili Popcorn]]'
p71
I19
sS'[[Bacon]]'
p72
I16
sS'[[Cotton Fabric]]'
p73
I45
sS'[[Pumpkin Pie]]'
p74
I4
sS'[[Honey Popcorn]]'
p75
I43
sS'[[Sugarcane]]'
p76
I27
sS'[[Cookie]]'
p77
I21
sS'[[Apple Juice]]'
p78
I80
sS'[[Pig Feed]]'
p79
I90
sS'[[Cotton]]'
p80
I55
sS'[[Feta Pie]]'
p81
I26
sS'[[Cheese]]'
p82
I61
sS'[[Chocolate Ice Cream]]'
p83
I89
sS'[[Chicken Feed]]'
p84
I62
sS'[[Corn Bread]]'
p85
I76
sS'[[Wool]]'
p86
I14
sS'[[Roasted Tomatoes]]'
p87
I60
sS'[[Berry Juice]]'
p88
I3
sS'[[Sweater]]'
p89
I34
sS'[[Blackberry Muffin]]'
p90
I71
sS'[[Cow Feed]]'
p91
I12
s.(dp0
S'[[Blue Sweater]]'
p1
I3
sS'[[Casserole]]'
p2
I2
sS'[[Woolly Chaps]]'
p3
I4
sS'[[Egg]]'
p4
I2
sS'[[Apple Pie]]'
p5
I0
sS'[[Hamburger]]'
p6
I0
sS'[[Brown Sugar]]'
p7
I0
sS'[[Tomato Juice]]'
p8
I1
sS'[[Wool]]'
p9
I0
sS'[[Sweater]]'
p10
I1
sS'[[Cream Cake]]'
p11
I2
s.