(dp0
S'[[Pumpkin]]'
p1
I70
sS'[[Blackberry Jam]]'
p2
I74
sS'[[Violet Dress]]'
p3
I5
sS'[[Strawberry Ice Cream]]'
p4
I6
sS'[[Raspberry Muffin]]'
p5
I61
sS'[[Apple Pie]]'
p6
I83
sS'[[Tomato Juice]]'
p7
I79
sS'[[Carrot Cake]]'
p8
I39
sS'[[Vanilla Ice Cream]]'
p9
I26
sS'[[Lure]]'
p10
I40
sS'[[Carrot Pie]]'
p11
I85
sS'[[Tomato]]'
p12
I80
sS'[[Cherry Juice]]'
p13
I51
sS'[[Cheesecake]]'
p14
I38
sS'[[Fish Pie]]'
p15
I53
sS'[[Pancake]]'
p16
I31
sS'[[Popcorn]]'
p17
I8
sS'[[Goat Cheese]]'
p18
I58
sS'[[Potato Bread]]'
p19
I49
sS'[[Goat Feed]]'
p20
I78
sS'[[Red Berry Cake]]'
p21
I52
sS'[[Pizza]]'
p22
I11
sS'[[Syrup]]'
p23
I10
sS'[[Sheep Feed]]'
p24
I21
sS'[[Cherry Popsicle]]'
p25
I9
sS'[[Bacon and Eggs]]'
p26
I32
sS'[[Carrot]]'
p27
I7
sS'[[Carrot Juice]]'
p28
I46
sS'[[Baked Potato]]'
p29
I36
sS'[[Milk]]'
p30
I18
sS'[[Apple Jam]]'
p31
I17
sS'[[Apple]]'
p32
I54
sS'[[Blackberry]]'
p33
I43
sS'[[Cotton Shirt]]'
p34
I3
sS'[[Cream]]'
p35
I27
sS'[[Raspberry Jam]]'
p36
I69
sS'[[Cherry]]'
p37
I41
sS'[[Bread]]'
p38
I20
sS'[[Wheat]]'
p39
I76
sS'[[Casserole]]'
p40
I88
sS'[[Chili Pepper]]'
p41
I73
sS'[[Honey Popcorn]]'
p42
I68
sS'[[Honeycomb]]'
p43
I66
sS'[[Indigo]]'
p44
I48
sS'[[Raspberry]]'
p45
I34
sS'[[Chocolate Cake]]'
p46
I35
sS'[[Spicy Pizza]]'
p47
I30
sS'[[Cacao]]'
p48
I75
sS'[[Woolly Chaps]]'
p49
I84
sS'[[Honey]]'
p50
I25
sS'[[Egg]]'
p51
I90
sS'[[Strawberry Cake]]'
p52
I64
sS'[[Potato]]'
p53
I12
sS'[[Fish Burger]]'
p54
I65
sS'[[White Sugar]]'
p55
I19
sS'[[Buttered Popcorn]]'
p56
I55
sS'[[Cream Cake]]'
p57
I23
sS'[[Soybean]]'
p58
I15
sS'[[Brown Sugar]]'
p59
I77
sS'[[Blue Woolly Hat]]'
p60
I60
sS'[[Goat Milk]]'
p61
I82
sS'[[Hamburger]]'
p62
I56
sS'[[Cherry Jam]]'
p63
I42
sS"[[Shepherd's Pie]]"
p64
I63
sS'[[Butter]]'
p65
I2
sS'[[Bacon Pie]]'
p66
I33
sS'[[Strawberry]]'
p67
I47
sS'[[Pumpkin Pie]]'
p68
I67
sS'[[Corn]]'
p69
I24
sS'[[Fish Fillet]]'
p70
I29
sS'[[Chili Popcorn]]'
p71
I13
sS'[[Bacon]]'
p72
I14
sS'[[Cotton Fabric]]'
p73
I4
sS'[[Blue Sweater]]'
p74
I16
sS'[[Potato Feta Cake]]'
p75
I0
sS'[[Sugarcane]]'
p76
I71
sS'[[Cookie]]'
p77
I1
sS'[[Apple Juice]]'
p78
I81
sS'[[Pig Feed]]'
p79
I44
sS'[[Cotton]]'
p80
I72
sS'[[Feta Pie]]'
p81
I45
sS'[[Cheese]]'
p82
I59
sS'[[Chocolate Ice Cream]]'
p83
I28
sS'[[Chicken Feed]]'
p84
I37
sS'[[Corn Bread]]'
p85
I62
sS'[[Wool]]'
p86
I57
sS'[[Roasted Tomatoes]]'
p87
I87
sS'[[Berry Juice]]'
p88
I50
sS'[[Sweater]]'
p89
I89
sS'[[Blackberry Muffin]]'
p90
I86
sS'[[Cow Feed]]'
p91
I22
s.(dp0
S'[[Pig Feed]]'
p1
I2
sS'[[Corn]]'
p2
I5
sS'[[Popcorn]]'
p3
I4
sS'[[Cheesecake]]'
p4
I3
sS'[[Apple Pie]]'
p5
I1
sS'[[Egg]]'
p6
I4
sS'[[Spicy Pizza]]'
p7
I4
sS'[[Cream]]'
p8
I2
sS'[[Cotton Fabric]]'
p9
I4
sS'[[Cow Feed]]'
p10
I3
sS'[[Violet Dress]]'
p11
I1
s.