(dp0
S'[[Goat Milk]]'
p1
I75
sS'[[Cacao]]'
p2
I64
sS'[[Woolly Chaps]]'
p3
I72
sS'[[Honey]]'
p4
I17
sS'[[Blackberry Jam]]'
p5
I40
sS'[[Strawberry Cake]]'
p6
I6
sS'[[Potato]]'
p7
I89
sS'[[Fish Burger]]'
p8
I12
sS'[[White Sugar]]'
p9
I36
sS'[[Buttered Popcorn]]'
p10
I16
sS'[[Cream Cake]]'
p11
I69
sS'[[Violet Dress]]'
p12
I59
sS'[[Soybean]]'
p13
I15
sS'[[Apple]]'
p14
I20
sS'[[Strawberry Ice Cream]]'
p15
I76
sS'[[Raspberry Muffin]]'
p16
I34
sS'[[Cherry Jam]]'
p17
I48
sS'[[Hamburger]]'
p18
I1
sS'[[Blue Woolly Hat]]'
p19
I87
sS'[[Apple Pie]]'
p20
I46
sS'[[Egg]]'
p21
I41
sS'[[Tomato Juice]]'
p22
I82
sS'[[Carrot Cake]]'
p23
I18
sS'[[Vanilla Ice Cream]]'
p24
I27
sS'[[Lure]]'
p25
I29
sS'[[Carrot Pie]]'
p26
I2
sS"[[Shepherd's Pie]]"
p27
I45
sS'[[Cheese]]'
p28
I85
sS'[[Tomato]]'
p29
I37
sS'[[Cherry Juice]]'
p30
I51
sS'[[Cheesecake]]'
p31
I47
sS'[[Fish Pie]]'
p32
I61
sS'[[Brown Sugar]]'
p33
I9
sS'[[Butter]]'
p34
I30
sS'[[Pancake]]'
p35
I22
sS'[[Bacon Pie]]'
p36
I23
sS'[[Chili Pepper]]'
p37
I83
sS'[[Pumpkin Pie]]'
p38
I24
sS'[[Corn]]'
p39
I21
sS'[[Popcorn]]'
p40
I74
sS'[[Fish Fillet]]'
p41
I10
sS'[[Chili Popcorn]]'
p42
I49
sS'[[Goat Cheese]]'
p43
I50
sS'[[Bacon]]'
p44
I35
sS'[[Cotton Fabric]]'
p45
I32
sS'[[Potato Bread]]'
p46
I88
sS'[[Goat Feed]]'
p47
I33
sS'[[Blue Sweater]]'
p48
I52
sS'[[Potato Feta Cake]]'
p49
I60
sS'[[Wool]]'
p50
I57
sS'[[Red Berry Cake]]'
p51
I65
sS'[[Cookie]]'
p52
I25
sS'[[Pizza]]'
p53
I79
sS'[[Syrup]]'
p54
I8
sS'[[Cotton]]'
p55
I68
sS'[[Pig Feed]]'
p56
I42
sS'[[Sheep Feed]]'
p57
I53
sS'[[Apple Juice]]'
p58
I44
sS'[[Cherry Popsicle]]'
p59
I43
sS'[[Bacon and Eggs]]'
p60
I19
sS'[[Pumpkin]]'
p61
I77
sS'[[Feta Pie]]'
p62
I7
sS'[[Carrot Juice]]'
p63
I71
sS'[[Baked Potato]]'
p64
I56
sS'[[Milk]]'
p65
I81
sS'[[Chocolate Ice Cream]]'
p66
I62
sS'[[Berry Juice]]'
p67
I55
sS'[[Apple Jam]]'
p68
I63
sS'[[Chicken Feed]]'
p69
I0
sS'[[Carrot]]'
p70
I73
sS'[[Blackberry]]'
p71
I3
sS'[[Corn Bread]]'
p72
I13
sS'[[Cotton Shirt]]'
p73
I26
sS'[[Cream]]'
p74
I5
sS'[[Raspberry Jam]]'
p75
I4
sS'[[Cherry]]'
p76
I86
sS'[[Bread]]'
p77
I70
sS'[[Wheat]]'
p78
I80
sS'[[Casserole]]'
p79
I11
sS'[[Strawberry]]'
p80
I78
sS'[[Roasted Tomatoes]]'
p81
I28
sS'[[Honey Popcorn]]'
p82
I54
sS'[[Sugarcane]]'
p83
I90
sS'[[Honeycomb]]'
p84
I84
sS'[[Indigo]]'
p85
I31
sS'[[Raspberry]]'
p86
I66
sS'[[Sweater]]'
p87
I39
sS'[[Blackberry Muffin]]'
p88
I38
sS'[[Chocolate Cake]]'
p89
I14
sS'[[Cow Feed]]'
p90
I67
sS'[[Spicy Pizza]]'
p91
I58
s.(dp0
S'[[Wheat]]'
p1
I4
sS'[[Cheesecake]]'
p2
I1
sS'[[Honey]]'
p3
I1
sS'[[Corn Bread]]'
p4
I5
sS'[[Potato Feta Cake]]'
p5
I0
sS'[[Milk]]'
p6
I2
sS'[[Lure]]'
p7
I4
sS'[[Bacon Pie]]'
p8
I3
sS'[[Syrup]]'
p9
I5
sS'[[Violet Dress]]'
p10
I1
s.