(dp0
S'[[Pumpkin]]'
p1
I2
sS'[[Blackberry Jam]]'
p2
I82
sS'[[Violet Dress]]'
p3
I14
sS'[[Strawberry Ice Cream]]'
p4
I40
sS'[[Raspberry Muffin]]'
p5
I48
sS'[[Apple Pie]]'
p6
I42
sS'[[Tomato Juice]]'
p7
I20
sS'[[Blue Sweater]]'
p8
I10
sS'[[Honey]]'
p9
I34
sS'[[Vanilla Ice Cream]]'
p10
I85
sS'[[Lure]]'
p11
I61
sS'[[Carrot Pie]]'
p12
I35
sS'[[Tomato]]'
p13
I72
sS'[[Potato]]'
p14
I90
sS'[[Cheesecake]]'
p15
I38
sS'[[Fish Pie]]'
p16
I18
sS'[[Pancake]]'
p17
I67
sS'[[Popcorn]]'
p18
I17
sS'[[Goat Cheese]]'
p19
I37
sS'[[Potato Bread]]'
p20
I24
sS'[[Goat Feed]]'
p21
I76
sS'[[Red Berry Cake]]'
p22
I12
sS'[[Pizza]]'
p23
I32
sS'[[Syrup]]'
p24
I29
sS'[[Sheep Feed]]'
p25
I8
sS'[[Cherry Popsicle]]'
p26
I60
sS'[[Bacon and Eggs]]'
p27
I25
sS'[[Carrot]]'
p28
I11
sS'[[Carrot Juice]]'
p29
I15
sS'[[Baked Potato]]'
p30
I28
sS'[[Milk]]'
p31
I52
sS'[[Apple Jam]]'
p32
I9
sS'[[Apple]]'
p33
I5
sS'[[Blackberry]]'
p34
I51
sS'[[Cotton Shirt]]'
p35
I13
sS'[[Cream]]'
p36
I7
sS'[[Raspberry Jam]]'
p37
I27
sS'[[Cherry]]'
p38
I4
sS'[[Bread]]'
p39
I22
sS'[[Wheat]]'
p40
I45
sS'[[Casserole]]'
p41
I30
sS'[[Strawberry]]'
p42
I74
sS'[[Potato Feta Cake]]'
p43
I80
sS'[[Honeycomb]]'
p44
I6
sS'[[Indigo]]'
p45
I57
sS'[[Raspberry]]'
p46
I62
sS'[[Chocolate Cake]]'
p47
I47
sS'[[Spicy Pizza]]'
p48
I55
sS'[[Cacao]]'
p49
I59
sS'[[Woolly Chaps]]'
p50
I71
sS'[[Carrot Cake]]'
p51
I41
sS'[[Egg]]'
p52
I86
sS'[[Strawberry Cake]]'
p53
I79
sS'[[Cherry Juice]]'
p54
I58
sS'[[Fish Burger]]'
p55
I83
sS'[[White Sugar]]'
p56
I39
sS'[[Buttered Popcorn]]'
p57
I43
sS'[[Cream Cake]]'
p58
I19
sS'[[Soybean]]'
p59
I0
sS'[[Brown Sugar]]'
p60
I23
sS'[[Blue Woolly Hat]]'
p61
I1
sS'[[Goat Milk]]'
p62
I50
sS'[[Hamburger]]'
p63
I65
sS'[[Cherry Jam]]'
p64
I89
sS"[[Shepherd's Pie]]"
p65
I75
sS'[[Butter]]'
p66
I54
sS'[[Bacon Pie]]'
p67
I53
sS'[[Chili Pepper]]'
p68
I56
sS'[[Corn]]'
p69
I46
sS'[[Fish Fillet]]'
p70
I70
sS'[[Chili Popcorn]]'
p71
I49
sS'[[Bacon]]'
p72
I66
sS'[[Cotton Fabric]]'
p73
I3
sS'[[Pumpkin Pie]]'
p74
I69
sS'[[Honey Popcorn]]'
p75
I88
sS'[[Sugarcane]]'
p76
I44
sS'[[Cookie]]'
p77
I26
sS'[[Apple Juice]]'
p78
I31
sS'[[Pig Feed]]'
p79
I36
sS'[[Cotton]]'
p80
I16
sS'[[Feta Pie]]'
p81
I68
sS'[[Cheese]]'
p82
I33
sS'[[Chocolate Ice Cream]]'
p83
I84
sS'[[Chicken Feed]]'
p84
I63
sS'[[Corn Bread]]'
p85
I21
sS'[[Wool]]'
p86
I87
sS'[[Roasted Tomatoes]]'
p87
I78
sS'[[Berry Juice]]'
p88
I64
sS'[[Sweater]]'
p89
I73
sS'[[Blackberry Muffin]]'
p90
I81
sS'[[Cow Feed]]'
p91
I77
s.(dp0
S'[[Pig Feed]]'
p1
I2
sS'[[Brown Sugar]]'
p2
I0
sS'[[Roasted Tomatoes]]'
p3
I5
sS'[[Carrot]]'
p4
I3
sS'[[Blue Sweater]]'
p5
I0
sS'[[Blue Woolly Hat]]'
p6
I1
sS'[[Potato]]'
p7
I4
sS'[[Baked Potato]]'
p8
I5
sS'[[Butter]]'
p9
I3
sS'[[Apple Jam]]'
p10
I4
sS'[[Pizza]]'
p11
I1
s.