(dp0
S'[[Pumpkin]]'
p1
I66
sS'[[Blackberry Jam]]'
p2
I1
sS'[[Violet Dress]]'
p3
I35
sS'[[Strawberry Ice Cream]]'
p4
I83
sS'[[Raspberry Muffin]]'
p5
I61
sS'[[Apple Pie]]'
p6
I7
sS'[[Tomato Juice]]'
p7
I13
sS'[[Carrot Cake]]'
p8
I28
sS'[[Vanilla Ice Cream]]'
p9
I19
sS'[[Lure]]'
p10
I52
sS'[[Carrot Pie]]'
p11
I8
sS'[[Tomato]]'
p12
I9
sS'[[Cherry Juice]]'
p13
I63
sS'[[Cheesecake]]'
p14
I67
sS'[[Fish Pie]]'
p15
I22
sS'[[Pancake]]'
p16
I50
sS'[[Popcorn]]'
p17
I17
sS'[[Goat Cheese]]'
p18
I51
sS'[[Potato Bread]]'
p19
I55
sS'[[Goat Feed]]'
p20
I31
sS'[[Red Berry Cake]]'
p21
I76
sS'[[Pizza]]'
p22
I42
sS'[[Syrup]]'
p23
I85
sS'[[Sheep Feed]]'
p24
I75
sS'[[Cherry Popsicle]]'
p25
I74
sS'[[Bacon and Eggs]]'
p26
I15
sS'[[Carrot Juice]]'
p27
I21
sS'[[Baked Potato]]'
p28
I29
sS'[[Milk]]'
p29
I33
sS'[[Apple Jam]]'
p30
I27
sS'[[Carrot]]'
p31
I6
sS'[[Blackberry]]'
p32
I41
sS'[[Cotton Shirt]]'
p33
I89
sS'[[Cream]]'
p34
I2
sS'[[Raspberry Jam]]'
p35
I73
sS'[[Cherry]]'
p36
I58
sS'[[Bread]]'
p37
I62
sS'[[Wheat]]'
p38
I40
sS'[[Casserole]]'
p39
I84
sS'[[Chili Pepper]]'
p40
I56
sS'[[Potato Feta Cake]]'
p41
I44
sS'[[Honeycomb]]'
p42
I80
sS'[[Indigo]]'
p43
I81
sS'[[Raspberry]]'
p44
I26
sS'[[Chocolate Cake]]'
p45
I60
sS'[[Spicy Pizza]]'
p46
I5
sS'[[Cacao]]'
p47
I34
sS'[[Woolly Chaps]]'
p48
I82
sS'[[Honey]]'
p49
I46
sS'[[Egg]]'
p50
I11
sS'[[Strawberry Cake]]'
p51
I36
sS'[[Potato]]'
p52
I14
sS'[[Fish Burger]]'
p53
I38
sS'[[White Sugar]]'
p54
I54
sS'[[Buttered Popcorn]]'
p55
I70
sS'[[Cream Cake]]'
p56
I78
sS'[[Soybean]]'
p57
I39
sS'[[Apple]]'
p58
I32
sS'[[Blue Woolly Hat]]'
p59
I49
sS'[[Goat Milk]]'
p60
I12
sS'[[Hamburger]]'
p61
I53
sS'[[Cherry Jam]]'
p62
I18
sS"[[Shepherd's Pie]]"
p63
I64
sS'[[Brown Sugar]]'
p64
I77
sS'[[Butter]]'
p65
I3
sS'[[Bacon Pie]]'
p66
I20
sS'[[Strawberry]]'
p67
I37
sS'[[Pumpkin Pie]]'
p68
I57
sS'[[Corn]]'
p69
I45
sS'[[Fish Fillet]]'
p70
I47
sS'[[Chili Popcorn]]'
p71
I86
sS'[[Bacon]]'
p72
I25
sS'[[Cotton Fabric]]'
p73
I48
sS'[[Blue Sweater]]'
p74
I72
sS'[[Honey Popcorn]]'
p75
I88
sS'[[Sugarcane]]'
p76
I65
sS'[[Cookie]]'
p77
I43
sS'[[Apple Juice]]'
p78
I59
sS'[[Pig Feed]]'
p79
I90
sS'[[Cotton]]'
p80
I16
sS'[[Feta Pie]]'
p81
I87
sS'[[Cheese]]'
p82
I68
sS'[[Chocolate Ice Cream]]'
p83
I69
sS'[[Chicken Feed]]'
p84
I4
sS'[[Corn Bread]]'
p85
I23
sS'[[Wool]]'
p86
I24
sS'[[Roasted Tomatoes]]'
p87
I0
sS'[[Berry Juice]]'
p88
I30
sS'[[Sweater]]'
p89
I10
sS'[[Blackberry Muffin]]'
p90
I79
sS'[[Cow Feed]]'
p91
I71
s.(dp0
S'[[Tomato]]'
p1
I5
sS'[[Brown Sugar]]'
p2
I3
sS'[[Chicken Feed]]'
p3
I3
sS'[[Bread]]'
p4
I5
sS'[[Honey]]'
p5
I4
sS'[[Carrot Pie]]'
p6
I2
sS'[[Pumpkin]]'
p7
I4
sS'[[Chocolate Cake]]'
p8
I4
sS'[[Bacon Pie]]'
p9
I2
sS'[[Potato Bread]]'
p10
I3
sS'[[Goat Feed]]'
p11
I0
s.