(dp0
S'[[Pumpkin]]'
p1
I79
sS'[[Blackberry Jam]]'
p2
I63
sS'[[Violet Dress]]'
p3
I77
sS'[[Strawberry Ice Cream]]'
p4
I12
sS'[[Raspberry Muffin]]'
p5
I37
sS'[[Apple Pie]]'
p6
I28
sS'[[Tomato Juice]]'
p7
I90
sS'[[Honey]]'
p8
I49
sS'[[Vanilla Ice Cream]]'
p9
I6
sS'[[Lure]]'
p10
I73
sS'[[Carrot Pie]]'
p11
I71
sS'[[Tomato]]'
p12
I55
sS'[[Potato]]'
p13
I26
sS'[[Cheesecake]]'
p14
I87
sS'[[Fish Pie]]'
p15
I18
sS'[[Pancake]]'
p16
I9
sS'[[Popcorn]]'
p17
I4
sS'[[Goat Cheese]]'
p18
I33
sS'[[Potato Bread]]'
p19
I1
sS'[[Goat Feed]]'
p20
I57
sS'[[Red Berry Cake]]'
p21
I41
sS'[[Pizza]]'
p22
I66
sS'[[Syrup]]'
p23
I67
sS'[[Sheep Feed]]'
p24
I5
sS'[[Cherry Popsicle]]'
p25
I0
sS'[[Bacon and Eggs]]'
p26
I50
sS'[[Carrot]]'
p27
I11
sS'[[Carrot Juice]]'
p28
I25
sS'[[Baked Potato]]'
p29
I47
sS'[[Milk]]'
p30
I31
sS'[[Apple Jam]]'
p31
I36
sS'[[Apple]]'
p32
I56
sS'[[Blackberry]]'
p33
I19
sS'[[Cotton Shirt]]'
p34
I78
sS'[[Cream]]'
p35
I75
sS'[[Raspberry Jam]]'
p36
I21
sS'[[Cherry]]'
p37
I39
sS'[[Bread]]'
p38
I43
sS'[[Wheat]]'
p39
I17
sS'[[Casserole]]'
p40
I74
sS'[[Chili Pepper]]'
p41
I68
sS'[[Potato Feta Cake]]'
p42
I52
sS'[[Honeycomb]]'
p43
I23
sS'[[Indigo]]'
p44
I81
sS'[[Raspberry]]'
p45
I72
sS'[[Chocolate Cake]]'
p46
I88
sS'[[Spicy Pizza]]'
p47
I29
sS'[[Cacao]]'
p48
I14
sS'[[Woolly Chaps]]'
p49
I70
sS'[[Carrot Cake]]'
p50
I10
sS'[[Egg]]'
p51
I76
sS'[[Strawberry Cake]]'
p52
I65
sS'[[Cherry Juice]]'
p53
I8
sS'[[Fish Burger]]'
p54
I20
sS'[[White Sugar]]'
p55
I32
sS'[[Buttered Popcorn]]'
p56
I86
sS'[[Cream Cake]]'
p57
I89
sS'[[Soybean]]'
p58
I27
sS'[[Brown Sugar]]'
p59
I64
sS'[[Blue Woolly Hat]]'
p60
I24
sS'[[Goat Milk]]'
p61
I38
sS'[[Hamburger]]'
p62
I35
sS'[[Cherry Jam]]'
p63
I80
sS"[[Shepherd's Pie]]"
p64
I48
sS'[[Butter]]'
p65
I53
sS'[[Bacon Pie]]'
p66
I60
sS'[[Strawberry]]'
p67
I16
sS'[[Pumpkin Pie]]'
p68
I13
sS'[[Corn]]'
p69
I84
sS'[[Fish Fillet]]'
p70
I51
sS'[[Chili Popcorn]]'
p71
I42
sS'[[Bacon]]'
p72
I2
sS'[[Cotton Fabric]]'
p73
I40
sS'[[Blue Sweater]]'
p74
I34
sS'[[Honey Popcorn]]'
p75
I61
sS'[[Sugarcane]]'
p76
I45
sS'[[Cookie]]'
p77
I22
sS'[[Apple Juice]]'
p78
I69
sS'[[Pig Feed]]'
p79
I58
sS'[[Cotton]]'
p80
I54
sS'[[Feta Pie]]'
p81
I3
sS'[[Cheese]]'
p82
I30
sS'[[Chocolate Ice Cream]]'
p83
I46
sS'[[Chicken Feed]]'
p84
I82
sS'[[Corn Bread]]'
p85
I15
sS'[[Wool]]'
p86
I85
sS'[[Roasted Tomatoes]]'
p87
I59
sS'[[Berry Juice]]'
p88
I7
sS'[[Sweater]]'
p89
I62
sS'[[Blackberry Muffin]]'
p90
I83
sS'[[Cow Feed]]'
p91
I44
s.(dp0
S'[[Pig Feed]]'
p1
I0
sS'[[Wheat]]'
p2
I2
sS'[[Corn]]'
p3
I1
sS'[[Potato Feta Cake]]'
p4
I4
sS'[[Strawberry Ice Cream]]'
p5
I0
sS'[[Strawberry]]'
p6
I0
sS'[[Potato]]'
p7
I7
sS'[[Tomato Juice]]'
p8
I0
sS'[[Bread]]'
p9
I0
sS'[[Syrup]]'
p10
I5
s.