(dp0
S'[[Pumpkin]]'
p1
I34
sS'[[Blackberry Jam]]'
p2
I5
sS'[[Violet Dress]]'
p3
I37
sS'[[Strawberry Ice Cream]]'
p4
I6
sS'[[Raspberry Muffin]]'
p5
I58
sS'[[Apple Pie]]'
p6
I61
sS'[[Tomato Juice]]'
p7
I25
sS'[[Blue Sweater]]'
p8
I42
sS'[[Honey]]'
p9
I20
sS'[[Vanilla Ice Cream]]'
p10
I18
sS'[[Lure]]'
p11
I33
sS'[[Carrot Pie]]'
p12
I72
sS'[[Tomato]]'
p13
I87
sS'[[Potato]]'
p14
I38
sS'[[Cheesecake]]'
p15
I27
sS'[[Fish Pie]]'
p16
I79
sS'[[Pancake]]'
p17
I26
sS'[[Popcorn]]'
p18
I16
sS'[[Goat Cheese]]'
p19
I0
sS'[[Potato Bread]]'
p20
I82
sS'[[Goat Feed]]'
p21
I90
sS'[[Red Berry Cake]]'
p22
I43
sS'[[Pizza]]'
p23
I12
sS'[[Syrup]]'
p24
I7
sS'[[Sheep Feed]]'
p25
I78
sS'[[Cherry Popsicle]]'
p26
I60
sS'[[Bacon and Eggs]]'
p27
I30
sS'[[Carrot Juice]]'
p28
I85
sS'[[Baked Potato]]'
p29
I74
sS'[[Milk]]'
p30
I29
sS'[[Apple Jam]]'
p31
I88
sS'[[Carrot]]'
p32
I54
sS'[[Blackberry]]'
p33
I24
sS'[[Cotton Shirt]]'
p34
I62
sS'[[Cream]]'
p35
I57
sS'[[Raspberry Jam]]'
p36
I64
sS'[[Cherry]]'
p37
I70
sS'[[Bread]]'
p38
I76
sS'[[Wheat]]'
p39
I51
sS'[[Casserole]]'
p40
I56
sS'[[Strawberry]]'
p41
I31
sS'[[Honey Popcorn]]'
p42
I44
sS'[[Honeycomb]]'
p43
I69
sS'[[Indigo]]'
p44
I17
sS'[[Raspberry]]'
p45
I49
sS'[[Chocolate Cake]]'
p46
I10
sS'[[Spicy Pizza]]'
p47
I89
sS'[[Cacao]]'
p48
I77
sS'[[Woolly Chaps]]'
p49
I40
sS'[[Carrot Cake]]'
p50
I1
sS'[[Egg]]'
p51
I9
sS'[[Strawberry Cake]]'
p52
I73
sS'[[Cherry Juice]]'
p53
I4
sS'[[Fish Burger]]'
p54
I55
sS'[[White Sugar]]'
p55
I21
sS'[[Buttered Popcorn]]'
p56
I50
sS'[[Cream Cake]]'
p57
I19
sS'[[Soybean]]'
p58
I35
sS'[[Apple]]'
p59
I41
sS'[[Blue Woolly Hat]]'
p60
I8
sS'[[Goat Milk]]'
p61
I65
sS'[[Hamburger]]'
p62
I66
sS'[[Cherry Jam]]'
p63
I63
sS"[[Shepherd's Pie]]"
p64
I2
sS'[[Brown Sugar]]'
p65
I23
sS'[[Butter]]'
p66
I15
sS'[[Bacon Pie]]'
p67
I14
sS'[[Chili Pepper]]'
p68
I48
sS'[[Corn]]'
p69
I3
sS'[[Fish Fillet]]'
p70
I36
sS'[[Chili Popcorn]]'
p71
I83
sS'[[Bacon]]'
p72
I59
sS'[[Cotton Fabric]]'
p73
I81
sS'[[Pumpkin Pie]]'
p74
I67
sS'[[Potato Feta Cake]]'
p75
I11
sS'[[Sugarcane]]'
p76
I47
sS'[[Cookie]]'
p77
I52
sS'[[Apple Juice]]'
p78
I84
sS'[[Pig Feed]]'
p79
I46
sS'[[Cotton]]'
p80
I45
sS'[[Feta Pie]]'
p81
I80
sS'[[Cheese]]'
p82
I71
sS'[[Chocolate Ice Cream]]'
p83
I53
sS'[[Chicken Feed]]'
p84
I22
sS'[[Corn Bread]]'
p85
I86
sS'[[Wool]]'
p86
I39
sS'[[Roasted Tomatoes]]'
p87
I75
sS'[[Berry Juice]]'
p88
I68
sS'[[Sweater]]'
p89
I28
sS'[[Blackberry Muffin]]'
p90
I32
sS'[[Cow Feed]]'
p91
I13
s.(dp0
S'[[Goat Milk]]'
p1
I0
sS'[[Strawberry Ice Cream]]'
p2
I4
sS'[[Strawberry]]'
p3
I1
sS'[[Carrot Cake]]'
p4
I1
sS'[[Strawberry Cake]]'
p5
I1
sS'[[Potato Feta Cake]]'
p6
I1
sS'[[White Sugar]]'
p7
I3
sS'[[Goat Cheese]]'
p8
I1
sS'[[Bacon]]'
p9
I4
sS'[[Buttered Popcorn]]'
p10
I3
sS'[[Cherry]]'
p11
I2
s.