(dp0
S'[[Pumpkin]]'
p1
I0
sS'[[Blackberry Jam]]'
p2
I4
sS'[[Violet Dress]]'
p3
I43
sS'[[Strawberry Ice Cream]]'
p4
I21
sS'[[Raspberry Muffin]]'
p5
I80
sS'[[Apple Pie]]'
p6
I31
sS'[[Tomato Juice]]'
p7
I56
sS'[[Blue Sweater]]'
p8
I64
sS'[[Honey]]'
p9
I59
sS'[[Vanilla Ice Cream]]'
p10
I71
sS'[[Lure]]'
p11
I35
sS'[[Carrot Pie]]'
p12
I90
sS'[[Tomato]]'
p13
I85
sS'[[Potato]]'
p14
I76
sS'[[Cheesecake]]'
p15
I38
sS'[[Fish Pie]]'
p16
I88
sS'[[Pancake]]'
p17
I37
sS'[[Popcorn]]'
p18
I74
sS'[[Goat Cheese]]'
p19
I42
sS'[[Potato Bread]]'
p20
I24
sS'[[Goat Feed]]'
p21
I12
sS'[[Red Berry Cake]]'
p22
I52
sS'[[Pizza]]'
p23
I16
sS'[[Syrup]]'
p24
I8
sS'[[Sheep Feed]]'
p25
I25
sS'[[Cherry Popsicle]]'
p26
I45
sS'[[Bacon and Eggs]]'
p27
I14
sS'[[Carrot]]'
p28
I57
sS'[[Carrot Juice]]'
p29
I47
sS'[[Baked Potato]]'
p30
I50
sS'[[Milk]]'
p31
I73
sS'[[Apple Jam]]'
p32
I18
sS'[[Apple]]'
p33
I66
sS'[[Blackberry]]'
p34
I32
sS'[[Cotton Shirt]]'
p35
I17
sS'[[Cream]]'
p36
I11
sS'[[Raspberry Jam]]'
p37
I1
sS'[[Cherry]]'
p38
I62
sS'[[Bread]]'
p39
I6
sS'[[Wheat]]'
p40
I5
sS'[[Casserole]]'
p41
I29
sS'[[Strawberry]]'
p42
I82
sS'[[Potato Feta Cake]]'
p43
I23
sS'[[Honeycomb]]'
p44
I60
sS'[[Indigo]]'
p45
I70
sS'[[Raspberry]]'
p46
I72
sS'[[Chocolate Cake]]'
p47
I79
sS'[[Spicy Pizza]]'
p48
I26
sS'[[Cacao]]'
p49
I83
sS'[[Woolly Chaps]]'
p50
I3
sS'[[Carrot Cake]]'
p51
I89
sS'[[Egg]]'
p52
I84
sS'[[Strawberry Cake]]'
p53
I19
sS'[[Cherry Juice]]'
p54
I7
sS'[[Fish Burger]]'
p55
I41
sS'[[White Sugar]]'
p56
I78
sS'[[Buttered Popcorn]]'
p57
I55
sS'[[Cream Cake]]'
p58
I81
sS'[[Soybean]]'
p59
I34
sS'[[Brown Sugar]]'
p60
I77
sS'[[Blue Woolly Hat]]'
p61
I44
sS'[[Goat Milk]]'
p62
I9
sS'[[Hamburger]]'
p63
I39
sS'[[Cherry Jam]]'
p64
I75
sS"[[Shepherd's Pie]]"
p65
I86
sS'[[Butter]]'
p66
I46
sS'[[Bacon Pie]]'
p67
I68
sS'[[Chili Pepper]]'
p68
I69
sS'[[Corn]]'
p69
I27
sS'[[Fish Fillet]]'
p70
I48
sS'[[Chili Popcorn]]'
p71
I65
sS'[[Bacon]]'
p72
I36
sS'[[Cotton Fabric]]'
p73
I2
sS'[[Pumpkin Pie]]'
p74
I13
sS'[[Honey Popcorn]]'
p75
I61
sS'[[Sugarcane]]'
p76
I54
sS'[[Cookie]]'
p77
I33
sS'[[Apple Juice]]'
p78
I30
sS'[[Pig Feed]]'
p79
I63
sS'[[Cotton]]'
p80
I67
sS'[[Feta Pie]]'
p81
I20
sS'[[Cheese]]'
p82
I40
sS'[[Chocolate Ice Cream]]'
p83
I53
sS'[[Chicken Feed]]'
p84
I87
sS'[[Corn Bread]]'
p85
I28
sS'[[Wool]]'
p86
I10
sS'[[Roasted Tomatoes]]'
p87
I22
sS'[[Berry Juice]]'
p88
I49
sS'[[Sweater]]'
p89
I58
sS'[[Blackberry Muffin]]'
p90
I51
sS'[[Cow Feed]]'
p91
I15
s.(dp0
S'[[Sheep Feed]]'
p1
I0
sS'[[Casserole]]'
p2
I2
sS'[[Blue Sweater]]'
p3
I0
sS'[[Honey]]'
p4
I2
sS'[[Strawberry Cake]]'
p5
I4
sS'[[Carrot Juice]]'
p6
I0
sS'[[Tomato Juice]]'
p7
I4
sS'[[Spicy Pizza]]'
p8
I1
sS'[[Cherry Jam]]'
p9
I3
sS"[[Shepherd's Pie]]"
p10
I3
sS'[[Violet Dress]]'
p11
I1
s.