(dp0
S'[[Pumpkin]]'
p1
I18
sS'[[Blackberry Jam]]'
p2
I15
sS'[[Violet Dress]]'
p3
I71
sS'[[Strawberry Ice Cream]]'
p4
I24
sS'[[Raspberry Muffin]]'
p5
I46
sS'[[Apple Pie]]'
p6
I86
sS'[[Tomato Juice]]'
p7
I28
sS'[[Carrot Cake]]'
p8
I36
sS'[[Vanilla Ice Cream]]'
p9
I26
sS'[[Lure]]'
p10
I53
sS'[[Carrot Pie]]'
p11
I9
sS'[[Tomato]]'
p12
I12
sS'[[Cherry Juice]]'
p13
I34
sS'[[Cheesecake]]'
p14
I87
sS'[[Fish Pie]]'
p15
I1
sS'[[Pancake]]'
p16
I68
sS'[[Popcorn]]'
p17
I39
sS'[[Goat Cheese]]'
p18
I61
sS'[[Potato Bread]]'
p19
I83
sS'[[Goat Feed]]'
p20
I40
sS'[[Red Berry Cake]]'
p21
I49
sS'[[Pizza]]'
p22
I50
sS'[[Syrup]]'
p23
I82
sS'[[Sheep Feed]]'
p24
I84
sS'[[Cherry Popsicle]]'
p25
I33
sS'[[Bacon and Eggs]]'
p26
I81
sS'[[Carrot Juice]]'
p27
I56
sS'[[Baked Potato]]'
p28
I44
sS'[[Milk]]'
p29
I32
sS'[[Apple Jam]]'
p30
I25
sS'[[Carrot]]'
p31
I27
sS'[[Blackberry]]'
p32
I80
sS'[[Cotton Shirt]]'
p33
I48
sS'[[Cream]]'
p34
I77
sS'[[Raspberry Jam]]'
p35
I29
sS'[[Cherry]]'
p36
I10
sS'[[Bread]]'
p37
I55
sS'[[Wheat]]'
p38
I22
sS'[[Casserole]]'
p39
I51
sS'[[Chili Pepper]]'
p40
I75
sS'[[Potato Feta Cake]]'
p41
I63
sS'[[Honeycomb]]'
p42
I47
sS'[[Indigo]]'
p43
I3
sS'[[Raspberry]]'
p44
I8
sS'[[Chocolate Cake]]'
p45
I19
sS'[[Spicy Pizza]]'
p46
I90
sS'[[Cacao]]'
p47
I65
sS'[[Woolly Chaps]]'
p48
I66
sS'[[Honey]]'
p49
I70
sS'[[Egg]]'
p50
I4
sS'[[Strawberry Cake]]'
p51
I6
sS'[[Potato]]'
p52
I88
sS'[[Fish Burger]]'
p53
I76
sS'[[White Sugar]]'
p54
I73
sS'[[Buttered Popcorn]]'
p55
I2
sS'[[Cream Cake]]'
p56
I57
sS'[[Soybean]]'
p57
I0
sS'[[Apple]]'
p58
I38
sS'[[Blue Woolly Hat]]'
p59
I7
sS'[[Goat Milk]]'
p60
I62
sS'[[Hamburger]]'
p61
I67
sS'[[Cherry Jam]]'
p62
I60
sS"[[Shepherd's Pie]]"
p63
I37
sS'[[Brown Sugar]]'
p64
I14
sS'[[Butter]]'
p65
I64
sS'[[Bacon Pie]]'
p66
I16
sS'[[Strawberry]]'
p67
I54
sS'[[Pumpkin Pie]]'
p68
I11
sS'[[Corn]]'
p69
I35
sS'[[Fish Fillet]]'
p70
I45
sS'[[Chili Popcorn]]'
p71
I43
sS'[[Bacon]]'
p72
I58
sS'[[Cotton Fabric]]'
p73
I13
sS'[[Blue Sweater]]'
p74
I17
sS'[[Honey Popcorn]]'
p75
I85
sS'[[Sugarcane]]'
p76
I72
sS'[[Cookie]]'
p77
I21
sS'[[Apple Juice]]'
p78
I74
sS'[[Pig Feed]]'
p79
I31
sS'[[Cotton]]'
p80
I78
sS'[[Feta Pie]]'
p81
I30
sS'[[Cheese]]'
p82
I69
sS'[[Chocolate Ice Cream]]'
p83
I5
sS'[[Chicken Feed]]'
p84
I20
sS'[[Corn Bread]]'
p85
I79
sS'[[Wool]]'
p86
I89
sS'[[Roasted Tomatoes]]'
p87
I23
sS'[[Berry Juice]]'
p88
I42
sS'[[Sweater]]'
p89
I52
sS'[[Blackberry Muffin]]'
p90
I41
sS'[[Cow Feed]]'
p91
I59
s.(dp0
S'[[Brown Sugar]]'
p1
I0
sS'[[Corn]]'
p2
I1
sS'[[Pumpkin]]'
p3
I1
sS'[[Cacao]]'
p4
I1
sS'[[Roasted Tomatoes]]'
p5
I1
sS'[[Cherry Popsicle]]'
p6
I3
sS'[[Sheep Feed]]'
p7
I2
sS'[[Apple Pie]]'
p8
I1
sS'[[Berry Juice]]'
p9
I3
sS'[[Carrot Pie]]'
p10
I1
sS'[[Cotton Fabric]]'
p11
I0
s.