(dp0
S'[[Pumpkin]]'
p1
I18
sS'[[Blackberry Jam]]'
p2
I65
sS'[[Violet Dress]]'
p3
I6
sS'[[Strawberry Ice Cream]]'
p4
I80
sS'[[Raspberry Muffin]]'
p5
I26
sS'[[Apple Pie]]'
p6
I12
sS'[[Tomato Juice]]'
p7
I63
sS'[[Blue Sweater]]'
p8
I61
sS'[[Honey]]'
p9
I17
sS'[[Vanilla Ice Cream]]'
p10
I25
sS'[[Lure]]'
p11
I7
sS'[[Carrot Pie]]'
p12
I10
sS'[[Tomato]]'
p13
I41
sS'[[Potato]]'
p14
I60
sS'[[Cheesecake]]'
p15
I82
sS'[[Fish Pie]]'
p16
I57
sS'[[Pancake]]'
p17
I89
sS'[[Popcorn]]'
p18
I42
sS'[[Goat Cheese]]'
p19
I75
sS'[[Potato Bread]]'
p20
I39
sS'[[Goat Feed]]'
p21
I19
sS'[[Red Berry Cake]]'
p22
I0
sS'[[Pizza]]'
p23
I14
sS'[[Syrup]]'
p24
I79
sS'[[Sheep Feed]]'
p25
I27
sS'[[Cherry Popsicle]]'
p26
I21
sS'[[Bacon and Eggs]]'
p27
I1
sS'[[Carrot]]'
p28
I5
sS'[[Carrot Juice]]'
p29
I50
sS'[[Baked Potato]]'
p30
I81
sS'[[Milk]]'
p31
I3
sS'[[Apple Jam]]'
p32
I47
sS'[[Apple]]'
p33
I90
sS'[[Blackberry]]'
p34
I30
sS'[[Cotton Shirt]]'
p35
I55
sS'[[Cream]]'
p36
I22
sS'[[Raspberry Jam]]'
p37
I58
sS'[[Cherry]]'
p38
I31
sS'[[Bread]]'
p39
I54
sS'[[Wheat]]'
p40
I64
sS'[[Casserole]]'
p41
I85
sS'[[Strawberry]]'
p42
I11
sS'[[Potato Feta Cake]]'
p43
I29
sS'[[Honeycomb]]'
p44
I83
sS'[[Indigo]]'
p45
I43
sS'[[Raspberry]]'
p46
I15
sS'[[Chocolate Cake]]'
p47
I53
sS'[[Spicy Pizza]]'
p48
I62
sS'[[Cacao]]'
p49
I9
sS'[[Woolly Chaps]]'
p50
I69
sS'[[Carrot Cake]]'
p51
I52
sS'[[Egg]]'
p52
I40
sS'[[Strawberry Cake]]'
p53
I34
sS'[[Cherry Juice]]'
p54
I66
sS'[[Fish Burger]]'
p55
I33
sS'[[White Sugar]]'
p56
I56
sS'[[Buttered Popcorn]]'
p57
I78
sS'[[Cream Cake]]'
p58
I48
sS'[[Soybean]]'
p59
I35
sS'[[Brown Sugar]]'
p60
I84
sS'[[Blue Woolly Hat]]'
p61
I72
sS'[[Goat Milk]]'
p62
I23
sS'[[Hamburger]]'
p63
I37
sS'[[Cherry Jam]]'
p64
I24
sS"[[Shepherd's Pie]]"
p65
I20
sS'[[Butter]]'
p66
I51
sS'[[Bacon Pie]]'
p67
I86
sS'[[Chili Pepper]]'
p68
I2
sS'[[Corn]]'
p69
I28
sS'[[Fish Fillet]]'
p70
I38
sS'[[Chili Popcorn]]'
p71
I8
sS'[[Bacon]]'
p72
I59
sS'[[Cotton Fabric]]'
p73
I67
sS'[[Pumpkin Pie]]'
p74
I74
sS'[[Honey Popcorn]]'
p75
I88
sS'[[Sugarcane]]'
p76
I46
sS'[[Cookie]]'
p77
I44
sS'[[Apple Juice]]'
p78
I36
sS'[[Pig Feed]]'
p79
I13
sS'[[Cotton]]'
p80
I77
sS'[[Feta Pie]]'
p81
I45
sS'[[Cheese]]'
p82
I32
sS'[[Chocolate Ice Cream]]'
p83
I71
sS'[[Chicken Feed]]'
p84
I70
sS'[[Corn Bread]]'
p85
I49
sS'[[Wool]]'
p86
I68
sS'[[Roasted Tomatoes]]'
p87
I4
sS'[[Berry Juice]]'
p88
I73
sS'[[Sweater]]'
p89
I16
sS'[[Blackberry Muffin]]'
p90
I87
sS'[[Cow Feed]]'
p91
I76
s.(dp0
S'[[Potato]]'
p1
I1
sS'[[Cacao]]'
p2
I5
sS'[[Roasted Tomatoes]]'
p3
I0
sS'[[Carrot Pie]]'
p4
I5
sS'[[Blue Woolly Hat]]'
p5
I5
sS'[[Cherry Juice]]'
p6
I2
sS'[[Cotton Shirt]]'
p7
I0
sS'[[White Sugar]]'
p8
I2
sS'[[Bacon Pie]]'
p9
I3
sS'[[Cow Feed]]'
p10
I4
sS'[[Strawberry Cake]]'
p11
I4
s.