(dp0
S'[[Pumpkin]]'
p1
I45
sS'[[Blackberry Jam]]'
p2
I34
sS'[[Violet Dress]]'
p3
I78
sS'[[Strawberry Ice Cream]]'
p4
I73
sS'[[Raspberry Muffin]]'
p5
I16
sS'[[Apple Pie]]'
p6
I74
sS'[[Tomato Juice]]'
p7
I1
sS'[[Blue Sweater]]'
p8
I65
sS'[[Honey]]'
p9
I64
sS'[[Vanilla Ice Cream]]'
p10
I14
sS'[[Lure]]'
p11
I29
sS'[[Carrot Pie]]'
p12
I18
sS'[[Tomato]]'
p13
I2
sS'[[Potato]]'
p14
I47
sS'[[Cheesecake]]'
p15
I33
sS'[[Fish Pie]]'
p16
I15
sS'[[Pancake]]'
p17
I57
sS'[[Popcorn]]'
p18
I43
sS'[[Goat Cheese]]'
p19
I55
sS'[[Potato Bread]]'
p20
I41
sS'[[Goat Feed]]'
p21
I87
sS'[[Red Berry Cake]]'
p22
I10
sS'[[Pizza]]'
p23
I46
sS'[[Syrup]]'
p24
I24
sS'[[Sheep Feed]]'
p25
I11
sS'[[Cherry Popsicle]]'
p26
I56
sS'[[Bacon and Eggs]]'
p27
I68
sS'[[Carrot Juice]]'
p28
I48
sS'[[Baked Potato]]'
p29
I81
sS'[[Milk]]'
p30
I20
sS'[[Apple Jam]]'
p31
I4
sS'[[Carrot]]'
p32
I79
sS'[[Blackberry]]'
p33
I69
sS'[[Cotton Shirt]]'
p34
I71
sS'[[Cream]]'
p35
I63
sS'[[Raspberry Jam]]'
p36
I19
sS'[[Cherry]]'
p37
I52
sS'[[Bread]]'
p38
I75
sS'[[Wheat]]'
p39
I35
sS'[[Casserole]]'
p40
I31
sS'[[Strawberry]]'
p41
I82
sS'[[Honey Popcorn]]'
p42
I32
sS'[[Honeycomb]]'
p43
I22
sS'[[Indigo]]'
p44
I39
sS'[[Raspberry]]'
p45
I70
sS'[[Chocolate Cake]]'
p46
I72
sS'[[Spicy Pizza]]'
p47
I90
sS'[[Cacao]]'
p48
I6
sS'[[Woolly Chaps]]'
p49
I53
sS'[[Carrot Cake]]'
p50
I80
sS'[[Egg]]'
p51
I13
sS'[[Strawberry Cake]]'
p52
I86
sS'[[Cherry Juice]]'
p53
I7
sS'[[Fish Burger]]'
p54
I83
sS'[[White Sugar]]'
p55
I89
sS'[[Buttered Popcorn]]'
p56
I36
sS'[[Cream Cake]]'
p57
I44
sS'[[Soybean]]'
p58
I49
sS'[[Apple]]'
p59
I50
sS'[[Blue Woolly Hat]]'
p60
I12
sS'[[Goat Milk]]'
p61
I28
sS'[[Hamburger]]'
p62
I66
sS'[[Cherry Jam]]'
p63
I27
sS"[[Shepherd's Pie]]"
p64
I58
sS'[[Brown Sugar]]'
p65
I61
sS'[[Butter]]'
p66
I37
sS'[[Bacon Pie]]'
p67
I30
sS'[[Chili Pepper]]'
p68
I21
sS'[[Corn]]'
p69
I85
sS'[[Fish Fillet]]'
p70
I76
sS'[[Chili Popcorn]]'
p71
I3
sS'[[Bacon]]'
p72
I23
sS'[[Cotton Fabric]]'
p73
I88
sS'[[Pumpkin Pie]]'
p74
I54
sS'[[Potato Feta Cake]]'
p75
I5
sS'[[Sugarcane]]'
p76
I59
sS'[[Cookie]]'
p77
I26
sS'[[Apple Juice]]'
p78
I60
sS'[[Pig Feed]]'
p79
I40
sS'[[Cotton]]'
p80
I77
sS'[[Feta Pie]]'
p81
I9
sS'[[Cheese]]'
p82
I62
sS'[[Chocolate Ice Cream]]'
p83
I25
sS'[[Chicken Feed]]'
p84
I51
sS'[[Corn Bread]]'
p85
I42
sS'[[Wool]]'
p86
I0
sS'[[Roasted Tomatoes]]'
p87
I84
sS'[[Berry Juice]]'
p88
I67
sS'[[Sweater]]'
p89
I38
sS'[[Blackberry Muffin]]'
p90
I8
sS'[[Cow Feed]]'
p91
I17
s.(dp0
S'[[Strawberry Ice Cream]]'
p1
I3
sS'[[Carrot Cake]]'
p2
I1
sS'[[Cherry Juice]]'
p3
I2
sS'[[Fish Pie]]'
p4
I4
sS'[[Honeycomb]]'
p5
I0
sS'[[Wool]]'
p6
I3
sS'[[Sugarcane]]'
p7
I2
sS'[[Sweater]]'
p8
I5
sS'[[Cream Cake]]'
p9
I4
sS'[[Apple Jam]]'
p10
I4
sS'[[Chicken Feed]]'
p11
I5
s.