(dp0
S'[[Pumpkin]]'
p1
I25
sS'[[Blackberry Jam]]'
p2
I0
sS'[[Violet Dress]]'
p3
I90
sS'[[Strawberry Ice Cream]]'
p4
I5
sS'[[Raspberry Muffin]]'
p5
I58
sS'[[Apple Pie]]'
p6
I45
sS'[[Tomato Juice]]'
p7
I83
sS'[[Blue Sweater]]'
p8
I17
sS'[[Honey]]'
p9
I55
sS'[[Vanilla Ice Cream]]'
p10
I80
sS'[[Lure]]'
p11
I38
sS'[[Carrot Pie]]'
p12
I26
sS'[[Tomato]]'
p13
I81
sS'[[Potato]]'
p14
I35
sS'[[Cheesecake]]'
p15
I21
sS'[[Fish Pie]]'
p16
I13
sS'[[Pancake]]'
p17
I11
sS'[[Popcorn]]'
p18
I89
sS'[[Goat Cheese]]'
p19
I19
sS'[[Potato Bread]]'
p20
I71
sS'[[Goat Feed]]'
p21
I62
sS'[[Red Berry Cake]]'
p22
I10
sS'[[Pizza]]'
p23
I82
sS'[[Syrup]]'
p24
I7
sS'[[Sheep Feed]]'
p25
I63
sS'[[Cherry Popsicle]]'
p26
I23
sS'[[Bacon and Eggs]]'
p27
I52
sS'[[Carrot]]'
p28
I28
sS'[[Carrot Juice]]'
p29
I33
sS'[[Baked Potato]]'
p30
I36
sS'[[Milk]]'
p31
I22
sS'[[Apple Jam]]'
p32
I88
sS'[[Apple]]'
p33
I59
sS'[[Blackberry]]'
p34
I8
sS'[[Cotton Shirt]]'
p35
I43
sS'[[Cream]]'
p36
I74
sS'[[Raspberry Jam]]'
p37
I86
sS'[[Cherry]]'
p38
I2
sS'[[Bread]]'
p39
I70
sS'[[Wheat]]'
p40
I34
sS'[[Casserole]]'
p41
I31
sS'[[Strawberry]]'
p42
I41
sS'[[Potato Feta Cake]]'
p43
I15
sS'[[Honeycomb]]'
p44
I37
sS'[[Indigo]]'
p45
I48
sS'[[Raspberry]]'
p46
I14
sS'[[Chocolate Cake]]'
p47
I60
sS'[[Spicy Pizza]]'
p48
I9
sS'[[Cacao]]'
p49
I20
sS'[[Woolly Chaps]]'
p50
I18
sS'[[Carrot Cake]]'
p51
I57
sS'[[Egg]]'
p52
I27
sS'[[Strawberry Cake]]'
p53
I42
sS'[[Cherry Juice]]'
p54
I46
sS'[[Fish Burger]]'
p55
I73
sS'[[White Sugar]]'
p56
I61
sS'[[Buttered Popcorn]]'
p57
I85
sS'[[Cream Cake]]'
p58
I29
sS'[[Soybean]]'
p59
I53
sS'[[Brown Sugar]]'
p60
I1
sS'[[Blue Woolly Hat]]'
p61
I32
sS'[[Goat Milk]]'
p62
I39
sS'[[Hamburger]]'
p63
I47
sS'[[Cherry Jam]]'
p64
I12
sS"[[Shepherd's Pie]]"
p65
I78
sS'[[Butter]]'
p66
I69
sS'[[Bacon Pie]]'
p67
I6
sS'[[Chili Pepper]]'
p68
I75
sS'[[Corn]]'
p69
I40
sS'[[Fish Fillet]]'
p70
I77
sS'[[Chili Popcorn]]'
p71
I16
sS'[[Bacon]]'
p72
I68
sS'[[Cotton Fabric]]'
p73
I50
sS'[[Pumpkin Pie]]'
p74
I76
sS'[[Honey Popcorn]]'
p75
I67
sS'[[Sugarcane]]'
p76
I72
sS'[[Cookie]]'
p77
I56
sS'[[Apple Juice]]'
p78
I65
sS'[[Pig Feed]]'
p79
I84
sS'[[Cotton]]'
p80
I51
sS'[[Feta Pie]]'
p81
I64
sS'[[Cheese]]'
p82
I79
sS'[[Chocolate Ice Cream]]'
p83
I4
sS'[[Chicken Feed]]'
p84
I87
sS'[[Corn Bread]]'
p85
I24
sS'[[Wool]]'
p86
I30
sS'[[Roasted Tomatoes]]'
p87
I54
sS'[[Berry Juice]]'
p88
I49
sS'[[Sweater]]'
p89
I44
sS'[[Blackberry Muffin]]'
p90
I3
sS'[[Cow Feed]]'
p91
I66
s.(dp0
S'[[Wheat]]'
p1
I5
sS'[[Brown Sugar]]'
p2
I0
sS'[[Corn]]'
p3
I3
sS'[[Strawberry]]'
p4
I2
sS'[[Cacao]]'
p5
I4
sS'[[Blackberry Jam]]'
p6
I1
sS'[[Goat Milk]]'
p7
I2
sS'[[Egg]]'
p8
I5
sS'[[Cheese]]'
p9
I3
sS'[[Carrot Pie]]'
p10
I1
sS'[[Pizza]]'
p11
I3
s.