(dp0
S'[[Pumpkin]]'
p1
I56
sS'[[Blackberry Jam]]'
p2
I57
sS'[[Violet Dress]]'
p3
I2
sS'[[Strawberry Ice Cream]]'
p4
I40
sS'[[Raspberry Muffin]]'
p5
I72
sS'[[Apple Pie]]'
p6
I13
sS'[[Tomato Juice]]'
p7
I74
sS'[[Blue Sweater]]'
p8
I83
sS'[[Honey]]'
p9
I69
sS'[[Vanilla Ice Cream]]'
p10
I88
sS'[[Lure]]'
p11
I55
sS'[[Carrot Pie]]'
p12
I28
sS'[[Tomato]]'
p13
I42
sS'[[Potato]]'
p14
I76
sS'[[Cheesecake]]'
p15
I49
sS'[[Fish Pie]]'
p16
I50
sS'[[Pancake]]'
p17
I44
sS'[[Popcorn]]'
p18
I21
sS'[[Goat Cheese]]'
p19
I89
sS'[[Potato Bread]]'
p20
I41
sS'[[Goat Feed]]'
p21
I79
sS'[[Red Berry Cake]]'
p22
I70
sS'[[Pizza]]'
p23
I47
sS'[[Syrup]]'
p24
I26
sS'[[Sheep Feed]]'
p25
I63
sS'[[Cherry Popsicle]]'
p26
I52
sS'[[Bacon and Eggs]]'
p27
I73
sS'[[Carrot Juice]]'
p28
I53
sS'[[Baked Potato]]'
p29
I67
sS'[[Milk]]'
p30
I58
sS'[[Apple Jam]]'
p31
I17
sS'[[Carrot]]'
p32
I64
sS'[[Blackberry]]'
p33
I43
sS'[[Cotton Shirt]]'
p34
I80
sS'[[Cream]]'
p35
I68
sS'[[Raspberry Jam]]'
p36
I71
sS'[[Cherry]]'
p37
I85
sS'[[Bread]]'
p38
I19
sS'[[Wheat]]'
p39
I18
sS'[[Casserole]]'
p40
I66
sS'[[Strawberry]]'
p41
I3
sS'[[Honey Popcorn]]'
p42
I51
sS'[[Honeycomb]]'
p43
I75
sS'[[Indigo]]'
p44
I77
sS'[[Raspberry]]'
p45
I59
sS'[[Chocolate Cake]]'
p46
I39
sS'[[Spicy Pizza]]'
p47
I22
sS'[[Cacao]]'
p48
I7
sS'[[Woolly Chaps]]'
p49
I46
sS'[[Carrot Cake]]'
p50
I11
sS'[[Egg]]'
p51
I37
sS'[[Strawberry Cake]]'
p52
I87
sS'[[Cherry Juice]]'
p53
I4
sS'[[Fish Burger]]'
p54
I34
sS'[[White Sugar]]'
p55
I1
sS'[[Buttered Popcorn]]'
p56
I90
sS'[[Cream Cake]]'
p57
I27
sS'[[Soybean]]'
p58
I30
sS'[[Apple]]'
p59
I86
sS'[[Blue Woolly Hat]]'
p60
I5
sS'[[Goat Milk]]'
p61
I38
sS'[[Hamburger]]'
p62
I62
sS'[[Cherry Jam]]'
p63
I8
sS"[[Shepherd's Pie]]"
p64
I15
sS'[[Brown Sugar]]'
p65
I33
sS'[[Butter]]'
p66
I65
sS'[[Bacon Pie]]'
p67
I78
sS'[[Chili Pepper]]'
p68
I48
sS'[[Corn]]'
p69
I12
sS'[[Fish Fillet]]'
p70
I23
sS'[[Chili Popcorn]]'
p71
I24
sS'[[Bacon]]'
p72
I25
sS'[[Cotton Fabric]]'
p73
I32
sS'[[Pumpkin Pie]]'
p74
I84
sS'[[Potato Feta Cake]]'
p75
I35
sS'[[Sugarcane]]'
p76
I45
sS'[[Cookie]]'
p77
I54
sS'[[Apple Juice]]'
p78
I14
sS'[[Pig Feed]]'
p79
I20
sS'[[Cotton]]'
p80
I36
sS'[[Feta Pie]]'
p81
I82
sS'[[Cheese]]'
p82
I6
sS'[[Chocolate Ice Cream]]'
p83
I81
sS'[[Chicken Feed]]'
p84
I9
sS'[[Corn Bread]]'
p85
I31
sS'[[Wool]]'
p86
I0
sS'[[Roasted Tomatoes]]'
p87
I61
sS'[[Berry Juice]]'
p88
I16
sS'[[Sweater]]'
p89
I29
sS'[[Blackberry Muffin]]'
p90
I10
sS'[[Cow Feed]]'
p91
I60
s.(dp0
S'[[Lure]]'
p1
I1
sS'[[Blue Woolly Hat]]'
p2
I2
sS'[[Honey Popcorn]]'
p3
I4
sS'[[Cookie]]'
p4
I5
sS'[[Baked Potato]]'
p5
I1
sS'[[Spicy Pizza]]'
p6
I3
sS'[[Cream]]'
p7
I2
sS'[[Tomato Juice]]'
p8
I1
sS'[[Buttered Popcorn]]'
p9
I2
sS'[[Cherry]]'
p10
I3
sS'[[Apple Juice]]'
p11
I2
s.