(dp0
S'[[Pumpkin]]'
p1
I63
sS'[[Blackberry Jam]]'
p2
I29
sS'[[Violet Dress]]'
p3
I13
sS'[[Strawberry Ice Cream]]'
p4
I24
sS'[[Raspberry Muffin]]'
p5
I57
sS'[[Apple Pie]]'
p6
I16
sS'[[Tomato Juice]]'
p7
I18
sS'[[Blue Sweater]]'
p8
I52
sS'[[Honey]]'
p9
I35
sS'[[Vanilla Ice Cream]]'
p10
I79
sS'[[Lure]]'
p11
I4
sS'[[Carrot Pie]]'
p12
I12
sS'[[Tomato]]'
p13
I62
sS'[[Potato]]'
p14
I39
sS'[[Cheesecake]]'
p15
I2
sS'[[Fish Pie]]'
p16
I17
sS'[[Pancake]]'
p17
I11
sS'[[Popcorn]]'
p18
I73
sS'[[Goat Cheese]]'
p19
I36
sS'[[Potato Bread]]'
p20
I0
sS'[[Goat Feed]]'
p21
I49
sS'[[Red Berry Cake]]'
p22
I66
sS'[[Pizza]]'
p23
I43
sS'[[Syrup]]'
p24
I70
sS'[[Sheep Feed]]'
p25
I45
sS'[[Cherry Popsicle]]'
p26
I58
sS'[[Bacon and Eggs]]'
p27
I50
sS'[[Carrot]]'
p28
I8
sS'[[Carrot Juice]]'
p29
I15
sS'[[Baked Potato]]'
p30
I59
sS'[[Milk]]'
p31
I90
sS'[[Apple Jam]]'
p32
I42
sS'[[Apple]]'
p33
I44
sS'[[Blackberry]]'
p34
I83
sS'[[Cotton Shirt]]'
p35
I27
sS'[[Cream]]'
p36
I30
sS'[[Raspberry Jam]]'
p37
I6
sS'[[Cherry]]'
p38
I32
sS'[[Bread]]'
p39
I77
sS'[[Wheat]]'
p40
I31
sS'[[Casserole]]'
p41
I34
sS'[[Strawberry]]'
p42
I23
sS'[[Potato Feta Cake]]'
p43
I7
sS'[[Honeycomb]]'
p44
I76
sS'[[Indigo]]'
p45
I40
sS'[[Raspberry]]'
p46
I85
sS'[[Chocolate Cake]]'
p47
I64
sS'[[Spicy Pizza]]'
p48
I22
sS'[[Cacao]]'
p49
I69
sS'[[Woolly Chaps]]'
p50
I26
sS'[[Carrot Cake]]'
p51
I10
sS'[[Egg]]'
p52
I48
sS'[[Strawberry Cake]]'
p53
I86
sS'[[Cherry Juice]]'
p54
I5
sS'[[Fish Burger]]'
p55
I71
sS'[[White Sugar]]'
p56
I37
sS'[[Buttered Popcorn]]'
p57
I53
sS'[[Cream Cake]]'
p58
I55
sS'[[Soybean]]'
p59
I3
sS'[[Brown Sugar]]'
p60
I74
sS'[[Blue Woolly Hat]]'
p61
I33
sS'[[Goat Milk]]'
p62
I25
sS'[[Hamburger]]'
p63
I60
sS'[[Cherry Jam]]'
p64
I88
sS"[[Shepherd's Pie]]"
p65
I89
sS'[[Butter]]'
p66
I38
sS'[[Bacon Pie]]'
p67
I72
sS'[[Chili Pepper]]'
p68
I54
sS'[[Corn]]'
p69
I41
sS'[[Fish Fillet]]'
p70
I68
sS'[[Chili Popcorn]]'
p71
I65
sS'[[Bacon]]'
p72
I78
sS'[[Cotton Fabric]]'
p73
I14
sS'[[Pumpkin Pie]]'
p74
I19
sS'[[Honey Popcorn]]'
p75
I51
sS'[[Sugarcane]]'
p76
I67
sS'[[Cookie]]'
p77
I87
sS'[[Apple Juice]]'
p78
I1
sS'[[Pig Feed]]'
p79
I81
sS'[[Cotton]]'
p80
I21
sS'[[Feta Pie]]'
p81
I82
sS'[[Cheese]]'
p82
I75
sS'[[Chocolate Ice Cream]]'
p83
I56
sS'[[Chicken Feed]]'
p84
I84
sS'[[Corn Bread]]'
p85
I46
sS'[[Wool]]'
p86
I20
sS'[[Roasted Tomatoes]]'
p87
I80
sS'[[Berry Juice]]'
p88
I47
sS'[[Sweater]]'
p89
I9
sS'[[Blackberry Muffin]]'
p90
I28
sS'[[Cow Feed]]'
p91
I61
s.(dp0
S'[[Pig Feed]]'
p1
I1
sS'[[Pumpkin Pie]]'
p2
I1
sS'[[Popcorn]]'
p3
I0
sS'[[Carrot]]'
p4
I1
sS'[[Pumpkin]]'
p5
I5
sS'[[Cookie]]'
p6
I1
sS'[[Cotton Shirt]]'
p7
I1
sS'[[Chocolate Ice Cream]]'
p8
I0
sS'[[Cherry]]'
p9
I2
sS'[[Bread]]'
p10
I4
sS'[[Soybean]]'
p11
I0
s.