(dp0
S'[[Pumpkin]]'
p1
I33
sS'[[Blackberry Jam]]'
p2
I73
sS'[[Violet Dress]]'
p3
I87
sS'[[Strawberry Ice Cream]]'
p4
I63
sS'[[Raspberry Muffin]]'
p5
I28
sS'[[Apple Pie]]'
p6
I8
sS'[[Tomato Juice]]'
p7
I31
sS'[[Carrot Cake]]'
p8
I52
sS'[[Vanilla Ice Cream]]'
p9
I85
sS'[[Lure]]'
p10
I34
sS'[[Carrot Pie]]'
p11
I51
sS'[[Tomato]]'
p12
I70
sS'[[Cherry Juice]]'
p13
I3
sS'[[Cheesecake]]'
p14
I50
sS'[[Fish Pie]]'
p15
I71
sS'[[Pancake]]'
p16
I7
sS'[[Popcorn]]'
p17
I14
sS'[[Goat Cheese]]'
p18
I37
sS'[[Potato Bread]]'
p19
I72
sS'[[Goat Feed]]'
p20
I0
sS'[[Red Berry Cake]]'
p21
I22
sS'[[Pizza]]'
p22
I16
sS'[[Syrup]]'
p23
I30
sS'[[Sheep Feed]]'
p24
I49
sS'[[Cherry Popsicle]]'
p25
I65
sS'[[Bacon and Eggs]]'
p26
I21
sS'[[Carrot]]'
p27
I62
sS'[[Carrot Juice]]'
p28
I24
sS'[[Baked Potato]]'
p29
I4
sS'[[Milk]]'
p30
I13
sS'[[Apple Jam]]'
p31
I27
sS'[[Apple]]'
p32
I76
sS'[[Blackberry]]'
p33
I41
sS'[[Cotton Shirt]]'
p34
I80
sS'[[Cream]]'
p35
I36
sS'[[Raspberry Jam]]'
p36
I48
sS'[[Cherry]]'
p37
I53
sS'[[Bread]]'
p38
I58
sS'[[Wheat]]'
p39
I90
sS'[[Casserole]]'
p40
I86
sS'[[Chili Pepper]]'
p41
I10
sS'[[Honey Popcorn]]'
p42
I25
sS'[[Honeycomb]]'
p43
I39
sS'[[Indigo]]'
p44
I81
sS'[[Raspberry]]'
p45
I82
sS'[[Chocolate Cake]]'
p46
I23
sS'[[Spicy Pizza]]'
p47
I35
sS'[[Cacao]]'
p48
I77
sS'[[Woolly Chaps]]'
p49
I40
sS'[[Honey]]'
p50
I57
sS'[[Egg]]'
p51
I20
sS'[[Strawberry Cake]]'
p52
I75
sS'[[Potato]]'
p53
I32
sS'[[Fish Burger]]'
p54
I12
sS'[[White Sugar]]'
p55
I64
sS'[[Buttered Popcorn]]'
p56
I47
sS'[[Cream Cake]]'
p57
I5
sS'[[Soybean]]'
p58
I69
sS'[[Brown Sugar]]'
p59
I68
sS'[[Blue Woolly Hat]]'
p60
I38
sS'[[Goat Milk]]'
p61
I46
sS'[[Hamburger]]'
p62
I43
sS'[[Cherry Jam]]'
p63
I56
sS"[[Shepherd's Pie]]"
p64
I83
sS'[[Butter]]'
p65
I84
sS'[[Bacon Pie]]'
p66
I15
sS'[[Strawberry]]'
p67
I19
sS'[[Pumpkin Pie]]'
p68
I60
sS'[[Corn]]'
p69
I42
sS'[[Fish Fillet]]'
p70
I54
sS'[[Chili Popcorn]]'
p71
I11
sS'[[Bacon]]'
p72
I45
sS'[[Cotton Fabric]]'
p73
I29
sS'[[Blue Sweater]]'
p74
I88
sS'[[Potato Feta Cake]]'
p75
I55
sS'[[Sugarcane]]'
p76
I26
sS'[[Cookie]]'
p77
I79
sS'[[Apple Juice]]'
p78
I1
sS'[[Pig Feed]]'
p79
I67
sS'[[Cotton]]'
p80
I59
sS'[[Feta Pie]]'
p81
I18
sS'[[Cheese]]'
p82
I6
sS'[[Chocolate Ice Cream]]'
p83
I9
sS'[[Chicken Feed]]'
p84
I61
sS'[[Corn Bread]]'
p85
I44
sS'[[Wool]]'
p86
I2
sS'[[Roasted Tomatoes]]'
p87
I74
sS'[[Berry Juice]]'
p88
I66
sS'[[Sweater]]'
p89
I89
sS'[[Blackberry Muffin]]'
p90
I17
sS'[[Cow Feed]]'
p91
I78
s.(dp0
S'[[Blue Sweater]]'
p1
I3
sS'[[Casserole]]'
p2
I0
sS'[[Popcorn]]'
p3
I2
sS'[[Woolly Chaps]]'
p4
I4
sS'[[Honey]]'
p5
I4
sS'[[Blue Woolly Hat]]'
p6
I0
sS'[[Apple Pie]]'
p7
I0
sS'[[Egg]]'
p8
I2
sS'[[Brown Sugar]]'
p9
I0
sS'[[Tomato Juice]]'
p10
I1
sS'[[Sweater]]'
p11
I1
sS'[[Cream Cake]]'
p12
I2
sS'[[Pizza]]'
p13
I5
s.