(dp0
S'[[Pumpkin]]'
p1
I31
sS'[[Blackberry Jam]]'
p2
I59
sS'[[Violet Dress]]'
p3
I18
sS'[[Strawberry Ice Cream]]'
p4
I72
sS'[[Raspberry Muffin]]'
p5
I89
sS'[[Apple Pie]]'
p6
I56
sS'[[Tomato Juice]]'
p7
I37
sS'[[Carrot Cake]]'
p8
I30
sS'[[Vanilla Ice Cream]]'
p9
I38
sS'[[Lure]]'
p10
I16
sS'[[Carrot Pie]]'
p11
I43
sS'[[Tomato]]'
p12
I27
sS'[[Cherry Juice]]'
p13
I34
sS'[[Cheesecake]]'
p14
I69
sS'[[Fish Pie]]'
p15
I6
sS'[[Pancake]]'
p16
I81
sS'[[Popcorn]]'
p17
I57
sS'[[Goat Cheese]]'
p18
I80
sS'[[Potato Bread]]'
p19
I22
sS'[[Goat Feed]]'
p20
I70
sS'[[Red Berry Cake]]'
p21
I11
sS'[[Pizza]]'
p22
I58
sS'[[Syrup]]'
p23
I60
sS'[[Sheep Feed]]'
p24
I55
sS'[[Cherry Popsicle]]'
p25
I74
sS'[[Bacon and Eggs]]'
p26
I33
sS'[[Carrot Juice]]'
p27
I12
sS'[[Baked Potato]]'
p28
I51
sS'[[Milk]]'
p29
I7
sS'[[Apple Jam]]'
p30
I36
sS'[[Carrot]]'
p31
I77
sS'[[Blackberry]]'
p32
I61
sS'[[Cotton Shirt]]'
p33
I4
sS'[[Cream]]'
p34
I54
sS'[[Raspberry Jam]]'
p35
I45
sS'[[Cherry]]'
p36
I68
sS'[[Bread]]'
p37
I46
sS'[[Wheat]]'
p38
I23
sS'[[Casserole]]'
p39
I88
sS'[[Chili Pepper]]'
p40
I44
sS'[[Potato Feta Cake]]'
p41
I76
sS'[[Honeycomb]]'
p42
I63
sS'[[Indigo]]'
p43
I10
sS'[[Raspberry]]'
p44
I25
sS'[[Chocolate Cake]]'
p45
I64
sS'[[Spicy Pizza]]'
p46
I85
sS'[[Cacao]]'
p47
I48
sS'[[Woolly Chaps]]'
p48
I20
sS'[[Honey]]'
p49
I8
sS'[[Egg]]'
p50
I82
sS'[[Strawberry Cake]]'
p51
I39
sS'[[Potato]]'
p52
I32
sS'[[Fish Burger]]'
p53
I35
sS'[[White Sugar]]'
p54
I15
sS'[[Buttered Popcorn]]'
p55
I17
sS'[[Cream Cake]]'
p56
I29
sS'[[Soybean]]'
p57
I0
sS'[[Apple]]'
p58
I65
sS'[[Blue Woolly Hat]]'
p59
I52
sS'[[Goat Milk]]'
p60
I79
sS'[[Hamburger]]'
p61
I84
sS'[[Cherry Jam]]'
p62
I53
sS"[[Shepherd's Pie]]"
p63
I67
sS'[[Brown Sugar]]'
p64
I41
sS'[[Butter]]'
p65
I49
sS'[[Bacon Pie]]'
p66
I9
sS'[[Strawberry]]'
p67
I21
sS'[[Pumpkin Pie]]'
p68
I13
sS'[[Corn]]'
p69
I5
sS'[[Fish Fillet]]'
p70
I62
sS'[[Chili Popcorn]]'
p71
I87
sS'[[Bacon]]'
p72
I83
sS'[[Cotton Fabric]]'
p73
I86
sS'[[Blue Sweater]]'
p74
I14
sS'[[Honey Popcorn]]'
p75
I73
sS'[[Sugarcane]]'
p76
I2
sS'[[Cookie]]'
p77
I1
sS'[[Apple Juice]]'
p78
I78
sS'[[Pig Feed]]'
p79
I26
sS'[[Cotton]]'
p80
I47
sS'[[Feta Pie]]'
p81
I3
sS'[[Cheese]]'
p82
I42
sS'[[Chocolate Ice Cream]]'
p83
I71
sS'[[Chicken Feed]]'
p84
I66
sS'[[Corn Bread]]'
p85
I50
sS'[[Wool]]'
p86
I90
sS'[[Roasted Tomatoes]]'
p87
I75
sS'[[Berry Juice]]'
p88
I24
sS'[[Sweater]]'
p89
I19
sS'[[Blackberry Muffin]]'
p90
I28
sS'[[Cow Feed]]'
p91
I40
s.(dp0
S'[[Blue Sweater]]'
p1
I4
sS'[[Goat Milk]]'
p2
I2
sS'[[Woolly Chaps]]'
p3
I5
sS'[[Cotton]]'
p4
I2
sS'[[Apple]]'
p5
I2
sS'[[Berry Juice]]'
p6
I0
sS'[[Goat Cheese]]'
p7
I2
sS'[[Cheese]]'
p8
I0
sS'[[Sweater]]'
p9
I5
sS'[[Cow Feed]]'
p10
I1
sS'[[Goat Feed]]'
p11
I3
s.