(dp0
S'[[Pumpkin]]'
p1
I23
sS'[[Blackberry Jam]]'
p2
I57
sS'[[Violet Dress]]'
p3
I70
sS'[[Strawberry Ice Cream]]'
p4
I27
sS'[[Raspberry Muffin]]'
p5
I44
sS'[[Apple Pie]]'
p6
I35
sS'[[Tomato Juice]]'
p7
I55
sS'[[Blue Sweater]]'
p8
I63
sS'[[Honey]]'
p9
I90
sS'[[Vanilla Ice Cream]]'
p10
I88
sS'[[Lure]]'
p11
I62
sS'[[Carrot Pie]]'
p12
I71
sS'[[Tomato]]'
p13
I12
sS'[[Potato]]'
p14
I84
sS'[[Cheesecake]]'
p15
I79
sS'[[Fish Pie]]'
p16
I3
sS'[[Pancake]]'
p17
I45
sS'[[Popcorn]]'
p18
I66
sS'[[Goat Cheese]]'
p19
I28
sS'[[Potato Bread]]'
p20
I48
sS'[[Goat Feed]]'
p21
I51
sS'[[Red Berry Cake]]'
p22
I31
sS'[[Pizza]]'
p23
I14
sS'[[Syrup]]'
p24
I7
sS'[[Sheep Feed]]'
p25
I87
sS'[[Cherry Popsicle]]'
p26
I52
sS'[[Bacon and Eggs]]'
p27
I24
sS'[[Carrot]]'
p28
I54
sS'[[Carrot Juice]]'
p29
I38
sS'[[Baked Potato]]'
p30
I10
sS'[[Milk]]'
p31
I4
sS'[[Apple Jam]]'
p32
I53
sS'[[Apple]]'
p33
I60
sS'[[Blackberry]]'
p34
I68
sS'[[Cotton Shirt]]'
p35
I47
sS'[[Cream]]'
p36
I64
sS'[[Raspberry Jam]]'
p37
I80
sS'[[Cherry]]'
p38
I0
sS'[[Bread]]'
p39
I82
sS'[[Wheat]]'
p40
I11
sS'[[Casserole]]'
p41
I81
sS'[[Strawberry]]'
p42
I59
sS'[[Potato Feta Cake]]'
p43
I39
sS'[[Honeycomb]]'
p44
I17
sS'[[Indigo]]'
p45
I19
sS'[[Raspberry]]'
p46
I49
sS'[[Chocolate Cake]]'
p47
I43
sS'[[Spicy Pizza]]'
p48
I67
sS'[[Cacao]]'
p49
I34
sS'[[Woolly Chaps]]'
p50
I8
sS'[[Carrot Cake]]'
p51
I13
sS'[[Egg]]'
p52
I50
sS'[[Strawberry Cake]]'
p53
I2
sS'[[Cherry Juice]]'
p54
I20
sS'[[Fish Burger]]'
p55
I72
sS'[[White Sugar]]'
p56
I26
sS'[[Buttered Popcorn]]'
p57
I75
sS'[[Cream Cake]]'
p58
I36
sS'[[Soybean]]'
p59
I76
sS'[[Brown Sugar]]'
p60
I41
sS'[[Blue Woolly Hat]]'
p61
I40
sS'[[Goat Milk]]'
p62
I78
sS'[[Hamburger]]'
p63
I37
sS'[[Cherry Jam]]'
p64
I46
sS"[[Shepherd's Pie]]"
p65
I22
sS'[[Butter]]'
p66
I1
sS'[[Bacon Pie]]'
p67
I42
sS'[[Chili Pepper]]'
p68
I21
sS'[[Corn]]'
p69
I89
sS'[[Fish Fillet]]'
p70
I83
sS'[[Chili Popcorn]]'
p71
I30
sS'[[Bacon]]'
p72
I33
sS'[[Cotton Fabric]]'
p73
I9
sS'[[Pumpkin Pie]]'
p74
I25
sS'[[Honey Popcorn]]'
p75
I6
sS'[[Sugarcane]]'
p76
I5
sS'[[Cookie]]'
p77
I86
sS'[[Apple Juice]]'
p78
I58
sS'[[Pig Feed]]'
p79
I74
sS'[[Cotton]]'
p80
I29
sS'[[Feta Pie]]'
p81
I16
sS'[[Cheese]]'
p82
I32
sS'[[Chocolate Ice Cream]]'
p83
I15
sS'[[Chicken Feed]]'
p84
I73
sS'[[Corn Bread]]'
p85
I77
sS'[[Wool]]'
p86
I18
sS'[[Roasted Tomatoes]]'
p87
I56
sS'[[Berry Juice]]'
p88
I61
sS'[[Sweater]]'
p89
I65
sS'[[Blackberry Muffin]]'
p90
I85
sS'[[Cow Feed]]'
p91
I69
s.(dp0
S'[[Tomato]]'
p1
I4
sS'[[Strawberry]]'
p2
I6
sS'[[Blue Woolly Hat]]'
p3
I0
sS'[[Feta Pie]]'
p4
I4
sS'[[Indigo]]'
p5
I0
sS'[[Fish Burger]]'
p6
I0
sS'[[Lure]]'
p7
I3
sS'[[Cream Cake]]'
p8
I3
sS'[[Apple Juice]]'
p9
I4
sS'[[Bacon and Eggs]]'
p10
I4
s.