(dp0
S'[[Pumpkin]]'
p1
I30
sS'[[Blackberry Jam]]'
p2
I59
sS'[[Violet Dress]]'
p3
I27
sS'[[Strawberry Ice Cream]]'
p4
I65
sS'[[Raspberry Muffin]]'
p5
I74
sS'[[Apple Pie]]'
p6
I62
sS'[[Tomato Juice]]'
p7
I85
sS'[[Blue Sweater]]'
p8
I90
sS'[[Carrot Cake]]'
p9
I57
sS'[[Vanilla Ice Cream]]'
p10
I56
sS'[[Lure]]'
p11
I84
sS'[[Carrot Pie]]'
p12
I75
sS'[[Tomato]]'
p13
I70
sS'[[Cherry Juice]]'
p14
I55
sS'[[Cheesecake]]'
p15
I46
sS'[[Fish Pie]]'
p16
I21
sS'[[Pancake]]'
p17
I63
sS'[[Popcorn]]'
p18
I0
sS'[[Goat Cheese]]'
p19
I45
sS'[[Potato Bread]]'
p20
I42
sS'[[Goat Feed]]'
p21
I38
sS'[[Red Berry Cake]]'
p22
I53
sS'[[Pizza]]'
p23
I51
sS'[[Syrup]]'
p24
I23
sS'[[Sheep Feed]]'
p25
I72
sS'[[Cherry Popsicle]]'
p26
I89
sS'[[Bacon and Eggs]]'
p27
I58
sS'[[Carrot Juice]]'
p28
I9
sS'[[Baked Potato]]'
p29
I88
sS'[[Milk]]'
p30
I43
sS'[[Apple Jam]]'
p31
I29
sS'[[Carrot]]'
p32
I48
sS'[[Blackberry]]'
p33
I80
sS'[[Cotton Shirt]]'
p34
I20
sS'[[Cream]]'
p35
I87
sS'[[Raspberry Jam]]'
p36
I60
sS'[[Cherry]]'
p37
I12
sS'[[Bread]]'
p38
I26
sS'[[Wheat]]'
p39
I22
sS'[[Casserole]]'
p40
I61
sS'[[Strawberry]]'
p41
I8
sS'[[Potato Feta Cake]]'
p42
I1
sS'[[Honeycomb]]'
p43
I73
sS'[[Indigo]]'
p44
I3
sS'[[Raspberry]]'
p45
I83
sS'[[Chocolate Cake]]'
p46
I77
sS'[[Spicy Pizza]]'
p47
I67
sS'[[Cacao]]'
p48
I32
sS'[[Woolly Chaps]]'
p49
I66
sS'[[Honey]]'
p50
I86
sS'[[Egg]]'
p51
I24
sS'[[Strawberry Cake]]'
p52
I10
sS'[[Potato]]'
p53
I13
sS'[[Fish Burger]]'
p54
I18
sS'[[White Sugar]]'
p55
I41
sS'[[Buttered Popcorn]]'
p56
I81
sS'[[Cream Cake]]'
p57
I78
sS'[[Soybean]]'
p58
I2
sS'[[Apple]]'
p59
I19
sS'[[Blue Woolly Hat]]'
p60
I82
sS'[[Goat Milk]]'
p61
I34
sS'[[Hamburger]]'
p62
I11
sS'[[Cherry Jam]]'
p63
I15
sS"[[Shepherd's Pie]]"
p64
I76
sS'[[Brown Sugar]]'
p65
I17
sS'[[Butter]]'
p66
I40
sS'[[Bacon Pie]]'
p67
I25
sS'[[Chili Pepper]]'
p68
I16
sS'[[Corn]]'
p69
I71
sS'[[Fish Fillet]]'
p70
I4
sS'[[Chili Popcorn]]'
p71
I44
sS'[[Bacon]]'
p72
I68
sS'[[Cotton Fabric]]'
p73
I52
sS'[[Pumpkin Pie]]'
p74
I79
sS'[[Honey Popcorn]]'
p75
I36
sS'[[Sugarcane]]'
p76
I28
sS'[[Cookie]]'
p77
I50
sS'[[Apple Juice]]'
p78
I31
sS'[[Pig Feed]]'
p79
I5
sS'[[Cotton]]'
p80
I64
sS'[[Feta Pie]]'
p81
I6
sS'[[Cheese]]'
p82
I69
sS'[[Chocolate Ice Cream]]'
p83
I54
sS'[[Chicken Feed]]'
p84
I39
sS'[[Corn Bread]]'
p85
I7
sS'[[Wool]]'
p86
I33
sS'[[Roasted Tomatoes]]'
p87
I14
sS'[[Berry Juice]]'
p88
I37
sS'[[Sweater]]'
p89
I49
sS'[[Blackberry Muffin]]'
p90
I47
sS'[[Cow Feed]]'
p91
I35
s.(dp0
S'[[Sheep Feed]]'
p1
I0
sS'[[Casserole]]'
p2
I2
sS'[[Cacao]]'
p3
I0
sS'[[Blue Woolly Hat]]'
p4
I1
sS'[[Cherry Juice]]'
p5
I4
sS'[[Tomato Juice]]'
p6
I1
sS'[[Raspberry]]'
p7
I4
sS'[[Sweater]]'
p8
I2
sS'[[Apple Jam]]'
p9
I4
sS'[[Cherry]]'
p10
I2
sS'[[Chicken Feed]]'
p11
I3
s.