(dp0
S'[[Pumpkin]]'
p1
I83
sS'[[Blackberry Jam]]'
p2
I48
sS'[[Violet Dress]]'
p3
I25
sS'[[Strawberry Ice Cream]]'
p4
I3
sS'[[Raspberry Muffin]]'
p5
I26
sS'[[Apple Pie]]'
p6
I31
sS'[[Tomato Juice]]'
p7
I49
sS'[[Blue Sweater]]'
p8
I7
sS'[[Honey]]'
p9
I37
sS'[[Vanilla Ice Cream]]'
p10
I85
sS'[[Lure]]'
p11
I34
sS'[[Carrot Pie]]'
p12
I30
sS'[[Tomato]]'
p13
I46
sS'[[Potato]]'
p14
I86
sS'[[Cheesecake]]'
p15
I38
sS'[[Fish Pie]]'
p16
I13
sS'[[Pancake]]'
p17
I12
sS'[[Popcorn]]'
p18
I47
sS'[[Goat Cheese]]'
p19
I81
sS'[[Potato Bread]]'
p20
I77
sS'[[Goat Feed]]'
p21
I27
sS'[[Red Berry Cake]]'
p22
I1
sS'[[Pizza]]'
p23
I54
sS'[[Syrup]]'
p24
I51
sS'[[Sheep Feed]]'
p25
I40
sS'[[Cherry Popsicle]]'
p26
I5
sS'[[Bacon and Eggs]]'
p27
I42
sS'[[Carrot]]'
p28
I67
sS'[[Carrot Juice]]'
p29
I52
sS'[[Baked Potato]]'
p30
I84
sS'[[Milk]]'
p31
I61
sS'[[Apple Jam]]'
p32
I10
sS'[[Apple]]'
p33
I68
sS'[[Blackberry]]'
p34
I8
sS'[[Cotton Shirt]]'
p35
I74
sS'[[Cream]]'
p36
I28
sS'[[Raspberry Jam]]'
p37
I23
sS'[[Cherry]]'
p38
I57
sS'[[Bread]]'
p39
I29
sS'[[Wheat]]'
p40
I78
sS'[[Casserole]]'
p41
I24
sS'[[Strawberry]]'
p42
I75
sS'[[Potato Feta Cake]]'
p43
I19
sS'[[Honeycomb]]'
p44
I62
sS'[[Indigo]]'
p45
I71
sS'[[Raspberry]]'
p46
I65
sS'[[Chocolate Cake]]'
p47
I58
sS'[[Spicy Pizza]]'
p48
I63
sS'[[Cacao]]'
p49
I70
sS'[[Woolly Chaps]]'
p50
I73
sS'[[Carrot Cake]]'
p51
I39
sS'[[Egg]]'
p52
I59
sS'[[Strawberry Cake]]'
p53
I6
sS'[[Cherry Juice]]'
p54
I4
sS'[[Fish Burger]]'
p55
I82
sS'[[White Sugar]]'
p56
I88
sS'[[Buttered Popcorn]]'
p57
I17
sS'[[Cream Cake]]'
p58
I36
sS'[[Soybean]]'
p59
I64
sS'[[Brown Sugar]]'
p60
I43
sS'[[Blue Woolly Hat]]'
p61
I18
sS'[[Goat Milk]]'
p62
I20
sS'[[Hamburger]]'
p63
I79
sS'[[Cherry Jam]]'
p64
I69
sS"[[Shepherd's Pie]]"
p65
I72
sS'[[Butter]]'
p66
I0
sS'[[Bacon Pie]]'
p67
I66
sS'[[Chili Pepper]]'
p68
I35
sS'[[Corn]]'
p69
I50
sS'[[Fish Fillet]]'
p70
I53
sS'[[Chili Popcorn]]'
p71
I16
sS'[[Bacon]]'
p72
I80
sS'[[Cotton Fabric]]'
p73
I41
sS'[[Pumpkin Pie]]'
p74
I90
sS'[[Honey Popcorn]]'
p75
I22
sS'[[Sugarcane]]'
p76
I56
sS'[[Cookie]]'
p77
I45
sS'[[Apple Juice]]'
p78
I44
sS'[[Pig Feed]]'
p79
I32
sS'[[Cotton]]'
p80
I15
sS'[[Feta Pie]]'
p81
I21
sS'[[Cheese]]'
p82
I9
sS'[[Chocolate Ice Cream]]'
p83
I87
sS'[[Chicken Feed]]'
p84
I11
sS'[[Corn Bread]]'
p85
I76
sS'[[Wool]]'
p86
I60
sS'[[Roasted Tomatoes]]'
p87
I14
sS'[[Berry Juice]]'
p88
I89
sS'[[Sweater]]'
p89
I33
sS'[[Blackberry Muffin]]'
p90
I55
sS'[[Cow Feed]]'
p91
I2
s.(dp0
S'[[Wheat]]'
p1
I0
sS'[[Pig Feed]]'
p2
I1
sS'[[Cheesecake]]'
p3
I1
sS'[[Cacao]]'
p4
I2
sS'[[Carrot Pie]]'
p5
I2
sS'[[Blue Woolly Hat]]'
p6
I5
sS'[[Apple Pie]]'
p7
I2
sS'[[Carrot Juice]]'
p8
I2
sS'[[Indigo]]'
p9
I5
sS'[[Potato Bread]]'
p10
I4
sS'[[Strawberry]]'
p11
I5
s.