(dp0
S'[[Pumpkin]]'
p1
I64
sS'[[Blackberry Jam]]'
p2
I77
sS'[[Violet Dress]]'
p3
I45
sS'[[Strawberry Ice Cream]]'
p4
I7
sS'[[Raspberry Muffin]]'
p5
I69
sS'[[Apple Pie]]'
p6
I74
sS'[[Tomato Juice]]'
p7
I80
sS'[[Blue Sweater]]'
p8
I30
sS'[[Honey]]'
p9
I39
sS'[[Vanilla Ice Cream]]'
p10
I8
sS'[[Lure]]'
p11
I61
sS'[[Carrot Pie]]'
p12
I41
sS'[[Tomato]]'
p13
I23
sS'[[Potato]]'
p14
I90
sS'[[Cheesecake]]'
p15
I51
sS'[[Fish Pie]]'
p16
I34
sS'[[Pancake]]'
p17
I52
sS'[[Popcorn]]'
p18
I79
sS'[[Goat Cheese]]'
p19
I78
sS'[[Potato Bread]]'
p20
I35
sS'[[Goat Feed]]'
p21
I1
sS'[[Red Berry Cake]]'
p22
I49
sS'[[Pizza]]'
p23
I85
sS'[[Syrup]]'
p24
I50
sS'[[Sheep Feed]]'
p25
I38
sS'[[Cherry Popsicle]]'
p26
I66
sS'[[Bacon and Eggs]]'
p27
I18
sS'[[Carrot]]'
p28
I53
sS'[[Carrot Juice]]'
p29
I43
sS'[[Baked Potato]]'
p30
I55
sS'[[Milk]]'
p31
I11
sS'[[Apple Jam]]'
p32
I81
sS'[[Apple]]'
p33
I21
sS'[[Blackberry]]'
p34
I47
sS'[[Cotton Shirt]]'
p35
I54
sS'[[Cream]]'
p36
I6
sS'[[Raspberry Jam]]'
p37
I42
sS'[[Cherry]]'
p38
I76
sS'[[Bread]]'
p39
I67
sS'[[Wheat]]'
p40
I9
sS'[[Casserole]]'
p41
I24
sS'[[Strawberry]]'
p42
I25
sS'[[Potato Feta Cake]]'
p43
I60
sS'[[Honeycomb]]'
p44
I26
sS'[[Indigo]]'
p45
I29
sS'[[Raspberry]]'
p46
I46
sS'[[Chocolate Cake]]'
p47
I4
sS'[[Spicy Pizza]]'
p48
I70
sS'[[Cacao]]'
p49
I14
sS'[[Woolly Chaps]]'
p50
I84
sS'[[Carrot Cake]]'
p51
I20
sS'[[Egg]]'
p52
I27
sS'[[Strawberry Cake]]'
p53
I31
sS'[[Cherry Juice]]'
p54
I2
sS'[[Fish Burger]]'
p55
I63
sS'[[White Sugar]]'
p56
I10
sS'[[Buttered Popcorn]]'
p57
I37
sS'[[Cream Cake]]'
p58
I40
sS'[[Soybean]]'
p59
I16
sS'[[Brown Sugar]]'
p60
I58
sS'[[Blue Woolly Hat]]'
p61
I0
sS'[[Goat Milk]]'
p62
I5
sS'[[Hamburger]]'
p63
I13
sS'[[Cherry Jam]]'
p64
I28
sS"[[Shepherd's Pie]]"
p65
I82
sS'[[Butter]]'
p66
I72
sS'[[Bacon Pie]]'
p67
I33
sS'[[Chili Pepper]]'
p68
I62
sS'[[Corn]]'
p69
I86
sS'[[Fish Fillet]]'
p70
I75
sS'[[Chili Popcorn]]'
p71
I22
sS'[[Bacon]]'
p72
I59
sS'[[Cotton Fabric]]'
p73
I48
sS'[[Pumpkin Pie]]'
p74
I56
sS'[[Honey Popcorn]]'
p75
I36
sS'[[Sugarcane]]'
p76
I71
sS'[[Cookie]]'
p77
I73
sS'[[Apple Juice]]'
p78
I65
sS'[[Pig Feed]]'
p79
I83
sS'[[Cotton]]'
p80
I89
sS'[[Feta Pie]]'
p81
I57
sS'[[Cheese]]'
p82
I87
sS'[[Chocolate Ice Cream]]'
p83
I12
sS'[[Chicken Feed]]'
p84
I19
sS'[[Corn Bread]]'
p85
I3
sS'[[Wool]]'
p86
I68
sS'[[Roasted Tomatoes]]'
p87
I17
sS'[[Berry Juice]]'
p88
I15
sS'[[Sweater]]'
p89
I88
sS'[[Blackberry Muffin]]'
p90
I44
sS'[[Cow Feed]]'
p91
I32
s.(dp0
S'[[Tomato]]'
p1
I1
sS'[[Pig Feed]]'
p2
I2
sS'[[Cow Feed]]'
p3
I4
sS'[[Pumpkin Pie]]'
p4
I2
sS'[[Bacon and Eggs]]'
p5
I0
sS'[[Feta Pie]]'
p6
I2
sS'[[Honeycomb]]'
p7
I2
sS'[[Vanilla Ice Cream]]'
p8
I4
sS'[[Raspberry Jam]]'
p9
I0
sS'[[Cream Cake]]'
p10
I1
sS'[[Bread]]'
p11
I5
s.