(dp0
S'[[Pumpkin]]'
p1
I2
sS'[[Blackberry Jam]]'
p2
I60
sS'[[Violet Dress]]'
p3
I90
sS'[[Strawberry Ice Cream]]'
p4
I68
sS'[[Raspberry Muffin]]'
p5
I39
sS'[[Apple Pie]]'
p6
I62
sS'[[Tomato Juice]]'
p7
I71
sS'[[Blue Sweater]]'
p8
I50
sS'[[Honey]]'
p9
I24
sS'[[Vanilla Ice Cream]]'
p10
I55
sS'[[Lure]]'
p11
I80
sS'[[Carrot Pie]]'
p12
I40
sS'[[Tomato]]'
p13
I18
sS'[[Potato]]'
p14
I36
sS'[[Cheesecake]]'
p15
I5
sS'[[Fish Pie]]'
p16
I51
sS'[[Pancake]]'
p17
I46
sS'[[Popcorn]]'
p18
I82
sS'[[Goat Cheese]]'
p19
I66
sS'[[Potato Bread]]'
p20
I41
sS'[[Goat Feed]]'
p21
I88
sS'[[Red Berry Cake]]'
p22
I65
sS'[[Pizza]]'
p23
I45
sS'[[Syrup]]'
p24
I83
sS'[[Sheep Feed]]'
p25
I33
sS'[[Cherry Popsicle]]'
p26
I19
sS'[[Bacon and Eggs]]'
p27
I81
sS'[[Carrot Juice]]'
p28
I47
sS'[[Baked Potato]]'
p29
I21
sS'[[Milk]]'
p30
I42
sS'[[Apple Jam]]'
p31
I14
sS'[[Carrot]]'
p32
I16
sS'[[Blackberry]]'
p33
I17
sS'[[Cotton Shirt]]'
p34
I4
sS'[[Cream]]'
p35
I11
sS'[[Raspberry Jam]]'
p36
I6
sS'[[Cherry]]'
p37
I29
sS'[[Bread]]'
p38
I12
sS'[[Wheat]]'
p39
I23
sS'[[Casserole]]'
p40
I61
sS'[[Strawberry]]'
p41
I79
sS'[[Honey Popcorn]]'
p42
I35
sS'[[Honeycomb]]'
p43
I53
sS'[[Indigo]]'
p44
I44
sS'[[Raspberry]]'
p45
I75
sS'[[Chocolate Cake]]'
p46
I86
sS'[[Spicy Pizza]]'
p47
I54
sS'[[Cacao]]'
p48
I67
sS'[[Woolly Chaps]]'
p49
I58
sS'[[Carrot Cake]]'
p50
I7
sS'[[Egg]]'
p51
I8
sS'[[Strawberry Cake]]'
p52
I28
sS'[[Cherry Juice]]'
p53
I20
sS'[[Fish Burger]]'
p54
I59
sS'[[White Sugar]]'
p55
I78
sS'[[Buttered Popcorn]]'
p56
I49
sS'[[Cream Cake]]'
p57
I38
sS'[[Soybean]]'
p58
I31
sS'[[Apple]]'
p59
I32
sS'[[Blue Woolly Hat]]'
p60
I77
sS'[[Goat Milk]]'
p61
I69
sS'[[Hamburger]]'
p62
I72
sS'[[Cherry Jam]]'
p63
I57
sS"[[Shepherd's Pie]]"
p64
I15
sS'[[Brown Sugar]]'
p65
I27
sS'[[Butter]]'
p66
I43
sS'[[Bacon Pie]]'
p67
I74
sS'[[Chili Pepper]]'
p68
I56
sS'[[Corn]]'
p69
I64
sS'[[Fish Fillet]]'
p70
I84
sS'[[Chili Popcorn]]'
p71
I25
sS'[[Bacon]]'
p72
I34
sS'[[Cotton Fabric]]'
p73
I9
sS'[[Pumpkin Pie]]'
p74
I0
sS'[[Potato Feta Cake]]'
p75
I63
sS'[[Sugarcane]]'
p76
I70
sS'[[Cookie]]'
p77
I85
sS'[[Apple Juice]]'
p78
I13
sS'[[Pig Feed]]'
p79
I87
sS'[[Cotton]]'
p80
I76
sS'[[Feta Pie]]'
p81
I52
sS'[[Cheese]]'
p82
I30
sS'[[Chocolate Ice Cream]]'
p83
I3
sS'[[Chicken Feed]]'
p84
I48
sS'[[Corn Bread]]'
p85
I37
sS'[[Wool]]'
p86
I22
sS'[[Roasted Tomatoes]]'
p87
I26
sS'[[Berry Juice]]'
p88
I10
sS'[[Sweater]]'
p89
I1
sS'[[Blackberry Muffin]]'
p90
I89
sS'[[Cow Feed]]'
p91
I73
s.(dp0
S'[[Casserole]]'
p1
I0
sS'[[Popcorn]]'
p2
I2
sS'[[Woolly Chaps]]'
p3
I5
sS'[[Honey]]'
p4
I4
sS'[[Blue Woolly Hat]]'
p5
I0
sS'[[Cotton Shirt]]'
p6
I5
sS'[[Spicy Pizza]]'
p7
I0
sS'[[Indigo]]'
p8
I0
sS'[[Sugarcane]]'
p9
I1
sS'[[Sweater]]'
p10
I2
sS'[[Pizza]]'
p11
I5
s.