(dp0
S'[[Pumpkin]]'
p1
I81
sS'[[Blackberry Jam]]'
p2
I23
sS'[[Violet Dress]]'
p3
I38
sS'[[Strawberry Ice Cream]]'
p4
I6
sS'[[Raspberry Muffin]]'
p5
I62
sS'[[Apple Pie]]'
p6
I74
sS'[[Tomato Juice]]'
p7
I36
sS'[[Blue Sweater]]'
p8
I40
sS'[[Carrot Cake]]'
p9
I24
sS'[[Vanilla Ice Cream]]'
p10
I45
sS'[[Lure]]'
p11
I29
sS'[[Carrot Pie]]'
p12
I54
sS'[[Tomato]]'
p13
I22
sS'[[Cherry Juice]]'
p14
I71
sS'[[Cheesecake]]'
p15
I13
sS'[[Fish Pie]]'
p16
I52
sS'[[Pancake]]'
p17
I77
sS'[[Popcorn]]'
p18
I3
sS'[[Goat Cheese]]'
p19
I46
sS'[[Potato Bread]]'
p20
I39
sS'[[Goat Feed]]'
p21
I87
sS'[[Red Berry Cake]]'
p22
I21
sS'[[Pizza]]'
p23
I69
sS'[[Syrup]]'
p24
I41
sS'[[Sheep Feed]]'
p25
I9
sS'[[Cherry Popsicle]]'
p26
I48
sS'[[Bacon and Eggs]]'
p27
I14
sS'[[Carrot Juice]]'
p28
I59
sS'[[Baked Potato]]'
p29
I8
sS'[[Milk]]'
p30
I83
sS'[[Apple Jam]]'
p31
I63
sS'[[Carrot]]'
p32
I56
sS'[[Blackberry]]'
p33
I30
sS'[[Cotton Shirt]]'
p34
I53
sS'[[Cream]]'
p35
I66
sS'[[Raspberry Jam]]'
p36
I79
sS'[[Cherry]]'
p37
I61
sS'[[Bread]]'
p38
I75
sS'[[Wheat]]'
p39
I88
sS'[[Casserole]]'
p40
I86
sS'[[Strawberry]]'
p41
I16
sS'[[Honey Popcorn]]'
p42
I47
sS'[[Honeycomb]]'
p43
I20
sS'[[Indigo]]'
p44
I34
sS'[[Raspberry]]'
p45
I64
sS'[[Chocolate Cake]]'
p46
I25
sS'[[Spicy Pizza]]'
p47
I67
sS'[[Cacao]]'
p48
I17
sS'[[Woolly Chaps]]'
p49
I4
sS'[[Honey]]'
p50
I58
sS'[[Egg]]'
p51
I44
sS'[[Strawberry Cake]]'
p52
I60
sS'[[Potato]]'
p53
I49
sS'[[Fish Burger]]'
p54
I84
sS'[[White Sugar]]'
p55
I12
sS'[[Buttered Popcorn]]'
p56
I7
sS'[[Cream Cake]]'
p57
I28
sS'[[Soybean]]'
p58
I78
sS'[[Apple]]'
p59
I85
sS'[[Blue Woolly Hat]]'
p60
I15
sS'[[Goat Milk]]'
p61
I57
sS'[[Hamburger]]'
p62
I2
sS'[[Cherry Jam]]'
p63
I65
sS"[[Shepherd's Pie]]"
p64
I32
sS'[[Brown Sugar]]'
p65
I51
sS'[[Butter]]'
p66
I33
sS'[[Bacon Pie]]'
p67
I31
sS'[[Chili Pepper]]'
p68
I90
sS'[[Corn]]'
p69
I42
sS'[[Fish Fillet]]'
p70
I70
sS'[[Chili Popcorn]]'
p71
I18
sS'[[Bacon]]'
p72
I76
sS'[[Cotton Fabric]]'
p73
I68
sS'[[Pumpkin Pie]]'
p74
I35
sS'[[Potato Feta Cake]]'
p75
I50
sS'[[Sugarcane]]'
p76
I89
sS'[[Cookie]]'
p77
I55
sS'[[Apple Juice]]'
p78
I10
sS'[[Pig Feed]]'
p79
I43
sS'[[Cotton]]'
p80
I1
sS'[[Feta Pie]]'
p81
I72
sS'[[Cheese]]'
p82
I37
sS'[[Chocolate Ice Cream]]'
p83
I80
sS'[[Chicken Feed]]'
p84
I27
sS'[[Corn Bread]]'
p85
I19
sS'[[Wool]]'
p86
I82
sS'[[Roasted Tomatoes]]'
p87
I5
sS'[[Berry Juice]]'
p88
I26
sS'[[Sweater]]'
p89
I11
sS'[[Blackberry Muffin]]'
p90
I0
sS'[[Cow Feed]]'
p91
I73
s.(dp0
S'[[Corn]]'
p1
I1
sS'[[Chocolate Ice Cream]]'
p2
I0
sS'[[Roasted Tomatoes]]'
p3
I2
sS'[[Strawberry Cake]]'
p4
I0
sS'[[Cookie]]'
p5
I4
sS'[[Baked Potato]]'
p6
I1
sS'[[Pancake]]'
p7
I4
sS'[[Cream]]'
p8
I5
sS'[[Tomato Juice]]'
p9
I2
sS'[[Sweater]]'
p10
I2
sS'[[Cotton Fabric]]'
p11
I2
s.