(dp0
S'[[Pumpkin]]'
p1
I69
sS'[[Blackberry Jam]]'
p2
I22
sS'[[Violet Dress]]'
p3
I14
sS'[[Strawberry Ice Cream]]'
p4
I89
sS'[[Raspberry Muffin]]'
p5
I56
sS'[[Apple Pie]]'
p6
I90
sS'[[Tomato Juice]]'
p7
I19
sS'[[Blue Sweater]]'
p8
I48
sS'[[Carrot Cake]]'
p9
I18
sS'[[Vanilla Ice Cream]]'
p10
I67
sS'[[Lure]]'
p11
I21
sS'[[Carrot Pie]]'
p12
I85
sS'[[Tomato]]'
p13
I36
sS'[[Cherry Juice]]'
p14
I39
sS'[[Cheesecake]]'
p15
I72
sS'[[Fish Pie]]'
p16
I16
sS'[[Pancake]]'
p17
I75
sS'[[Popcorn]]'
p18
I59
sS'[[Goat Cheese]]'
p19
I64
sS'[[Potato Bread]]'
p20
I23
sS'[[Goat Feed]]'
p21
I7
sS'[[Red Berry Cake]]'
p22
I78
sS'[[Pizza]]'
p23
I63
sS'[[Syrup]]'
p24
I62
sS'[[Sheep Feed]]'
p25
I5
sS'[[Cherry Popsicle]]'
p26
I25
sS'[[Bacon and Eggs]]'
p27
I3
sS'[[Carrot Juice]]'
p28
I32
sS'[[Baked Potato]]'
p29
I58
sS'[[Milk]]'
p30
I70
sS'[[Apple Jam]]'
p31
I1
sS'[[Carrot]]'
p32
I31
sS'[[Blackberry]]'
p33
I8
sS'[[Cotton Shirt]]'
p34
I86
sS'[[Cream]]'
p35
I60
sS'[[Raspberry Jam]]'
p36
I55
sS'[[Cherry]]'
p37
I52
sS'[[Bread]]'
p38
I43
sS'[[Wheat]]'
p39
I71
sS'[[Casserole]]'
p40
I40
sS'[[Strawberry]]'
p41
I84
sS'[[Potato Feta Cake]]'
p42
I68
sS'[[Honeycomb]]'
p43
I10
sS'[[Indigo]]'
p44
I65
sS'[[Raspberry]]'
p45
I42
sS'[[Chocolate Cake]]'
p46
I61
sS'[[Spicy Pizza]]'
p47
I17
sS'[[Cacao]]'
p48
I33
sS'[[Woolly Chaps]]'
p49
I41
sS'[[Honey]]'
p50
I50
sS'[[Egg]]'
p51
I83
sS'[[Strawberry Cake]]'
p52
I27
sS'[[Potato]]'
p53
I80
sS'[[Fish Burger]]'
p54
I24
sS'[[White Sugar]]'
p55
I46
sS'[[Buttered Popcorn]]'
p56
I20
sS'[[Cream Cake]]'
p57
I34
sS'[[Soybean]]'
p58
I82
sS'[[Apple]]'
p59
I12
sS'[[Blue Woolly Hat]]'
p60
I88
sS'[[Goat Milk]]'
p61
I51
sS'[[Hamburger]]'
p62
I4
sS'[[Cherry Jam]]'
p63
I44
sS"[[Shepherd's Pie]]"
p64
I66
sS'[[Brown Sugar]]'
p65
I38
sS'[[Butter]]'
p66
I76
sS'[[Bacon Pie]]'
p67
I77
sS'[[Chili Pepper]]'
p68
I6
sS'[[Corn]]'
p69
I74
sS'[[Fish Fillet]]'
p70
I73
sS'[[Chili Popcorn]]'
p71
I53
sS'[[Bacon]]'
p72
I81
sS'[[Cotton Fabric]]'
p73
I37
sS'[[Pumpkin Pie]]'
p74
I49
sS'[[Honey Popcorn]]'
p75
I54
sS'[[Sugarcane]]'
p76
I30
sS'[[Cookie]]'
p77
I13
sS'[[Apple Juice]]'
p78
I87
sS'[[Pig Feed]]'
p79
I2
sS'[[Cotton]]'
p80
I15
sS'[[Feta Pie]]'
p81
I45
sS'[[Cheese]]'
p82
I11
sS'[[Chocolate Ice Cream]]'
p83
I9
sS'[[Chicken Feed]]'
p84
I29
sS'[[Corn Bread]]'
p85
I28
sS'[[Wool]]'
p86
I79
sS'[[Roasted Tomatoes]]'
p87
I0
sS'[[Berry Juice]]'
p88
I57
sS'[[Sweater]]'
p89
I35
sS'[[Blackberry Muffin]]'
p90
I26
sS'[[Cow Feed]]'
p91
I47
s.(dp0
S'[[Wheat]]'
p1
I1
sS'[[Pumpkin Pie]]'
p2
I0
sS'[[Potato Feta Cake]]'
p3
I0
sS'[[Chili Pepper]]'
p4
I0
sS'[[Cherry Popsicle]]'
p5
I2
sS'[[Pumpkin]]'
p6
I2
sS'[[Hamburger]]'
p7
I1
sS'[[Wool]]'
p8
I0
sS'[[Raspberry Jam]]'
p9
I3
sS'[[Cream Cake]]'
p10
I1
sS'[[Violet Dress]]'
p11
I4
s.