(dp0
S'[[Pumpkin]]'
p1
I71
sS'[[Blackberry Jam]]'
p2
I24
sS'[[Violet Dress]]'
p3
I0
sS'[[Strawberry Ice Cream]]'
p4
I33
sS'[[Raspberry Muffin]]'
p5
I38
sS'[[Apple Pie]]'
p6
I58
sS'[[Tomato Juice]]'
p7
I62
sS'[[Blue Sweater]]'
p8
I39
sS'[[Honey]]'
p9
I36
sS'[[Vanilla Ice Cream]]'
p10
I61
sS'[[Lure]]'
p11
I80
sS'[[Carrot Pie]]'
p12
I16
sS'[[Tomato]]'
p13
I31
sS'[[Potato]]'
p14
I81
sS'[[Cheesecake]]'
p15
I29
sS'[[Fish Pie]]'
p16
I5
sS'[[Pancake]]'
p17
I18
sS'[[Popcorn]]'
p18
I56
sS'[[Goat Cheese]]'
p19
I30
sS'[[Potato Bread]]'
p20
I84
sS'[[Goat Feed]]'
p21
I41
sS'[[Red Berry Cake]]'
p22
I55
sS'[[Pizza]]'
p23
I12
sS'[[Syrup]]'
p24
I3
sS'[[Sheep Feed]]'
p25
I63
sS'[[Cherry Popsicle]]'
p26
I25
sS'[[Bacon and Eggs]]'
p27
I66
sS'[[Carrot]]'
p28
I35
sS'[[Carrot Juice]]'
p29
I19
sS'[[Baked Potato]]'
p30
I82
sS'[[Milk]]'
p31
I9
sS'[[Apple Jam]]'
p32
I72
sS'[[Apple]]'
p33
I87
sS'[[Blackberry]]'
p34
I86
sS'[[Cotton Shirt]]'
p35
I90
sS'[[Cream]]'
p36
I76
sS'[[Raspberry Jam]]'
p37
I32
sS'[[Cherry]]'
p38
I34
sS'[[Bread]]'
p39
I74
sS'[[Wheat]]'
p40
I50
sS'[[Casserole]]'
p41
I22
sS'[[Strawberry]]'
p42
I67
sS'[[Potato Feta Cake]]'
p43
I46
sS'[[Honeycomb]]'
p44
I88
sS'[[Indigo]]'
p45
I23
sS'[[Raspberry]]'
p46
I77
sS'[[Chocolate Cake]]'
p47
I60
sS'[[Spicy Pizza]]'
p48
I26
sS'[[Cacao]]'
p49
I70
sS'[[Woolly Chaps]]'
p50
I6
sS'[[Carrot Cake]]'
p51
I28
sS'[[Egg]]'
p52
I69
sS'[[Strawberry Cake]]'
p53
I53
sS'[[Cherry Juice]]'
p54
I57
sS'[[Fish Burger]]'
p55
I42
sS'[[White Sugar]]'
p56
I21
sS'[[Buttered Popcorn]]'
p57
I45
sS'[[Cream Cake]]'
p58
I7
sS'[[Soybean]]'
p59
I49
sS'[[Brown Sugar]]'
p60
I15
sS'[[Blue Woolly Hat]]'
p61
I2
sS'[[Goat Milk]]'
p62
I59
sS'[[Hamburger]]'
p63
I13
sS'[[Cherry Jam]]'
p64
I47
sS"[[Shepherd's Pie]]"
p65
I44
sS'[[Butter]]'
p66
I43
sS'[[Bacon Pie]]'
p67
I27
sS'[[Chili Pepper]]'
p68
I73
sS'[[Corn]]'
p69
I20
sS'[[Fish Fillet]]'
p70
I4
sS'[[Chili Popcorn]]'
p71
I85
sS'[[Bacon]]'
p72
I14
sS'[[Cotton Fabric]]'
p73
I79
sS'[[Pumpkin Pie]]'
p74
I65
sS'[[Honey Popcorn]]'
p75
I11
sS'[[Sugarcane]]'
p76
I64
sS'[[Cookie]]'
p77
I17
sS'[[Apple Juice]]'
p78
I78
sS'[[Pig Feed]]'
p79
I8
sS'[[Cotton]]'
p80
I10
sS'[[Feta Pie]]'
p81
I54
sS'[[Cheese]]'
p82
I48
sS'[[Chocolate Ice Cream]]'
p83
I1
sS'[[Chicken Feed]]'
p84
I75
sS'[[Corn Bread]]'
p85
I68
sS'[[Wool]]'
p86
I40
sS'[[Roasted Tomatoes]]'
p87
I52
sS'[[Berry Juice]]'
p88
I37
sS'[[Sweater]]'
p89
I89
sS'[[Blackberry Muffin]]'
p90
I51
sS'[[Cow Feed]]'
p91
I83
s.(dp0
S'[[Bread]]'
p1
I2
sS'[[Strawberry]]'
p2
I3
sS'[[Blackberry]]'
p3
I4
sS'[[Corn Bread]]'
p4
I4
sS'[[Apple Pie]]'
p5
I3
sS'[[Fish Pie]]'
p6
I3
sS'[[Sugarcane]]'
p7
I0
sS'[[Cotton Fabric]]'
p8
I4
sS'[[Chicken Feed]]'
p9
I2
sS'[[Violet Dress]]'
p10
I3
s.