(dp0
S'[[Pumpkin]]'
p1
I77
sS'[[Blackberry Jam]]'
p2
I4
sS'[[Violet Dress]]'
p3
I53
sS'[[Strawberry Ice Cream]]'
p4
I42
sS'[[Raspberry Muffin]]'
p5
I48
sS'[[Apple Pie]]'
p6
I79
sS'[[Tomato Juice]]'
p7
I24
sS'[[Blue Sweater]]'
p8
I60
sS'[[Honey]]'
p9
I17
sS'[[Vanilla Ice Cream]]'
p10
I6
sS'[[Lure]]'
p11
I35
sS'[[Carrot Pie]]'
p12
I28
sS'[[Tomato]]'
p13
I32
sS'[[Potato]]'
p14
I21
sS'[[Cheesecake]]'
p15
I78
sS'[[Fish Pie]]'
p16
I13
sS'[[Pancake]]'
p17
I45
sS'[[Popcorn]]'
p18
I0
sS'[[Goat Cheese]]'
p19
I33
sS'[[Potato Bread]]'
p20
I59
sS'[[Goat Feed]]'
p21
I15
sS'[[Red Berry Cake]]'
p22
I89
sS'[[Pizza]]'
p23
I63
sS'[[Syrup]]'
p24
I49
sS'[[Sheep Feed]]'
p25
I30
sS'[[Cherry Popsicle]]'
p26
I52
sS'[[Bacon and Eggs]]'
p27
I12
sS'[[Carrot]]'
p28
I37
sS'[[Carrot Juice]]'
p29
I26
sS'[[Baked Potato]]'
p30
I31
sS'[[Milk]]'
p31
I11
sS'[[Apple Jam]]'
p32
I50
sS'[[Apple]]'
p33
I83
sS'[[Blackberry]]'
p34
I39
sS'[[Cotton Shirt]]'
p35
I90
sS'[[Cream]]'
p36
I67
sS'[[Raspberry Jam]]'
p37
I1
sS'[[Cherry]]'
p38
I23
sS'[[Bread]]'
p39
I27
sS'[[Wheat]]'
p40
I9
sS'[[Casserole]]'
p41
I80
sS'[[Strawberry]]'
p42
I22
sS'[[Potato Feta Cake]]'
p43
I51
sS'[[Honeycomb]]'
p44
I2
sS'[[Indigo]]'
p45
I25
sS'[[Raspberry]]'
p46
I58
sS'[[Chocolate Cake]]'
p47
I65
sS'[[Spicy Pizza]]'
p48
I46
sS'[[Cacao]]'
p49
I82
sS'[[Woolly Chaps]]'
p50
I3
sS'[[Carrot Cake]]'
p51
I76
sS'[[Egg]]'
p52
I14
sS'[[Strawberry Cake]]'
p53
I20
sS'[[Cherry Juice]]'
p54
I86
sS'[[Fish Burger]]'
p55
I64
sS'[[White Sugar]]'
p56
I57
sS'[[Buttered Popcorn]]'
p57
I74
sS'[[Cream Cake]]'
p58
I10
sS'[[Soybean]]'
p59
I41
sS'[[Brown Sugar]]'
p60
I87
sS'[[Blue Woolly Hat]]'
p61
I88
sS'[[Goat Milk]]'
p62
I7
sS'[[Hamburger]]'
p63
I8
sS'[[Cherry Jam]]'
p64
I73
sS"[[Shepherd's Pie]]"
p65
I16
sS'[[Butter]]'
p66
I69
sS'[[Bacon Pie]]'
p67
I34
sS'[[Chili Pepper]]'
p68
I40
sS'[[Corn]]'
p69
I38
sS'[[Fish Fillet]]'
p70
I55
sS'[[Chili Popcorn]]'
p71
I62
sS'[[Bacon]]'
p72
I81
sS'[[Cotton Fabric]]'
p73
I68
sS'[[Pumpkin Pie]]'
p74
I47
sS'[[Honey Popcorn]]'
p75
I54
sS'[[Sugarcane]]'
p76
I72
sS'[[Cookie]]'
p77
I71
sS'[[Apple Juice]]'
p78
I66
sS'[[Pig Feed]]'
p79
I19
sS'[[Cotton]]'
p80
I84
sS'[[Feta Pie]]'
p81
I5
sS'[[Cheese]]'
p82
I56
sS'[[Chocolate Ice Cream]]'
p83
I70
sS'[[Chicken Feed]]'
p84
I36
sS'[[Corn Bread]]'
p85
I43
sS'[[Wool]]'
p86
I29
sS'[[Roasted Tomatoes]]'
p87
I85
sS'[[Berry Juice]]'
p88
I18
sS'[[Sweater]]'
p89
I44
sS'[[Blackberry Muffin]]'
p90
I61
sS'[[Cow Feed]]'
p91
I75
s.(dp0
S'[[Blue Sweater]]'
p1
I1
sS'[[Casserole]]'
p2
I0
sS'[[Pizza]]'
p3
I4
sS'[[Popcorn]]'
p4
I2
sS'[[Apple]]'
p5
I0
sS'[[Blackberry Jam]]'
p6
I0
sS'[[Red Berry Cake]]'
p7
I0
sS'[[Apple Juice]]'
p8
I0
s.