(dp0
S'[[Pumpkin]]'
p1
I39
sS'[[Blackberry Jam]]'
p2
I53
sS'[[Violet Dress]]'
p3
I90
sS'[[Strawberry Ice Cream]]'
p4
I33
sS'[[Raspberry Muffin]]'
p5
I80
sS'[[Apple Pie]]'
p6
I6
sS'[[Tomato Juice]]'
p7
I78
sS'[[Blue Sweater]]'
p8
I32
sS'[[Honey]]'
p9
I23
sS'[[Vanilla Ice Cream]]'
p10
I31
sS'[[Lure]]'
p11
I59
sS'[[Carrot Pie]]'
p12
I4
sS'[[Tomato]]'
p13
I44
sS'[[Potato]]'
p14
I58
sS'[[Cheesecake]]'
p15
I42
sS'[[Fish Pie]]'
p16
I83
sS'[[Pancake]]'
p17
I69
sS'[[Popcorn]]'
p18
I50
sS'[[Goat Cheese]]'
p19
I10
sS'[[Potato Bread]]'
p20
I89
sS'[[Goat Feed]]'
p21
I7
sS'[[Red Berry Cake]]'
p22
I46
sS'[[Pizza]]'
p23
I84
sS'[[Syrup]]'
p24
I3
sS'[[Sheep Feed]]'
p25
I27
sS'[[Cherry Popsicle]]'
p26
I18
sS'[[Bacon and Eggs]]'
p27
I21
sS'[[Carrot]]'
p28
I55
sS'[[Carrot Juice]]'
p29
I54
sS'[[Baked Potato]]'
p30
I79
sS'[[Milk]]'
p31
I35
sS'[[Apple Jam]]'
p32
I19
sS'[[Apple]]'
p33
I29
sS'[[Blackberry]]'
p34
I60
sS'[[Cotton Shirt]]'
p35
I43
sS'[[Cream]]'
p36
I63
sS'[[Raspberry Jam]]'
p37
I75
sS'[[Cherry]]'
p38
I76
sS'[[Bread]]'
p39
I16
sS'[[Wheat]]'
p40
I38
sS'[[Casserole]]'
p41
I67
sS'[[Strawberry]]'
p42
I26
sS'[[Potato Feta Cake]]'
p43
I57
sS'[[Honeycomb]]'
p44
I66
sS'[[Indigo]]'
p45
I28
sS'[[Raspberry]]'
p46
I70
sS'[[Chocolate Cake]]'
p47
I1
sS'[[Spicy Pizza]]'
p48
I5
sS'[[Cacao]]'
p49
I74
sS'[[Woolly Chaps]]'
p50
I64
sS'[[Carrot Cake]]'
p51
I85
sS'[[Egg]]'
p52
I73
sS'[[Strawberry Cake]]'
p53
I52
sS'[[Cherry Juice]]'
p54
I56
sS'[[Fish Burger]]'
p55
I2
sS'[[White Sugar]]'
p56
I15
sS'[[Buttered Popcorn]]'
p57
I22
sS'[[Cream Cake]]'
p58
I68
sS'[[Soybean]]'
p59
I37
sS'[[Brown Sugar]]'
p60
I13
sS'[[Blue Woolly Hat]]'
p61
I47
sS'[[Goat Milk]]'
p62
I51
sS'[[Hamburger]]'
p63
I12
sS'[[Cherry Jam]]'
p64
I72
sS"[[Shepherd's Pie]]"
p65
I87
sS'[[Butter]]'
p66
I34
sS'[[Bacon Pie]]'
p67
I20
sS'[[Chili Pepper]]'
p68
I71
sS'[[Corn]]'
p69
I86
sS'[[Fish Fillet]]'
p70
I88
sS'[[Chili Popcorn]]'
p71
I17
sS'[[Bacon]]'
p72
I45
sS'[[Cotton Fabric]]'
p73
I41
sS'[[Pumpkin Pie]]'
p74
I81
sS'[[Honey Popcorn]]'
p75
I0
sS'[[Sugarcane]]'
p76
I48
sS'[[Cookie]]'
p77
I30
sS'[[Apple Juice]]'
p78
I49
sS'[[Pig Feed]]'
p79
I82
sS'[[Cotton]]'
p80
I36
sS'[[Feta Pie]]'
p81
I65
sS'[[Cheese]]'
p82
I62
sS'[[Chocolate Ice Cream]]'
p83
I14
sS'[[Chicken Feed]]'
p84
I24
sS'[[Corn Bread]]'
p85
I9
sS'[[Wool]]'
p86
I8
sS'[[Roasted Tomatoes]]'
p87
I11
sS'[[Berry Juice]]'
p88
I77
sS'[[Sweater]]'
p89
I25
sS'[[Blackberry Muffin]]'
p90
I61
sS'[[Cow Feed]]'
p91
I40
s.(dp0
S'[[Wheat]]'
p1
I1
sS'[[Potato Feta Cake]]'
p2
I2
sS'[[Cherry Popsicle]]'
p3
I2
sS'[[Cherry Juice]]'
p4
I2
sS'[[Strawberry Cake]]'
p5
I0
sS'[[Honey Popcorn]]'
p6
I4
sS'[[Cream]]'
p7
I5
sS'[[Apple Jam]]'
p8
I3
sS'[[Bacon Pie]]'
p9
I0
sS'[[Corn Bread]]'
p10
I1
sS'[[Soybean]]'
p11
I0
s.