(dp0
S'[[Pumpkin]]'
p1
I20
sS'[[Blackberry Jam]]'
p2
I32
sS'[[Violet Dress]]'
p3
I87
sS'[[Strawberry Ice Cream]]'
p4
I0
sS'[[Raspberry Muffin]]'
p5
I56
sS'[[Apple Pie]]'
p6
I11
sS'[[Tomato Juice]]'
p7
I46
sS'[[Blue Sweater]]'
p8
I3
sS'[[Carrot Cake]]'
p9
I41
sS'[[Vanilla Ice Cream]]'
p10
I54
sS'[[Lure]]'
p11
I76
sS'[[Carrot Pie]]'
p12
I49
sS'[[Tomato]]'
p13
I66
sS'[[Cherry Juice]]'
p14
I36
sS'[[Cheesecake]]'
p15
I42
sS'[[Fish Pie]]'
p16
I85
sS'[[Pancake]]'
p17
I47
sS'[[Popcorn]]'
p18
I34
sS'[[Goat Cheese]]'
p19
I1
sS'[[Potato Bread]]'
p20
I30
sS'[[Goat Feed]]'
p21
I64
sS'[[Red Berry Cake]]'
p22
I63
sS'[[Pizza]]'
p23
I4
sS'[[Syrup]]'
p24
I67
sS'[[Sheep Feed]]'
p25
I58
sS'[[Cherry Popsicle]]'
p26
I84
sS'[[Bacon and Eggs]]'
p27
I50
sS'[[Carrot Juice]]'
p28
I79
sS'[[Baked Potato]]'
p29
I2
sS'[[Milk]]'
p30
I25
sS'[[Apple Jam]]'
p31
I7
sS'[[Carrot]]'
p32
I83
sS'[[Blackberry]]'
p33
I24
sS'[[Cotton Shirt]]'
p34
I35
sS'[[Cream]]'
p35
I29
sS'[[Raspberry Jam]]'
p36
I65
sS'[[Cherry]]'
p37
I86
sS'[[Bread]]'
p38
I51
sS'[[Wheat]]'
p39
I72
sS'[[Casserole]]'
p40
I69
sS'[[Strawberry]]'
p41
I16
sS'[[Potato Feta Cake]]'
p42
I78
sS'[[Honeycomb]]'
p43
I6
sS'[[Indigo]]'
p44
I9
sS'[[Raspberry]]'
p45
I68
sS'[[Chocolate Cake]]'
p46
I44
sS'[[Spicy Pizza]]'
p47
I39
sS'[[Cacao]]'
p48
I80
sS'[[Woolly Chaps]]'
p49
I28
sS'[[Honey]]'
p50
I23
sS'[[Egg]]'
p51
I73
sS'[[Strawberry Cake]]'
p52
I89
sS'[[Potato]]'
p53
I14
sS'[[Fish Burger]]'
p54
I43
sS'[[White Sugar]]'
p55
I38
sS'[[Buttered Popcorn]]'
p56
I26
sS'[[Cream Cake]]'
p57
I19
sS'[[Soybean]]'
p58
I15
sS'[[Apple]]'
p59
I82
sS'[[Blue Woolly Hat]]'
p60
I45
sS'[[Goat Milk]]'
p61
I59
sS'[[Hamburger]]'
p62
I40
sS'[[Cherry Jam]]'
p63
I8
sS"[[Shepherd's Pie]]"
p64
I12
sS'[[Brown Sugar]]'
p65
I27
sS'[[Butter]]'
p66
I90
sS'[[Bacon Pie]]'
p67
I18
sS'[[Chili Pepper]]'
p68
I10
sS'[[Corn]]'
p69
I70
sS'[[Fish Fillet]]'
p70
I5
sS'[[Chili Popcorn]]'
p71
I33
sS'[[Bacon]]'
p72
I37
sS'[[Cotton Fabric]]'
p73
I52
sS'[[Pumpkin Pie]]'
p74
I55
sS'[[Honey Popcorn]]'
p75
I71
sS'[[Sugarcane]]'
p76
I17
sS'[[Cookie]]'
p77
I22
sS'[[Apple Juice]]'
p78
I57
sS'[[Pig Feed]]'
p79
I61
sS'[[Cotton]]'
p80
I53
sS'[[Feta Pie]]'
p81
I77
sS'[[Cheese]]'
p82
I48
sS'[[Chocolate Ice Cream]]'
p83
I88
sS'[[Chicken Feed]]'
p84
I75
sS'[[Corn Bread]]'
p85
I60
sS'[[Wool]]'
p86
I81
sS'[[Roasted Tomatoes]]'
p87
I74
sS'[[Berry Juice]]'
p88
I62
sS'[[Sweater]]'
p89
I21
sS'[[Blackberry Muffin]]'
p90
I31
sS'[[Cow Feed]]'
p91
I13
s.(dp0
S'[[Apple]]'
p1
I4
sS'[[Cotton]]'
p2
I5
sS'[[Carrot Cake]]'
p3
I2
sS'[[Cherry Juice]]'
p4
I0
sS'[[Honeycomb]]'
p5
I0
sS'[[Vanilla Ice Cream]]'
p6
I2
sS'[[Milk]]'
p7
I3
sS'[[Cotton Fabric]]'
p8
I5
sS'[[Cherry]]'
p9
I5
sS'[[Chicken Feed]]'
p10
I2
sS'[[Syrup]]'
p11
I3
s.