(dp0
S'[[Pumpkin]]'
p1
I3
sS'[[Blackberry Jam]]'
p2
I77
sS'[[Violet Dress]]'
p3
I84
sS'[[Strawberry Ice Cream]]'
p4
I39
sS'[[Raspberry Muffin]]'
p5
I53
sS'[[Apple Pie]]'
p6
I0
sS'[[Tomato Juice]]'
p7
I12
sS'[[Blue Sweater]]'
p8
I1
sS'[[Honey]]'
p9
I33
sS'[[Vanilla Ice Cream]]'
p10
I89
sS'[[Lure]]'
p11
I66
sS'[[Carrot Pie]]'
p12
I65
sS'[[Tomato]]'
p13
I49
sS'[[Potato]]'
p14
I80
sS'[[Cheesecake]]'
p15
I20
sS'[[Fish Pie]]'
p16
I38
sS'[[Pancake]]'
p17
I58
sS'[[Popcorn]]'
p18
I87
sS'[[Goat Cheese]]'
p19
I21
sS'[[Potato Bread]]'
p20
I57
sS'[[Goat Feed]]'
p21
I59
sS'[[Red Berry Cake]]'
p22
I81
sS'[[Pizza]]'
p23
I55
sS'[[Syrup]]'
p24
I71
sS'[[Sheep Feed]]'
p25
I63
sS'[[Cherry Popsicle]]'
p26
I43
sS'[[Bacon and Eggs]]'
p27
I90
sS'[[Carrot]]'
p28
I54
sS'[[Carrot Juice]]'
p29
I76
sS'[[Baked Potato]]'
p30
I61
sS'[[Milk]]'
p31
I82
sS'[[Apple Jam]]'
p32
I35
sS'[[Apple]]'
p33
I86
sS'[[Blackberry]]'
p34
I5
sS'[[Cotton Shirt]]'
p35
I23
sS'[[Cream]]'
p36
I30
sS'[[Raspberry Jam]]'
p37
I26
sS'[[Cherry]]'
p38
I70
sS'[[Bread]]'
p39
I9
sS'[[Wheat]]'
p40
I67
sS'[[Casserole]]'
p41
I17
sS'[[Strawberry]]'
p42
I6
sS'[[Potato Feta Cake]]'
p43
I75
sS'[[Honeycomb]]'
p44
I27
sS'[[Indigo]]'
p45
I14
sS'[[Raspberry]]'
p46
I36
sS'[[Chocolate Cake]]'
p47
I10
sS'[[Spicy Pizza]]'
p48
I41
sS'[[Cacao]]'
p49
I28
sS'[[Woolly Chaps]]'
p50
I46
sS'[[Carrot Cake]]'
p51
I42
sS'[[Egg]]'
p52
I18
sS'[[Strawberry Cake]]'
p53
I37
sS'[[Cherry Juice]]'
p54
I85
sS'[[Fish Burger]]'
p55
I34
sS'[[White Sugar]]'
p56
I73
sS'[[Buttered Popcorn]]'
p57
I52
sS'[[Cream Cake]]'
p58
I56
sS'[[Soybean]]'
p59
I88
sS'[[Brown Sugar]]'
p60
I74
sS'[[Blue Woolly Hat]]'
p61
I69
sS'[[Goat Milk]]'
p62
I51
sS'[[Hamburger]]'
p63
I68
sS'[[Cherry Jam]]'
p64
I78
sS"[[Shepherd's Pie]]"
p65
I83
sS'[[Butter]]'
p66
I31
sS'[[Bacon Pie]]'
p67
I62
sS'[[Chili Pepper]]'
p68
I44
sS'[[Corn]]'
p69
I50
sS'[[Fish Fillet]]'
p70
I45
sS'[[Chili Popcorn]]'
p71
I7
sS'[[Bacon]]'
p72
I4
sS'[[Cotton Fabric]]'
p73
I16
sS'[[Pumpkin Pie]]'
p74
I24
sS'[[Honey Popcorn]]'
p75
I11
sS'[[Sugarcane]]'
p76
I72
sS'[[Cookie]]'
p77
I8
sS'[[Apple Juice]]'
p78
I32
sS'[[Pig Feed]]'
p79
I19
sS'[[Cotton]]'
p80
I25
sS'[[Feta Pie]]'
p81
I2
sS'[[Cheese]]'
p82
I48
sS'[[Chocolate Ice Cream]]'
p83
I79
sS'[[Chicken Feed]]'
p84
I60
sS'[[Corn Bread]]'
p85
I22
sS'[[Wool]]'
p86
I29
sS'[[Roasted Tomatoes]]'
p87
I40
sS'[[Berry Juice]]'
p88
I13
sS'[[Sweater]]'
p89
I15
sS'[[Blackberry Muffin]]'
p90
I47
sS'[[Cow Feed]]'
p91
I64
s.(dp0
S'[[Tomato]]'
p1
I2
sS'[[Pig Feed]]'
p2
I5
sS'[[Strawberry]]'
p3
I4
sS'[[Honey Popcorn]]'
p4
I4
sS'[[Fish Pie]]'
p5
I3
sS'[[Chili Popcorn]]'
p6
I4
sS'[[Tomato Juice]]'
p7
I3
sS'[[Carrot Juice]]'
p8
I4
sS'[[Buttered Popcorn]]'
p9
I1
sS'[[Cow Feed]]'
p10
I0
sS'[[Syrup]]'
p11
I5
s.