(dp0
S'[[Pumpkin]]'
p1
I34
sS'[[Blackberry Jam]]'
p2
I37
sS'[[Violet Dress]]'
p3
I44
sS'[[Strawberry Ice Cream]]'
p4
I27
sS'[[Raspberry Muffin]]'
p5
I51
sS'[[Apple Pie]]'
p6
I71
sS'[[Tomato Juice]]'
p7
I4
sS'[[Carrot Cake]]'
p8
I83
sS'[[Vanilla Ice Cream]]'
p9
I65
sS'[[Lure]]'
p10
I63
sS'[[Carrot Pie]]'
p11
I84
sS'[[Tomato]]'
p12
I82
sS'[[Cherry Juice]]'
p13
I5
sS'[[Cheesecake]]'
p14
I19
sS'[[Fish Pie]]'
p15
I60
sS'[[Pancake]]'
p16
I30
sS'[[Popcorn]]'
p17
I42
sS'[[Goat Cheese]]'
p18
I1
sS'[[Potato Bread]]'
p19
I45
sS'[[Goat Feed]]'
p20
I81
sS'[[Red Berry Cake]]'
p21
I26
sS'[[Pizza]]'
p22
I14
sS'[[Syrup]]'
p23
I64
sS'[[Sheep Feed]]'
p24
I25
sS'[[Cherry Popsicle]]'
p25
I89
sS'[[Bacon and Eggs]]'
p26
I21
sS'[[Carrot Juice]]'
p27
I79
sS'[[Baked Potato]]'
p28
I77
sS'[[Milk]]'
p29
I72
sS'[[Apple Jam]]'
p30
I80
sS'[[Carrot]]'
p31
I90
sS'[[Blackberry]]'
p32
I75
sS'[[Cotton Shirt]]'
p33
I52
sS'[[Cream]]'
p34
I3
sS'[[Raspberry Jam]]'
p35
I9
sS'[[Cherry]]'
p36
I24
sS'[[Bread]]'
p37
I31
sS'[[Wheat]]'
p38
I6
sS'[[Casserole]]'
p39
I87
sS'[[Chili Pepper]]'
p40
I39
sS'[[Potato Feta Cake]]'
p41
I41
sS'[[Honeycomb]]'
p42
I17
sS'[[Indigo]]'
p43
I46
sS'[[Raspberry]]'
p44
I69
sS'[[Chocolate Cake]]'
p45
I48
sS'[[Spicy Pizza]]'
p46
I15
sS'[[Cacao]]'
p47
I66
sS'[[Woolly Chaps]]'
p48
I8
sS'[[Honey]]'
p49
I35
sS'[[Egg]]'
p50
I11
sS'[[Strawberry Cake]]'
p51
I2
sS'[[Potato]]'
p52
I56
sS'[[Fish Burger]]'
p53
I32
sS'[[White Sugar]]'
p54
I38
sS'[[Buttered Popcorn]]'
p55
I22
sS'[[Cream Cake]]'
p56
I10
sS'[[Soybean]]'
p57
I12
sS'[[Apple]]'
p58
I73
sS'[[Blue Woolly Hat]]'
p59
I57
sS'[[Goat Milk]]'
p60
I59
sS'[[Hamburger]]'
p61
I47
sS'[[Cherry Jam]]'
p62
I33
sS"[[Shepherd's Pie]]"
p63
I85
sS'[[Brown Sugar]]'
p64
I13
sS'[[Butter]]'
p65
I36
sS'[[Bacon Pie]]'
p66
I18
sS'[[Strawberry]]'
p67
I54
sS'[[Pumpkin Pie]]'
p68
I67
sS'[[Corn]]'
p69
I78
sS'[[Fish Fillet]]'
p70
I23
sS'[[Chili Popcorn]]'
p71
I68
sS'[[Bacon]]'
p72
I88
sS'[[Cotton Fabric]]'
p73
I0
sS'[[Blue Sweater]]'
p74
I49
sS'[[Honey Popcorn]]'
p75
I53
sS'[[Sugarcane]]'
p76
I55
sS'[[Cookie]]'
p77
I16
sS'[[Apple Juice]]'
p78
I61
sS'[[Pig Feed]]'
p79
I29
sS'[[Cotton]]'
p80
I40
sS'[[Feta Pie]]'
p81
I20
sS'[[Cheese]]'
p82
I43
sS'[[Chocolate Ice Cream]]'
p83
I28
sS'[[Chicken Feed]]'
p84
I86
sS'[[Corn Bread]]'
p85
I74
sS'[[Wool]]'
p86
I50
sS'[[Roasted Tomatoes]]'
p87
I62
sS'[[Berry Juice]]'
p88
I7
sS'[[Sweater]]'
p89
I76
sS'[[Blackberry Muffin]]'
p90
I58
sS'[[Cow Feed]]'
p91
I70
s.(dp0
S'[[Casserole]]'
p1
I0
sS'[[Roasted Tomatoes]]'
p2
I2
sS'[[Hamburger]]'
p3
I0
sS'[[Fish Pie]]'
p4
I2
sS'[[Pancake]]'
p5
I1
sS'[[Goat Cheese]]'
p6
I3
sS'[[Bacon]]'
p7
I3
sS'[[Lure]]'
p8
I1
sS'[[Cream Cake]]'
p9
I0
sS'[[Cookie]]'
p10
I5
sS'[[Bacon Pie]]'
p11
I1
s.