(dp0
S'[[Pumpkin]]'
p1
I54
sS'[[Blackberry Jam]]'
p2
I25
sS'[[Violet Dress]]'
p3
I83
sS'[[Strawberry Ice Cream]]'
p4
I16
sS'[[Raspberry Muffin]]'
p5
I57
sS'[[Apple Pie]]'
p6
I30
sS'[[Tomato Juice]]'
p7
I29
sS'[[Carrot Cake]]'
p8
I79
sS'[[Vanilla Ice Cream]]'
p9
I88
sS'[[Lure]]'
p10
I70
sS'[[Carrot Pie]]'
p11
I7
sS'[[Tomato]]'
p12
I61
sS'[[Cherry Juice]]'
p13
I21
sS'[[Cheesecake]]'
p14
I36
sS'[[Fish Pie]]'
p15
I39
sS'[[Pancake]]'
p16
I48
sS'[[Popcorn]]'
p17
I67
sS'[[Goat Cheese]]'
p18
I64
sS'[[Potato Bread]]'
p19
I80
sS'[[Goat Feed]]'
p20
I50
sS'[[Red Berry Cake]]'
p21
I12
sS'[[Pizza]]'
p22
I9
sS'[[Syrup]]'
p23
I47
sS'[[Sheep Feed]]'
p24
I49
sS'[[Cherry Popsicle]]'
p25
I66
sS'[[Bacon and Eggs]]'
p26
I4
sS'[[Carrot Juice]]'
p27
I41
sS'[[Baked Potato]]'
p28
I26
sS'[[Milk]]'
p29
I52
sS'[[Apple Jam]]'
p30
I55
sS'[[Carrot]]'
p31
I10
sS'[[Blackberry]]'
p32
I78
sS'[[Cotton Shirt]]'
p33
I34
sS'[[Cream]]'
p34
I43
sS'[[Raspberry Jam]]'
p35
I74
sS'[[Cherry]]'
p36
I11
sS'[[Bread]]'
p37
I33
sS'[[Wheat]]'
p38
I63
sS'[[Casserole]]'
p39
I15
sS'[[Chili Pepper]]'
p40
I22
sS'[[Honey Popcorn]]'
p41
I59
sS'[[Honeycomb]]'
p42
I0
sS'[[Indigo]]'
p43
I2
sS'[[Raspberry]]'
p44
I40
sS'[[Chocolate Cake]]'
p45
I89
sS'[[Spicy Pizza]]'
p46
I86
sS'[[Cacao]]'
p47
I35
sS'[[Woolly Chaps]]'
p48
I69
sS'[[Honey]]'
p49
I53
sS'[[Egg]]'
p50
I46
sS'[[Strawberry Cake]]'
p51
I84
sS'[[Potato]]'
p52
I62
sS'[[Fish Burger]]'
p53
I8
sS'[[White Sugar]]'
p54
I90
sS'[[Buttered Popcorn]]'
p55
I65
sS'[[Cream Cake]]'
p56
I68
sS'[[Soybean]]'
p57
I82
sS'[[Apple]]'
p58
I58
sS'[[Blue Woolly Hat]]'
p59
I45
sS'[[Goat Milk]]'
p60
I60
sS'[[Hamburger]]'
p61
I75
sS'[[Cherry Jam]]'
p62
I71
sS"[[Shepherd's Pie]]"
p63
I28
sS'[[Brown Sugar]]'
p64
I85
sS'[[Butter]]'
p65
I76
sS'[[Bacon Pie]]'
p66
I51
sS'[[Strawberry]]'
p67
I19
sS'[[Pumpkin Pie]]'
p68
I32
sS'[[Corn]]'
p69
I38
sS'[[Fish Fillet]]'
p70
I6
sS'[[Chili Popcorn]]'
p71
I13
sS'[[Sugarcane]]'
p72
I72
sS'[[Cotton Fabric]]'
p73
I56
sS'[[Blue Sweater]]'
p74
I1
sS'[[Potato Feta Cake]]'
p75
I20
sS'[[Cookie]]'
p76
I87
sS'[[Apple Juice]]'
p77
I5
sS'[[Pig Feed]]'
p78
I14
sS'[[Cotton]]'
p79
I44
sS'[[Feta Pie]]'
p80
I3
sS'[[Cheese]]'
p81
I81
sS'[[Chocolate Ice Cream]]'
p82
I24
sS'[[Bacon]]'
p83
I27
sS'[[Chicken Feed]]'
p84
I37
sS'[[Corn Bread]]'
p85
I73
sS'[[Wool]]'
p86
I17
sS'[[Roasted Tomatoes]]'
p87
I42
sS'[[Berry Juice]]'
p88
I23
sS'[[Sweater]]'
p89
I77
sS'[[Blackberry Muffin]]'
p90
I18
sS'[[Cow Feed]]'
p91
I31
s.(dp0
S'[[Corn]]'
p1
I0
sS'[[Chili Pepper]]'
p2
I0
sS'[[Cherry Popsicle]]'
p3
I5
sS'[[Honey]]'
p4
I0
sS'[[Honey Popcorn]]'
p5
I4
sS'[[Fish Pie]]'
p6
I4
sS'[[Carrot Juice]]'
p7
I5
sS'[[Baked Potato]]'
p8
I1
sS'[[Butter]]'
p9
I2
sS'[[Vanilla Ice Cream]]'
p10
I1
sS'[[Lure]]'
p11
I0
sS'[[Chocolate Cake]]'
p12
I2
sS'[[Pizza]]'
p13
I3
s.