(dp0
S'[[Pumpkin]]'
p1
I86
sS'[[Blackberry Jam]]'
p2
I13
sS'[[Violet Dress]]'
p3
I56
sS'[[Strawberry Ice Cream]]'
p4
I83
sS'[[Raspberry Muffin]]'
p5
I23
sS'[[Apple Pie]]'
p6
I10
sS'[[Tomato Juice]]'
p7
I41
sS'[[Carrot Cake]]'
p8
I88
sS'[[Vanilla Ice Cream]]'
p9
I63
sS'[[Lure]]'
p10
I78
sS'[[Carrot Pie]]'
p11
I5
sS'[[Tomato]]'
p12
I4
sS'[[Cherry Juice]]'
p13
I12
sS'[[Cheesecake]]'
p14
I65
sS'[[Fish Pie]]'
p15
I6
sS'[[Pancake]]'
p16
I28
sS'[[Popcorn]]'
p17
I2
sS'[[Goat Cheese]]'
p18
I48
sS'[[Potato Bread]]'
p19
I44
sS'[[Goat Feed]]'
p20
I20
sS'[[Red Berry Cake]]'
p21
I42
sS'[[Pizza]]'
p22
I81
sS'[[Syrup]]'
p23
I62
sS'[[Sheep Feed]]'
p24
I69
sS'[[Cherry Popsicle]]'
p25
I73
sS'[[Bacon and Eggs]]'
p26
I71
sS'[[Carrot Juice]]'
p27
I34
sS'[[Baked Potato]]'
p28
I9
sS'[[Milk]]'
p29
I24
sS'[[Apple Jam]]'
p30
I45
sS'[[Carrot]]'
p31
I35
sS'[[Blackberry]]'
p32
I1
sS'[[Cotton Shirt]]'
p33
I53
sS'[[Cream]]'
p34
I74
sS'[[Raspberry Jam]]'
p35
I40
sS'[[Cherry]]'
p36
I60
sS'[[Bread]]'
p37
I16
sS'[[Wheat]]'
p38
I15
sS'[[Casserole]]'
p39
I75
sS'[[Chili Pepper]]'
p40
I52
sS'[[Honey Popcorn]]'
p41
I84
sS'[[Honeycomb]]'
p42
I89
sS'[[Indigo]]'
p43
I22
sS'[[Raspberry]]'
p44
I25
sS'[[Chocolate Cake]]'
p45
I51
sS'[[Spicy Pizza]]'
p46
I72
sS'[[Cacao]]'
p47
I58
sS'[[Woolly Chaps]]'
p48
I76
sS'[[Honey]]'
p49
I80
sS'[[Egg]]'
p50
I68
sS'[[Strawberry Cake]]'
p51
I38
sS'[[Potato]]'
p52
I19
sS'[[Fish Burger]]'
p53
I85
sS'[[White Sugar]]'
p54
I14
sS'[[Buttered Popcorn]]'
p55
I7
sS'[[Cream Cake]]'
p56
I26
sS'[[Soybean]]'
p57
I37
sS'[[Apple]]'
p58
I59
sS'[[Blue Woolly Hat]]'
p59
I39
sS'[[Goat Milk]]'
p60
I82
sS'[[Hamburger]]'
p61
I57
sS'[[Cherry Jam]]'
p62
I30
sS"[[Shepherd's Pie]]"
p63
I0
sS'[[Brown Sugar]]'
p64
I43
sS'[[Butter]]'
p65
I90
sS'[[Bacon Pie]]'
p66
I32
sS'[[Strawberry]]'
p67
I54
sS'[[Pumpkin Pie]]'
p68
I21
sS'[[Corn]]'
p69
I33
sS'[[Fish Fillet]]'
p70
I27
sS'[[Chili Popcorn]]'
p71
I11
sS'[[Sugarcane]]'
p72
I47
sS'[[Cotton Fabric]]'
p73
I87
sS'[[Blue Sweater]]'
p74
I17
sS'[[Potato Feta Cake]]'
p75
I46
sS'[[Cookie]]'
p76
I67
sS'[[Apple Juice]]'
p77
I29
sS'[[Pig Feed]]'
p78
I64
sS'[[Cotton]]'
p79
I61
sS'[[Feta Pie]]'
p80
I18
sS'[[Cheese]]'
p81
I50
sS'[[Chocolate Ice Cream]]'
p82
I36
sS'[[Bacon]]'
p83
I70
sS'[[Chicken Feed]]'
p84
I79
sS'[[Corn Bread]]'
p85
I8
sS'[[Wool]]'
p86
I77
sS'[[Roasted Tomatoes]]'
p87
I3
sS'[[Berry Juice]]'
p88
I49
sS'[[Sweater]]'
p89
I66
sS'[[Blackberry Muffin]]'
p90
I31
sS'[[Cow Feed]]'
p91
I55
s.(dp0
S'[[Pumpkin Pie]]'
p1
I4
sS'[[Cheesecake]]'
p2
I3
sS'[[Roasted Tomatoes]]'
p3
I1
sS'[[Woolly Chaps]]'
p4
I5
sS'[[Pumpkin]]'
p5
I2
sS'[[Hamburger]]'
p6
I4
sS'[[Berry Juice]]'
p7
I0
sS'[[Butter]]'
p8
I3
sS'[[Fish Burger]]'
p9
I3
sS'[[Cream]]'
p10
I1
sS'[[Cream Cake]]'
p11
I0
sS'[[Cotton Fabric]]'
p12
I5
sS'[[Bread]]'
p13
I3
s.