(dp0
S'[[Pumpkin]]'
p1
I86
sS'[[Blackberry Jam]]'
p2
I1
sS'[[Violet Dress]]'
p3
I60
sS'[[Strawberry Ice Cream]]'
p4
I65
sS'[[Raspberry Muffin]]'
p5
I28
sS'[[Apple Pie]]'
p6
I58
sS'[[Tomato Juice]]'
p7
I76
sS'[[Carrot Cake]]'
p8
I15
sS'[[Vanilla Ice Cream]]'
p9
I49
sS'[[Lure]]'
p10
I7
sS'[[Carrot Pie]]'
p11
I19
sS'[[Tomato]]'
p12
I13
sS'[[Cherry Juice]]'
p13
I67
sS'[[Cheesecake]]'
p14
I66
sS'[[Fish Pie]]'
p15
I70
sS'[[Pancake]]'
p16
I4
sS'[[Popcorn]]'
p17
I22
sS'[[Goat Cheese]]'
p18
I77
sS'[[Potato Bread]]'
p19
I81
sS'[[Goat Feed]]'
p20
I74
sS'[[Red Berry Cake]]'
p21
I73
sS'[[Pizza]]'
p22
I17
sS'[[Syrup]]'
p23
I57
sS'[[Sheep Feed]]'
p24
I69
sS'[[Cherry Popsicle]]'
p25
I46
sS'[[Bacon and Eggs]]'
p26
I27
sS'[[Carrot Juice]]'
p27
I9
sS'[[Baked Potato]]'
p28
I45
sS'[[Milk]]'
p29
I38
sS'[[Apple Jam]]'
p30
I8
sS'[[Carrot]]'
p31
I2
sS'[[Blackberry]]'
p32
I79
sS'[[Cotton Shirt]]'
p33
I88
sS'[[Cream]]'
p34
I62
sS'[[Raspberry Jam]]'
p35
I0
sS'[[Cherry]]'
p36
I5
sS'[[Bread]]'
p37
I52
sS'[[Wheat]]'
p38
I51
sS'[[Casserole]]'
p39
I83
sS'[[Chili Pepper]]'
p40
I26
sS'[[Honey Popcorn]]'
p41
I40
sS'[[Honeycomb]]'
p42
I89
sS'[[Indigo]]'
p43
I55
sS'[[Raspberry]]'
p44
I30
sS'[[Chocolate Cake]]'
p45
I33
sS'[[Spicy Pizza]]'
p46
I18
sS'[[Cacao]]'
p47
I72
sS'[[Woolly Chaps]]'
p48
I87
sS'[[Honey]]'
p49
I16
sS'[[Egg]]'
p50
I31
sS'[[Strawberry Cake]]'
p51
I39
sS'[[Potato]]'
p52
I63
sS'[[Fish Burger]]'
p53
I25
sS'[[White Sugar]]'
p54
I43
sS'[[Buttered Popcorn]]'
p55
I3
sS'[[Cream Cake]]'
p56
I71
sS'[[Soybean]]'
p57
I90
sS'[[Apple]]'
p58
I29
sS'[[Blue Woolly Hat]]'
p59
I78
sS'[[Goat Milk]]'
p60
I42
sS'[[Hamburger]]'
p61
I84
sS'[[Cherry Jam]]'
p62
I10
sS"[[Shepherd's Pie]]"
p63
I21
sS'[[Brown Sugar]]'
p64
I20
sS'[[Butter]]'
p65
I35
sS'[[Bacon Pie]]'
p66
I36
sS'[[Strawberry]]'
p67
I41
sS'[[Pumpkin Pie]]'
p68
I54
sS'[[Corn]]'
p69
I24
sS'[[Fish Fillet]]'
p70
I61
sS'[[Chili Popcorn]]'
p71
I34
sS'[[Sugarcane]]'
p72
I75
sS'[[Cotton Fabric]]'
p73
I47
sS'[[Blue Sweater]]'
p74
I11
sS'[[Potato Feta Cake]]'
p75
I12
sS'[[Cookie]]'
p76
I48
sS'[[Apple Juice]]'
p77
I44
sS'[[Pig Feed]]'
p78
I85
sS'[[Cotton]]'
p79
I56
sS'[[Feta Pie]]'
p80
I80
sS'[[Cheese]]'
p81
I64
sS'[[Chocolate Ice Cream]]'
p82
I53
sS'[[Bacon]]'
p83
I50
sS'[[Chicken Feed]]'
p84
I59
sS'[[Corn Bread]]'
p85
I6
sS'[[Wool]]'
p86
I37
sS'[[Roasted Tomatoes]]'
p87
I68
sS'[[Berry Juice]]'
p88
I82
sS'[[Sweater]]'
p89
I32
sS'[[Blackberry Muffin]]'
p90
I23
sS'[[Cow Feed]]'
p91
I14
s.(dp0
S'[[Blue Sweater]]'
p1
I3
sS'[[Casserole]]'
p2
I5
sS'[[Sweater]]'
p3
I4
sS'[[Cherry Popsicle]]'
p4
I5
sS'[[Honey]]'
p5
I0
sS'[[Honey Popcorn]]'
p6
I4
sS'[[Fish Pie]]'
p7
I4
sS'[[Corn]]'
p8
I0
sS'[[Lure]]'
p9
I0
sS'[[Chocolate Cake]]'
p10
I2
s.