(dp0
S'[[Pumpkin]]'
p1
I73
sS'[[Blackberry Jam]]'
p2
I30
sS'[[Violet Dress]]'
p3
I10
sS'[[Strawberry Ice Cream]]'
p4
I41
sS'[[Raspberry Muffin]]'
p5
I77
sS'[[Apple Pie]]'
p6
I79
sS'[[Tomato Juice]]'
p7
I70
sS'[[Blue Sweater]]'
p8
I17
sS'[[Honey]]'
p9
I23
sS'[[Vanilla Ice Cream]]'
p10
I12
sS'[[Lure]]'
p11
I62
sS'[[Carrot Pie]]'
p12
I42
sS'[[Tomato]]'
p13
I46
sS'[[Potato]]'
p14
I14
sS'[[Cheesecake]]'
p15
I26
sS'[[Fish Pie]]'
p16
I38
sS'[[Pancake]]'
p17
I36
sS'[[Popcorn]]'
p18
I90
sS'[[Goat Cheese]]'
p19
I89
sS'[[Potato Bread]]'
p20
I49
sS'[[Goat Feed]]'
p21
I82
sS'[[Red Berry Cake]]'
p22
I78
sS'[[Pizza]]'
p23
I48
sS'[[Syrup]]'
p24
I27
sS'[[Sheep Feed]]'
p25
I68
sS'[[Cherry Popsicle]]'
p26
I67
sS'[[Bacon and Eggs]]'
p27
I0
sS'[[Carrot]]'
p28
I3
sS'[[Carrot Juice]]'
p29
I20
sS'[[Baked Potato]]'
p30
I39
sS'[[Milk]]'
p31
I69
sS'[[Apple Jam]]'
p32
I85
sS'[[Apple]]'
p33
I28
sS'[[Blackberry]]'
p34
I16
sS'[[Cotton Shirt]]'
p35
I25
sS'[[Cream]]'
p36
I81
sS'[[Raspberry Jam]]'
p37
I22
sS'[[Cherry]]'
p38
I76
sS'[[Bread]]'
p39
I47
sS'[[Wheat]]'
p40
I1
sS'[[Casserole]]'
p41
I83
sS'[[Strawberry]]'
p42
I24
sS'[[Honey Popcorn]]'
p43
I37
sS'[[Honeycomb]]'
p44
I44
sS'[[Indigo]]'
p45
I57
sS'[[Raspberry]]'
p46
I86
sS'[[Chocolate Cake]]'
p47
I52
sS'[[Spicy Pizza]]'
p48
I58
sS'[[Cacao]]'
p49
I66
sS'[[Woolly Chaps]]'
p50
I18
sS'[[Carrot Cake]]'
p51
I5
sS'[[Egg]]'
p52
I43
sS'[[Strawberry Cake]]'
p53
I72
sS'[[Cherry Juice]]'
p54
I21
sS'[[Fish Burger]]'
p55
I74
sS'[[White Sugar]]'
p56
I35
sS'[[Buttered Popcorn]]'
p57
I32
sS'[[Cream Cake]]'
p58
I7
sS'[[Soybean]]'
p59
I6
sS'[[Brown Sugar]]'
p60
I29
sS'[[Blue Woolly Hat]]'
p61
I64
sS'[[Goat Milk]]'
p62
I51
sS'[[Hamburger]]'
p63
I13
sS'[[Cherry Jam]]'
p64
I75
sS"[[Shepherd's Pie]]"
p65
I84
sS'[[Butter]]'
p66
I87
sS'[[Bacon Pie]]'
p67
I4
sS'[[Chili Pepper]]'
p68
I11
sS'[[Corn]]'
p69
I59
sS'[[Fish Fillet]]'
p70
I65
sS'[[Chili Popcorn]]'
p71
I50
sS'[[Bacon]]'
p72
I88
sS'[[Cotton Fabric]]'
p73
I15
sS'[[Pumpkin Pie]]'
p74
I33
sS'[[Potato Feta Cake]]'
p75
I45
sS'[[Sugarcane]]'
p76
I8
sS'[[Cookie]]'
p77
I19
sS'[[Apple Juice]]'
p78
I54
sS'[[Pig Feed]]'
p79
I71
sS'[[Cotton]]'
p80
I2
sS'[[Feta Pie]]'
p81
I40
sS'[[Cheese]]'
p82
I31
sS'[[Chocolate Ice Cream]]'
p83
I63
sS'[[Chicken Feed]]'
p84
I53
sS'[[Corn Bread]]'
p85
I61
sS'[[Wool]]'
p86
I60
sS'[[Roasted Tomatoes]]'
p87
I9
sS'[[Berry Juice]]'
p88
I34
sS'[[Sweater]]'
p89
I55
sS'[[Blackberry Muffin]]'
p90
I56
sS'[[Cow Feed]]'
p91
I80
s.(dp0
S'[[Corn]]'
p1
I0
sS'[[Chili Pepper]]'
p2
I0
sS'[[Cherry Popsicle]]'
p3
I5
sS'[[Blue Woolly Hat]]'
p4
I5
sS'[[Fish Pie]]'
p5
I4
sS'[[Carrot Juice]]'
p6
I5
sS'[[Blackberry Muffin]]'
p7
I5
sS'[[Butter]]'
p8
I3
sS'[[Vanilla Ice Cream]]'
p9
I4
sS'[[Cheese]]'
p10
I5
sS'[[Lure]]'
p11
I0
sS'[[Pizza]]'
p12
I5
s.