(dp0
S'[[Pumpkin]]'
p1
I27
sS'[[Blackberry Jam]]'
p2
I41
sS'[[Violet Dress]]'
p3
I59
sS'[[Strawberry Ice Cream]]'
p4
I25
sS'[[Raspberry Muffin]]'
p5
I5
sS'[[Apple Pie]]'
p6
I29
sS'[[Tomato Juice]]'
p7
I37
sS'[[Carrot Cake]]'
p8
I54
sS'[[Vanilla Ice Cream]]'
p9
I87
sS'[[Lure]]'
p10
I22
sS'[[Carrot Pie]]'
p11
I75
sS'[[Tomato]]'
p12
I72
sS'[[Cherry Juice]]'
p13
I52
sS'[[Cheesecake]]'
p14
I0
sS'[[Fish Pie]]'
p15
I9
sS'[[Pancake]]'
p16
I50
sS'[[Popcorn]]'
p17
I4
sS'[[Goat Cheese]]'
p18
I3
sS'[[Potato Bread]]'
p19
I12
sS'[[Goat Feed]]'
p20
I10
sS'[[Red Berry Cake]]'
p21
I14
sS'[[Pizza]]'
p22
I74
sS'[[Syrup]]'
p23
I48
sS'[[Sheep Feed]]'
p24
I7
sS'[[Cherry Popsicle]]'
p25
I17
sS'[[Bacon and Eggs]]'
p26
I60
sS'[[Carrot Juice]]'
p27
I6
sS'[[Baked Potato]]'
p28
I90
sS'[[Milk]]'
p29
I68
sS'[[Apple Jam]]'
p30
I49
sS'[[Carrot]]'
p31
I56
sS'[[Blackberry]]'
p32
I85
sS'[[Cotton Shirt]]'
p33
I26
sS'[[Cream]]'
p34
I83
sS'[[Raspberry Jam]]'
p35
I42
sS'[[Cherry]]'
p36
I20
sS'[[Bread]]'
p37
I23
sS'[[Wheat]]'
p38
I28
sS'[[Casserole]]'
p39
I57
sS'[[Chili Pepper]]'
p40
I71
sS'[[Honey Popcorn]]'
p41
I79
sS'[[Honeycomb]]'
p42
I55
sS'[[Indigo]]'
p43
I30
sS'[[Raspberry]]'
p44
I44
sS'[[Chocolate Cake]]'
p45
I43
sS'[[Spicy Pizza]]'
p46
I13
sS'[[Cacao]]'
p47
I35
sS'[[Woolly Chaps]]'
p48
I36
sS'[[Honey]]'
p49
I81
sS'[[Egg]]'
p50
I69
sS'[[Strawberry Cake]]'
p51
I15
sS'[[Potato]]'
p52
I46
sS'[[Fish Burger]]'
p53
I78
sS'[[White Sugar]]'
p54
I11
sS'[[Buttered Popcorn]]'
p55
I89
sS'[[Cream Cake]]'
p56
I21
sS'[[Soybean]]'
p57
I2
sS'[[Apple]]'
p58
I1
sS'[[Blue Woolly Hat]]'
p59
I77
sS'[[Goat Milk]]'
p60
I86
sS'[[Hamburger]]'
p61
I31
sS'[[Cherry Jam]]'
p62
I88
sS"[[Shepherd's Pie]]"
p63
I39
sS'[[Brown Sugar]]'
p64
I62
sS'[[Butter]]'
p65
I8
sS'[[Bacon Pie]]'
p66
I16
sS'[[Strawberry]]'
p67
I76
sS'[[Pumpkin Pie]]'
p68
I70
sS'[[Corn]]'
p69
I32
sS'[[Fish Fillet]]'
p70
I19
sS'[[Chili Popcorn]]'
p71
I33
sS'[[Sugarcane]]'
p72
I63
sS'[[Cotton Fabric]]'
p73
I40
sS'[[Blue Sweater]]'
p74
I80
sS'[[Potato Feta Cake]]'
p75
I34
sS'[[Cookie]]'
p76
I51
sS'[[Apple Juice]]'
p77
I18
sS'[[Pig Feed]]'
p78
I82
sS'[[Cotton]]'
p79
I73
sS'[[Feta Pie]]'
p80
I58
sS'[[Cheese]]'
p81
I45
sS'[[Chocolate Ice Cream]]'
p82
I84
sS'[[Bacon]]'
p83
I67
sS'[[Chicken Feed]]'
p84
I47
sS'[[Corn Bread]]'
p85
I66
sS'[[Wool]]'
p86
I61
sS'[[Roasted Tomatoes]]'
p87
I53
sS'[[Berry Juice]]'
p88
I65
sS'[[Sweater]]'
p89
I38
sS'[[Blackberry Muffin]]'
p90
I64
sS'[[Cow Feed]]'
p91
I24
s.(dp0
S'[[Wheat]]'
p1
I0
sS'[[Sheep Feed]]'
p2
I4
sS'[[Casserole]]'
p3
I4
sS'[[Potato Bread]]'
p4
I1
sS'[[Woolly Chaps]]'
p5
I4
sS'[[Apple]]'
p6
I2
sS'[[Pig Feed]]'
p7
I4
sS'[[Chocolate Ice Cream]]'
p8
I2
sS'[[Chocolate Cake]]'
p9
I3
sS'[[Cotton Fabric]]'
p10
I0
sS'[[Cow Feed]]'
p11
I2
sS'[[Violet Dress]]'
p12
I4
s.