(dp0
S'[[Pumpkin]]'
p1
I33
sS'[[Carrot Pie]]'
p2
I45
sS'[[Violet Dress]]'
p3
I70
sS'[[Strawberry Ice Cream]]'
p4
I7
sS'[[Raspberry Muffin]]'
p5
I44
sS'[[Woolly Chaps]]'
p6
I76
sS'[[Tomato Juice]]'
p7
I6
sS'[[Honey]]'
p8
I35
sS'[[Vanilla Ice Cream]]'
p9
I22
sS'[[Lure]]'
p10
I17
sS'[[Blackberry Jam]]'
p11
I86
sS'[[Tomato]]'
p12
I63
sS'[[Potato]]'
p13
I23
sS'[[Cheesecake]]'
p14
I11
sS'[[Fish Pie]]'
p15
I69
sS'[[Pancake]]'
p16
I29
sS'[[Popcorn]]'
p17
I83
sS'[[Goat Cheese]]'
p18
I12
sS'[[Potato Bread]]'
p19
I54
sS'[[Goat Feed]]'
p20
I24
sS'[[Red Berry Cake]]'
p21
I71
sS'[[Pizza]]'
p22
I90
sS'[[Syrup]]'
p23
I57
sS'[[Sheep Feed]]'
p24
I73
sS'[[Cherry Popsicle]]'
p25
I85
sS'[[Bacon and Eggs]]'
p26
I27
sS'[[Carrot Juice]]'
p27
I52
sS'[[Baked Potato]]'
p28
I88
sS'[[Milk]]'
p29
I53
sS'[[Apple Jam]]'
p30
I72
sS'[[Carrot]]'
p31
I87
sS'[[Blackberry]]'
p32
I15
sS'[[Cotton Shirt]]'
p33
I37
sS'[[Cream]]'
p34
I68
sS'[[Raspberry Jam]]'
p35
I51
sS'[[Cherry]]'
p36
I80
sS'[[Bread]]'
p37
I67
sS'[[Wheat]]'
p38
I36
sS'[[Casserole]]'
p39
I49
sS'[[Strawberry]]'
p40
I14
sS'[[Potato Feta Cake]]'
p41
I21
sS'[[Spicy Pizza]]'
p42
I59
sS'[[Indigo]]'
p43
I65
sS'[[Raspberry]]'
p44
I56
sS'[[Chocolate Cake]]'
p45
I43
sS'[[Apple Pie]]'
p46
I60
sS'[[Cacao]]'
p47
I4
sS'[[Blue Sweater]]'
p48
I77
sS'[[Carrot Cake]]'
p49
I47
sS'[[Egg]]'
p50
I75
sS'[[Strawberry Cake]]'
p51
I66
sS'[[Cherry Juice]]'
p52
I46
sS'[[Fish Burger]]'
p53
I50
sS'[[White Sugar]]'
p54
I39
sS'[[Buttered Popcorn]]'
p55
I1
sS'[[Cream Cake]]'
p56
I28
sS'[[Soybean]]'
p57
I5
sS'[[Brown Sugar]]'
p58
I55
sS'[[Blue Woolly Hat]]'
p59
I89
sS'[[Goat Milk]]'
p60
I2
sS'[[Hamburger]]'
p61
I48
sS'[[Cherry Jam]]'
p62
I8
sS"[[Shepherd's Pie]]"
p63
I82
sS'[[Apple]]'
p64
I26
sS'[[Butter]]'
p65
I41
sS'[[Bacon Pie]]'
p66
I84
sS'[[Chili Pepper]]'
p67
I3
sS'[[Corn]]'
p68
I62
sS'[[Fish Fillet]]'
p69
I61
sS'[[Chili Popcorn]]'
p70
I9
sS'[[Bacon]]'
p71
I16
sS'[[Cotton Fabric]]'
p72
I81
sS'[[Pumpkin Pie]]'
p73
I25
sS'[[Honey Popcorn]]'
p74
I40
sS'[[Sugarcane]]'
p75
I64
sS'[[Cookie]]'
p76
I13
sS'[[Apple Juice]]'
p77
I79
sS'[[Pig Feed]]'
p78
I0
sS'[[Cotton]]'
p79
I32
sS'[[Feta Pie]]'
p80
I18
sS'[[Cheese]]'
p81
I34
sS'[[Chocolate Ice Cream]]'
p82
I19
sS'[[Chicken Feed]]'
p83
I42
sS'[[Corn Bread]]'
p84
I10
sS'[[Honeycomb]]'
p85
I74
sS'[[Wool]]'
p86
I78
sS'[[Roasted Tomatoes]]'
p87
I31
sS'[[Berry Juice]]'
p88
I38
sS'[[Sweater]]'
p89
I30
sS'[[Blackberry Muffin]]'
p90
I58
sS'[[Cow Feed]]'
p91
I20
s.(dp0
S'[[Blue Sweater]]'
p1
I0
sS'[[Cow Feed]]'
p2
I2
sS'[[Strawberry Ice Cream]]'
p3
I3
sS'[[Strawberry]]'
p4
I3
sS'[[Cacao]]'
p5
I3
sS'[[Woolly Chaps]]'
p6
I5
sS'[[Vanilla Ice Cream]]'
p7
I3
sS'[[Cheese]]'
p8
I4
sS'[[Bacon Pie]]'
p9
I2
sS'[[Potato Bread]]'
p10
I5
s.