(dp0
S'[[Pumpkin]]'
p1
I38
sS'[[Blackberry Jam]]'
p2
I64
sS'[[Violet Dress]]'
p3
I88
sS'[[Strawberry Ice Cream]]'
p4
I62
sS'[[Raspberry Muffin]]'
p5
I58
sS'[[Apple Pie]]'
p6
I71
sS'[[Tomato Juice]]'
p7
I31
sS'[[Blue Sweater]]'
p8
I29
sS'[[Honey]]'
p9
I76
sS'[[Vanilla Ice Cream]]'
p10
I53
sS'[[Lure]]'
p11
I8
sS'[[Carrot Pie]]'
p12
I66
sS'[[Tomato]]'
p13
I81
sS'[[Potato]]'
p14
I72
sS'[[Cheesecake]]'
p15
I75
sS'[[Fish Pie]]'
p16
I57
sS'[[Pancake]]'
p17
I86
sS'[[Popcorn]]'
p18
I69
sS'[[Goat Cheese]]'
p19
I9
sS'[[Potato Bread]]'
p20
I33
sS'[[Goat Feed]]'
p21
I70
sS'[[Red Berry Cake]]'
p22
I32
sS'[[Pizza]]'
p23
I47
sS'[[Syrup]]'
p24
I20
sS'[[Sheep Feed]]'
p25
I80
sS'[[Cherry Popsicle]]'
p26
I12
sS'[[Bacon and Eggs]]'
p27
I1
sS'[[Carrot]]'
p28
I34
sS'[[Carrot Juice]]'
p29
I56
sS'[[Baked Potato]]'
p30
I3
sS'[[Milk]]'
p31
I15
sS'[[Apple Jam]]'
p32
I79
sS'[[Apple]]'
p33
I16
sS'[[Blackberry]]'
p34
I37
sS'[[Cotton Shirt]]'
p35
I51
sS'[[Cream]]'
p36
I35
sS'[[Raspberry Jam]]'
p37
I63
sS'[[Cherry]]'
p38
I43
sS'[[Bread]]'
p39
I49
sS'[[Wheat]]'
p40
I21
sS'[[Casserole]]'
p41
I60
sS'[[Strawberry]]'
p42
I39
sS'[[Honey Popcorn]]'
p43
I11
sS'[[Honeycomb]]'
p44
I28
sS'[[Indigo]]'
p45
I18
sS'[[Raspberry]]'
p46
I6
sS'[[Chocolate Cake]]'
p47
I50
sS'[[Spicy Pizza]]'
p48
I13
sS'[[Cacao]]'
p49
I45
sS'[[Woolly Chaps]]'
p50
I83
sS'[[Carrot Cake]]'
p51
I48
sS'[[Egg]]'
p52
I23
sS'[[Strawberry Cake]]'
p53
I46
sS'[[Cherry Juice]]'
p54
I4
sS'[[Fish Burger]]'
p55
I41
sS'[[White Sugar]]'
p56
I74
sS'[[Buttered Popcorn]]'
p57
I30
sS'[[Cream Cake]]'
p58
I52
sS'[[Soybean]]'
p59
I40
sS'[[Brown Sugar]]'
p60
I54
sS'[[Blue Woolly Hat]]'
p61
I24
sS'[[Goat Milk]]'
p62
I44
sS'[[Hamburger]]'
p63
I65
sS'[[Cherry Jam]]'
p64
I84
sS"[[Shepherd's Pie]]"
p65
I2
sS'[[Butter]]'
p66
I55
sS'[[Bacon Pie]]'
p67
I85
sS'[[Chili Pepper]]'
p68
I5
sS'[[Corn]]'
p69
I17
sS'[[Fish Fillet]]'
p70
I42
sS'[[Chili Popcorn]]'
p71
I22
sS'[[Bacon]]'
p72
I89
sS'[[Cotton Fabric]]'
p73
I67
sS'[[Pumpkin Pie]]'
p74
I7
sS'[[Potato Feta Cake]]'
p75
I90
sS'[[Sugarcane]]'
p76
I59
sS'[[Cookie]]'
p77
I10
sS'[[Apple Juice]]'
p78
I61
sS'[[Pig Feed]]'
p79
I73
sS'[[Cotton]]'
p80
I68
sS'[[Feta Pie]]'
p81
I82
sS'[[Cheese]]'
p82
I27
sS'[[Chocolate Ice Cream]]'
p83
I26
sS'[[Chicken Feed]]'
p84
I0
sS'[[Corn Bread]]'
p85
I36
sS'[[Wool]]'
p86
I19
sS'[[Roasted Tomatoes]]'
p87
I14
sS'[[Berry Juice]]'
p88
I78
sS'[[Sweater]]'
p89
I77
sS'[[Blackberry Muffin]]'
p90
I87
sS'[[Cow Feed]]'
p91
I25
s.(dp0
S'[[Wheat]]'
p1
I0
sS'[[Cherry Juice]]'
p2
I4
sS'[[Fish Fillet]]'
p3
I5
sS'[[Carrot]]'
p4
I4
sS'[[Syrup]]'
p5
I4
sS'[[Bacon and Eggs]]'
p6
I5
sS'[[Apple Pie]]'
p7
I1
sS'[[Egg]]'
p8
I2
sS'[[Baked Potato]]'
p9
I2
sS'[[Woolly Chaps]]'
p10
I4
sS'[[Bacon]]'
p11
I3
sS'[[Violet Dress]]'
p12
I4
s.