(dp0
S'[[Pumpkin]]'
p1
I29
sS'[[Carrot Pie]]'
p2
I47
sS'[[Violet Dress]]'
p3
I56
sS'[[Strawberry Ice Cream]]'
p4
I33
sS'[[Raspberry Muffin]]'
p5
I34
sS'[[Woolly Chaps]]'
p6
I86
sS'[[Tomato Juice]]'
p7
I36
sS'[[Honey]]'
p8
I12
sS'[[Vanilla Ice Cream]]'
p9
I8
sS'[[Lure]]'
p10
I90
sS'[[Blackberry Jam]]'
p11
I68
sS'[[Tomato]]'
p12
I43
sS'[[Potato]]'
p13
I0
sS'[[Cheesecake]]'
p14
I26
sS'[[Fish Pie]]'
p15
I5
sS'[[Pancake]]'
p16
I52
sS'[[Popcorn]]'
p17
I71
sS'[[Goat Cheese]]'
p18
I72
sS'[[Potato Bread]]'
p19
I88
sS'[[Goat Feed]]'
p20
I64
sS'[[Red Berry Cake]]'
p21
I53
sS'[[Pizza]]'
p22
I11
sS'[[Syrup]]'
p23
I20
sS'[[Sheep Feed]]'
p24
I23
sS'[[Cherry Popsicle]]'
p25
I55
sS'[[Bacon and Eggs]]'
p26
I75
sS'[[Carrot Juice]]'
p27
I74
sS'[[Baked Potato]]'
p28
I58
sS'[[Milk]]'
p29
I13
sS'[[Apple Jam]]'
p30
I69
sS'[[Carrot]]'
p31
I15
sS'[[Blackberry]]'
p32
I73
sS'[[Cotton Shirt]]'
p33
I81
sS'[[Cream]]'
p34
I38
sS'[[Raspberry Jam]]'
p35
I44
sS'[[Cherry]]'
p36
I3
sS'[[Bread]]'
p37
I7
sS'[[Wheat]]'
p38
I45
sS'[[Casserole]]'
p39
I50
sS'[[Strawberry]]'
p40
I24
sS'[[Potato Feta Cake]]'
p41
I62
sS'[[Spicy Pizza]]'
p42
I85
sS'[[Indigo]]'
p43
I30
sS'[[Raspberry]]'
p44
I16
sS'[[Chocolate Cake]]'
p45
I46
sS'[[Apple Pie]]'
p46
I48
sS'[[Cacao]]'
p47
I61
sS'[[Blue Sweater]]'
p48
I89
sS'[[Carrot Cake]]'
p49
I84
sS'[[Egg]]'
p50
I54
sS'[[Strawberry Cake]]'
p51
I4
sS'[[Cherry Juice]]'
p52
I65
sS'[[Fish Burger]]'
p53
I31
sS'[[White Sugar]]'
p54
I18
sS'[[Buttered Popcorn]]'
p55
I40
sS'[[Cream Cake]]'
p56
I35
sS'[[Soybean]]'
p57
I25
sS'[[Brown Sugar]]'
p58
I87
sS'[[Blue Woolly Hat]]'
p59
I21
sS'[[Goat Milk]]'
p60
I63
sS'[[Hamburger]]'
p61
I28
sS'[[Cherry Jam]]'
p62
I37
sS"[[Shepherd's Pie]]"
p63
I1
sS'[[Apple]]'
p64
I78
sS'[[Butter]]'
p65
I17
sS'[[Bacon Pie]]'
p66
I66
sS'[[Chili Pepper]]'
p67
I70
sS'[[Corn]]'
p68
I32
sS'[[Fish Fillet]]'
p69
I59
sS'[[Chili Popcorn]]'
p70
I10
sS'[[Bacon]]'
p71
I51
sS'[[Cotton Fabric]]'
p72
I42
sS'[[Pumpkin Pie]]'
p73
I67
sS'[[Honey Popcorn]]'
p74
I80
sS'[[Sugarcane]]'
p75
I2
sS'[[Cookie]]'
p76
I79
sS'[[Apple Juice]]'
p77
I83
sS'[[Pig Feed]]'
p78
I19
sS'[[Cotton]]'
p79
I49
sS'[[Feta Pie]]'
p80
I82
sS'[[Cheese]]'
p81
I27
sS'[[Chocolate Ice Cream]]'
p82
I60
sS'[[Chicken Feed]]'
p83
I57
sS'[[Corn Bread]]'
p84
I76
sS'[[Honeycomb]]'
p85
I14
sS'[[Wool]]'
p86
I39
sS'[[Roasted Tomatoes]]'
p87
I9
sS'[[Berry Juice]]'
p88
I22
sS'[[Sweater]]'
p89
I6
sS'[[Blackberry Muffin]]'
p90
I77
sS'[[Cow Feed]]'
p91
I41
s.(dp0
S'[[Potato Bread]]'
p1
I4
sS'[[Raspberry Muffin]]'
p2
I2
sS'[[Honey Popcorn]]'
p3
I4
sS'[[Carrot Juice]]'
p4
I4
sS'[[Spicy Pizza]]'
p5
I5
sS'[[Goat Cheese]]'
p6
I4
sS'[[Bacon]]'
p7
I3
sS'[[Apple Juice]]'
p8
I5
sS'[[Violet Dress]]'
p9
I3
sS'[[Strawberry]]'
p10
I4
s.