(dp0
S'[[Pumpkin]]'
p1
I47
sS'[[Blackberry Jam]]'
p2
I71
sS'[[Violet Dress]]'
p3
I16
sS'[[Strawberry Ice Cream]]'
p4
I40
sS'[[Raspberry Muffin]]'
p5
I6
sS'[[Apple Pie]]'
p6
I38
sS'[[Tomato Juice]]'
p7
I78
sS'[[Blue Sweater]]'
p8
I62
sS'[[Honey]]'
p9
I76
sS'[[Vanilla Ice Cream]]'
p10
I52
sS'[[Lure]]'
p11
I60
sS'[[Carrot Pie]]'
p12
I20
sS'[[Tomato]]'
p13
I64
sS'[[Potato]]'
p14
I8
sS'[[Cheesecake]]'
p15
I14
sS'[[Fish Pie]]'
p16
I7
sS'[[Pancake]]'
p17
I3
sS'[[Popcorn]]'
p18
I48
sS'[[Goat Cheese]]'
p19
I13
sS'[[Potato Bread]]'
p20
I67
sS'[[Goat Feed]]'
p21
I72
sS'[[Red Berry Cake]]'
p22
I18
sS'[[Pizza]]'
p23
I55
sS'[[Syrup]]'
p24
I41
sS'[[Sheep Feed]]'
p25
I9
sS'[[Cherry Popsicle]]'
p26
I19
sS'[[Bacon and Eggs]]'
p27
I87
sS'[[Carrot]]'
p28
I37
sS'[[Carrot Juice]]'
p29
I21
sS'[[Baked Potato]]'
p30
I33
sS'[[Milk]]'
p31
I12
sS'[[Apple Jam]]'
p32
I15
sS'[[Apple]]'
p33
I89
sS'[[Blackberry]]'
p34
I30
sS'[[Cotton Shirt]]'
p35
I44
sS'[[Cream]]'
p36
I88
sS'[[Raspberry Jam]]'
p37
I59
sS'[[Cherry]]'
p38
I17
sS'[[Bread]]'
p39
I25
sS'[[Wheat]]'
p40
I4
sS'[[Casserole]]'
p41
I66
sS'[[Strawberry]]'
p42
I86
sS'[[Honey Popcorn]]'
p43
I81
sS'[[Honeycomb]]'
p44
I80
sS'[[Indigo]]'
p45
I26
sS'[[Raspberry]]'
p46
I58
sS'[[Chocolate Cake]]'
p47
I73
sS'[[Spicy Pizza]]'
p48
I75
sS'[[Cacao]]'
p49
I10
sS'[[Woolly Chaps]]'
p50
I45
sS'[[Carrot Cake]]'
p51
I31
sS'[[Egg]]'
p52
I83
sS'[[Strawberry Cake]]'
p53
I90
sS'[[Cherry Juice]]'
p54
I68
sS'[[Fish Burger]]'
p55
I24
sS'[[White Sugar]]'
p56
I77
sS'[[Buttered Popcorn]]'
p57
I82
sS'[[Cream Cake]]'
p58
I50
sS'[[Soybean]]'
p59
I42
sS'[[Brown Sugar]]'
p60
I70
sS'[[Blue Woolly Hat]]'
p61
I49
sS'[[Goat Milk]]'
p62
I43
sS'[[Hamburger]]'
p63
I29
sS'[[Cherry Jam]]'
p64
I34
sS"[[Shepherd's Pie]]"
p65
I63
sS'[[Butter]]'
p66
I36
sS'[[Bacon Pie]]'
p67
I11
sS'[[Chili Pepper]]'
p68
I2
sS'[[Corn]]'
p69
I5
sS'[[Fish Fillet]]'
p70
I39
sS'[[Chili Popcorn]]'
p71
I74
sS'[[Bacon]]'
p72
I0
sS'[[Cotton Fabric]]'
p73
I53
sS'[[Pumpkin Pie]]'
p74
I79
sS'[[Potato Feta Cake]]'
p75
I27
sS'[[Sugarcane]]'
p76
I1
sS'[[Cookie]]'
p77
I35
sS'[[Apple Juice]]'
p78
I56
sS'[[Pig Feed]]'
p79
I32
sS'[[Cotton]]'
p80
I23
sS'[[Feta Pie]]'
p81
I57
sS'[[Cheese]]'
p82
I22
sS'[[Chocolate Ice Cream]]'
p83
I54
sS'[[Chicken Feed]]'
p84
I61
sS'[[Corn Bread]]'
p85
I46
sS'[[Wool]]'
p86
I85
sS'[[Roasted Tomatoes]]'
p87
I65
sS'[[Berry Juice]]'
p88
I69
sS'[[Sweater]]'
p89
I28
sS'[[Blackberry Muffin]]'
p90
I84
sS'[[Cow Feed]]'
p91
I51
s.(dp0
S'[[Apple Pie]]'
p1
I5
sS'[[Strawberry Ice Cream]]'
p2
I1
sS'[[Cheesecake]]'
p3
I2
sS'[[Pumpkin]]'
p4
I3
sS'[[Bacon and Eggs]]'
p5
I0
sS'[[Honey Popcorn]]'
p6
I5
sS'[[Spicy Pizza]]'
p7
I2
sS'[[Cheese]]'
p8
I4
sS'[[Buttered Popcorn]]'
p9
I1
sS"[[Shepherd's Pie]]"
p10
I5
sS'[[Blue Woolly Hat]]'
p11
I0
s.