(dp0
S'[[Pumpkin]]'
p1
I4
sS'[[Blackberry Jam]]'
p2
I16
sS'[[Violet Dress]]'
p3
I83
sS'[[Strawberry Ice Cream]]'
p4
I33
sS'[[Raspberry Muffin]]'
p5
I53
sS'[[Apple Pie]]'
p6
I18
sS'[[Tomato Juice]]'
p7
I21
sS'[[Carrot Cake]]'
p8
I47
sS'[[Vanilla Ice Cream]]'
p9
I44
sS'[[Lure]]'
p10
I5
sS'[[Carrot Pie]]'
p11
I12
sS'[[Tomato]]'
p12
I54
sS'[[Cherry Juice]]'
p13
I76
sS'[[Cheesecake]]'
p14
I77
sS'[[Fish Pie]]'
p15
I57
sS'[[Pancake]]'
p16
I79
sS'[[Popcorn]]'
p17
I28
sS'[[Goat Cheese]]'
p18
I64
sS'[[Potato Bread]]'
p19
I59
sS'[[Goat Feed]]'
p20
I80
sS'[[Red Berry Cake]]'
p21
I35
sS'[[Pizza]]'
p22
I88
sS'[[Syrup]]'
p23
I30
sS'[[Sheep Feed]]'
p24
I38
sS'[[Cherry Popsicle]]'
p25
I81
sS'[[Bacon and Eggs]]'
p26
I90
sS'[[Carrot Juice]]'
p27
I10
sS'[[Baked Potato]]'
p28
I36
sS'[[Milk]]'
p29
I29
sS'[[Apple Jam]]'
p30
I62
sS'[[Carrot]]'
p31
I69
sS'[[Blackberry]]'
p32
I58
sS'[[Cotton Shirt]]'
p33
I63
sS'[[Cream]]'
p34
I49
sS'[[Raspberry Jam]]'
p35
I39
sS'[[Cherry]]'
p36
I22
sS'[[Bread]]'
p37
I67
sS'[[Wheat]]'
p38
I68
sS'[[Casserole]]'
p39
I32
sS'[[Chili Pepper]]'
p40
I87
sS'[[Honey Popcorn]]'
p41
I25
sS'[[Honeycomb]]'
p42
I56
sS'[[Indigo]]'
p43
I42
sS'[[Raspberry]]'
p44
I40
sS'[[Chocolate Cake]]'
p45
I8
sS'[[Spicy Pizza]]'
p46
I48
sS'[[Cacao]]'
p47
I37
sS'[[Woolly Chaps]]'
p48
I72
sS'[[Honey]]'
p49
I2
sS'[[Egg]]'
p50
I46
sS'[[Strawberry Cake]]'
p51
I13
sS'[[Potato]]'
p52
I9
sS'[[Fish Burger]]'
p53
I26
sS'[[White Sugar]]'
p54
I60
sS'[[Buttered Popcorn]]'
p55
I70
sS'[[Cream Cake]]'
p56
I52
sS'[[Soybean]]'
p57
I23
sS'[[Apple]]'
p58
I27
sS'[[Blue Woolly Hat]]'
p59
I0
sS'[[Goat Milk]]'
p60
I17
sS'[[Hamburger]]'
p61
I43
sS'[[Cherry Jam]]'
p62
I65
sS"[[Shepherd's Pie]]"
p63
I15
sS'[[Brown Sugar]]'
p64
I34
sS'[[Butter]]'
p65
I73
sS'[[Bacon Pie]]'
p66
I86
sS'[[Strawberry]]'
p67
I19
sS'[[Pumpkin Pie]]'
p68
I20
sS'[[Corn]]'
p69
I66
sS'[[Fish Fillet]]'
p70
I50
sS'[[Chili Popcorn]]'
p71
I24
sS'[[Bacon]]'
p72
I61
sS'[[Cotton Fabric]]'
p73
I78
sS'[[Blue Sweater]]'
p74
I82
sS'[[Potato Feta Cake]]'
p75
I14
sS'[[Sugarcane]]'
p76
I45
sS'[[Cookie]]'
p77
I41
sS'[[Apple Juice]]'
p78
I6
sS'[[Pig Feed]]'
p79
I3
sS'[[Cotton]]'
p80
I1
sS'[[Feta Pie]]'
p81
I85
sS'[[Cheese]]'
p82
I89
sS'[[Chocolate Ice Cream]]'
p83
I7
sS'[[Chicken Feed]]'
p84
I31
sS'[[Corn Bread]]'
p85
I75
sS'[[Wool]]'
p86
I51
sS'[[Roasted Tomatoes]]'
p87
I84
sS'[[Berry Juice]]'
p88
I11
sS'[[Sweater]]'
p89
I71
sS'[[Blackberry Muffin]]'
p90
I55
sS'[[Cow Feed]]'
p91
I74
s.(dp0
S'[[Strawberry Ice Cream]]'
p1
I3
sS'[[Egg]]'
p2
I3
sS'[[Honeycomb]]'
p3
I3
sS'[[Potato Feta Cake]]'
p4
I1
sS'[[Fish Pie]]'
p5
I4
sS'[[Cotton Shirt]]'
p6
I5
sS'[[Tomato Juice]]'
p7
I3
sS'[[Berry Juice]]'
p8
I0
sS'[[Vanilla Ice Cream]]'
p9
I1
sS'[[Sugarcane]]'
p10
I4
sS'[[White Sugar]]'
p11
I1
sS'[[Buttered Popcorn]]'
p12
I4
sS'[[Pizza]]'
p13
I4
s.