(dp0
S'[[Pumpkin]]'
p1
I25
sS'[[Blackberry Jam]]'
p2
I28
sS'[[Violet Dress]]'
p3
I39
sS'[[Strawberry Ice Cream]]'
p4
I36
sS'[[Raspberry Muffin]]'
p5
I78
sS'[[Apple Pie]]'
p6
I66
sS'[[Tomato Juice]]'
p7
I68
sS'[[Carrot Cake]]'
p8
I45
sS'[[Vanilla Ice Cream]]'
p9
I90
sS'[[Lure]]'
p10
I70
sS'[[Carrot Pie]]'
p11
I87
sS'[[Tomato]]'
p12
I20
sS'[[Cherry Juice]]'
p13
I38
sS'[[Cheesecake]]'
p14
I4
sS'[[Fish Pie]]'
p15
I80
sS'[[Pancake]]'
p16
I83
sS'[[Popcorn]]'
p17
I69
sS'[[Goat Cheese]]'
p18
I16
sS'[[Potato Bread]]'
p19
I12
sS'[[Goat Feed]]'
p20
I63
sS'[[Red Berry Cake]]'
p21
I41
sS'[[Pizza]]'
p22
I79
sS'[[Syrup]]'
p23
I33
sS'[[Sheep Feed]]'
p24
I86
sS'[[Cherry Popsicle]]'
p25
I11
sS'[[Bacon and Eggs]]'
p26
I65
sS'[[Carrot Juice]]'
p27
I72
sS'[[Baked Potato]]'
p28
I64
sS'[[Milk]]'
p29
I54
sS'[[Apple Jam]]'
p30
I42
sS'[[Carrot]]'
p31
I59
sS'[[Blackberry]]'
p32
I62
sS'[[Cotton Shirt]]'
p33
I67
sS'[[Cream]]'
p34
I81
sS'[[Raspberry Jam]]'
p35
I30
sS'[[Cherry]]'
p36
I34
sS'[[Bread]]'
p37
I35
sS'[[Wheat]]'
p38
I88
sS'[[Casserole]]'
p39
I14
sS'[[Chili Pepper]]'
p40
I49
sS'[[Honey Popcorn]]'
p41
I18
sS'[[Honeycomb]]'
p42
I40
sS'[[Indigo]]'
p43
I22
sS'[[Raspberry]]'
p44
I7
sS'[[Chocolate Cake]]'
p45
I23
sS'[[Spicy Pizza]]'
p46
I32
sS'[[Cacao]]'
p47
I13
sS'[[Woolly Chaps]]'
p48
I29
sS'[[Honey]]'
p49
I37
sS'[[Egg]]'
p50
I55
sS'[[Strawberry Cake]]'
p51
I89
sS'[[Potato]]'
p52
I47
sS'[[Fish Burger]]'
p53
I31
sS'[[White Sugar]]'
p54
I51
sS'[[Buttered Popcorn]]'
p55
I2
sS'[[Cream Cake]]'
p56
I9
sS'[[Soybean]]'
p57
I46
sS'[[Apple]]'
p58
I82
sS'[[Blue Woolly Hat]]'
p59
I76
sS'[[Goat Milk]]'
p60
I6
sS'[[Hamburger]]'
p61
I52
sS'[[Cherry Jam]]'
p62
I84
sS"[[Shepherd's Pie]]"
p63
I10
sS'[[Brown Sugar]]'
p64
I50
sS'[[Butter]]'
p65
I19
sS'[[Bacon Pie]]'
p66
I58
sS'[[Strawberry]]'
p67
I60
sS'[[Pumpkin Pie]]'
p68
I1
sS'[[Corn]]'
p69
I15
sS'[[Fish Fillet]]'
p70
I21
sS'[[Chili Popcorn]]'
p71
I8
sS'[[Bacon]]'
p72
I48
sS'[[Cotton Fabric]]'
p73
I74
sS'[[Blue Sweater]]'
p74
I26
sS'[[Potato Feta Cake]]'
p75
I53
sS'[[Sugarcane]]'
p76
I24
sS'[[Cookie]]'
p77
I71
sS'[[Apple Juice]]'
p78
I17
sS'[[Pig Feed]]'
p79
I57
sS'[[Cotton]]'
p80
I56
sS'[[Feta Pie]]'
p81
I5
sS'[[Cheese]]'
p82
I75
sS'[[Chocolate Ice Cream]]'
p83
I85
sS'[[Chicken Feed]]'
p84
I44
sS'[[Corn Bread]]'
p85
I43
sS'[[Wool]]'
p86
I3
sS'[[Roasted Tomatoes]]'
p87
I73
sS'[[Berry Juice]]'
p88
I77
sS'[[Sweater]]'
p89
I0
sS'[[Blackberry Muffin]]'
p90
I27
sS'[[Cow Feed]]'
p91
I61
s.(dp0
S'[[Pumpkin Pie]]'
p1
I2
sS'[[Roasted Tomatoes]]'
p2
I5
sS'[[Egg]]'
p3
I5
sS'[[Carrot Cake]]'
p4
I1
sS'[[Feta Pie]]'
p5
I2
sS'[[Bacon and Eggs]]'
p6
I3
sS'[[Hamburger]]'
p7
I3
sS'[[White Sugar]]'
p8
I0
sS'[[Chocolate Ice Cream]]'
p9
I5
sS'[[Cotton Fabric]]'
p10
I3
sS'[[Syrup]]'
p11
I2
sS'[[Violet Dress]]'
p12
I4
s.