(dp0
S'[[Pumpkin]]'
p1
I52
sS'[[Blackberry Jam]]'
p2
I7
sS'[[Violet Dress]]'
p3
I16
sS'[[Strawberry Ice Cream]]'
p4
I48
sS'[[Raspberry Muffin]]'
p5
I4
sS'[[Apple Pie]]'
p6
I19
sS'[[Tomato Juice]]'
p7
I21
sS'[[Carrot Cake]]'
p8
I80
sS'[[Vanilla Ice Cream]]'
p9
I88
sS'[[Lure]]'
p10
I1
sS'[[Carrot Pie]]'
p11
I29
sS'[[Tomato]]'
p12
I47
sS'[[Cherry Juice]]'
p13
I27
sS'[[Cheesecake]]'
p14
I41
sS'[[Fish Pie]]'
p15
I40
sS'[[Pancake]]'
p16
I72
sS'[[Popcorn]]'
p17
I9
sS'[[Goat Cheese]]'
p18
I26
sS'[[Potato Bread]]'
p19
I24
sS'[[Goat Feed]]'
p20
I78
sS'[[Red Berry Cake]]'
p21
I70
sS'[[Pizza]]'
p22
I30
sS'[[Syrup]]'
p23
I67
sS'[[Sheep Feed]]'
p24
I73
sS'[[Cherry Popsicle]]'
p25
I71
sS'[[Bacon and Eggs]]'
p26
I75
sS'[[Carrot Juice]]'
p27
I49
sS'[[Baked Potato]]'
p28
I57
sS'[[Milk]]'
p29
I39
sS'[[Apple Jam]]'
p30
I44
sS'[[Carrot]]'
p31
I59
sS'[[Blackberry]]'
p32
I35
sS'[[Cotton Shirt]]'
p33
I61
sS'[[Cream]]'
p34
I10
sS'[[Raspberry Jam]]'
p35
I14
sS'[[Cherry]]'
p36
I25
sS'[[Bread]]'
p37
I74
sS'[[Wheat]]'
p38
I62
sS'[[Casserole]]'
p39
I66
sS'[[Chili Pepper]]'
p40
I69
sS'[[Honey Popcorn]]'
p41
I60
sS'[[Honeycomb]]'
p42
I56
sS'[[Indigo]]'
p43
I83
sS'[[Raspberry]]'
p44
I90
sS'[[Chocolate Cake]]'
p45
I5
sS'[[Spicy Pizza]]'
p46
I18
sS'[[Cacao]]'
p47
I37
sS'[[Woolly Chaps]]'
p48
I15
sS'[[Honey]]'
p49
I64
sS'[[Egg]]'
p50
I54
sS'[[Strawberry Cake]]'
p51
I63
sS'[[Potato]]'
p52
I34
sS'[[Fish Burger]]'
p53
I86
sS'[[White Sugar]]'
p54
I6
sS'[[Buttered Popcorn]]'
p55
I55
sS'[[Cream Cake]]'
p56
I38
sS'[[Soybean]]'
p57
I45
sS'[[Apple]]'
p58
I53
sS'[[Blue Woolly Hat]]'
p59
I8
sS'[[Goat Milk]]'
p60
I51
sS'[[Hamburger]]'
p61
I65
sS'[[Cherry Jam]]'
p62
I89
sS"[[Shepherd's Pie]]"
p63
I3
sS'[[Brown Sugar]]'
p64
I84
sS'[[Butter]]'
p65
I33
sS'[[Bacon Pie]]'
p66
I13
sS'[[Strawberry]]'
p67
I11
sS'[[Pumpkin Pie]]'
p68
I50
sS'[[Corn]]'
p69
I81
sS'[[Fish Fillet]]'
p70
I2
sS'[[Chili Popcorn]]'
p71
I17
sS'[[Sugarcane]]'
p72
I22
sS'[[Cotton Fabric]]'
p73
I85
sS'[[Blue Sweater]]'
p74
I20
sS'[[Potato Feta Cake]]'
p75
I31
sS'[[Cookie]]'
p76
I28
sS'[[Apple Juice]]'
p77
I36
sS'[[Pig Feed]]'
p78
I42
sS'[[Cotton]]'
p79
I77
sS'[[Feta Pie]]'
p80
I76
sS'[[Cheese]]'
p81
I58
sS'[[Chocolate Ice Cream]]'
p82
I68
sS'[[Bacon]]'
p83
I43
sS'[[Chicken Feed]]'
p84
I82
sS'[[Corn Bread]]'
p85
I12
sS'[[Wool]]'
p86
I87
sS'[[Roasted Tomatoes]]'
p87
I23
sS'[[Berry Juice]]'
p88
I46
sS'[[Sweater]]'
p89
I79
sS'[[Blackberry Muffin]]'
p90
I0
sS'[[Cow Feed]]'
p91
I32
s.(dp0
S'[[Blue Sweater]]'
p1
I3
sS'[[Corn]]'
p2
I0
sS'[[Lure]]'
p3
I0
sS'[[Cherry Popsicle]]'
p4
I5
sS'[[Blue Woolly Hat]]'
p5
I5
sS'[[Honey Popcorn]]'
p6
I4
sS'[[Indigo]]'
p7
I3
sS'[[Goat Cheese]]'
p8
I4
sS'[[Buttered Popcorn]]'
p9
I4
sS'[[Chocolate Cake]]'
p10
I0
sS'[[Bacon Pie]]'
p11
I2
s.