(dp0
S'[[Pumpkin]]'
p1
I76
sS'[[Blackberry Jam]]'
p2
I87
sS'[[Violet Dress]]'
p3
I3
sS'[[Strawberry Ice Cream]]'
p4
I64
sS'[[Raspberry Muffin]]'
p5
I73
sS'[[Apple Pie]]'
p6
I18
sS'[[Tomato Juice]]'
p7
I86
sS'[[Carrot Cake]]'
p8
I48
sS'[[Vanilla Ice Cream]]'
p9
I19
sS'[[Lure]]'
p10
I17
sS'[[Carrot Pie]]'
p11
I88
sS'[[Tomato]]'
p12
I81
sS'[[Cherry Juice]]'
p13
I85
sS'[[Cheesecake]]'
p14
I40
sS'[[Fish Pie]]'
p15
I9
sS'[[Pancake]]'
p16
I57
sS'[[Popcorn]]'
p17
I71
sS'[[Goat Cheese]]'
p18
I50
sS'[[Potato Bread]]'
p19
I44
sS'[[Goat Feed]]'
p20
I67
sS'[[Red Berry Cake]]'
p21
I62
sS'[[Pizza]]'
p22
I43
sS'[[Syrup]]'
p23
I23
sS'[[Sheep Feed]]'
p24
I45
sS'[[Cherry Popsicle]]'
p25
I32
sS'[[Bacon and Eggs]]'
p26
I84
sS'[[Carrot Juice]]'
p27
I89
sS'[[Baked Potato]]'
p28
I75
sS'[[Milk]]'
p29
I2
sS'[[Apple Jam]]'
p30
I8
sS'[[Carrot]]'
p31
I28
sS'[[Blackberry]]'
p32
I11
sS'[[Cotton Shirt]]'
p33
I36
sS'[[Cream]]'
p34
I6
sS'[[Raspberry Jam]]'
p35
I25
sS'[[Cherry]]'
p36
I34
sS'[[Bread]]'
p37
I37
sS'[[Wheat]]'
p38
I68
sS'[[Casserole]]'
p39
I72
sS'[[Chili Pepper]]'
p40
I74
sS'[[Honey Popcorn]]'
p41
I1
sS'[[Honeycomb]]'
p42
I26
sS'[[Indigo]]'
p43
I46
sS'[[Raspberry]]'
p44
I4
sS'[[Chocolate Cake]]'
p45
I14
sS'[[Spicy Pizza]]'
p46
I41
sS'[[Cacao]]'
p47
I22
sS'[[Woolly Chaps]]'
p48
I53
sS'[[Honey]]'
p49
I90
sS'[[Egg]]'
p50
I20
sS'[[Strawberry Cake]]'
p51
I65
sS'[[Potato]]'
p52
I69
sS'[[Fish Burger]]'
p53
I12
sS'[[White Sugar]]'
p54
I47
sS'[[Buttered Popcorn]]'
p55
I79
sS'[[Cream Cake]]'
p56
I39
sS'[[Soybean]]'
p57
I78
sS'[[Apple]]'
p58
I31
sS'[[Blue Woolly Hat]]'
p59
I59
sS'[[Goat Milk]]'
p60
I83
sS'[[Hamburger]]'
p61
I49
sS'[[Cherry Jam]]'
p62
I52
sS"[[Shepherd's Pie]]"
p63
I80
sS'[[Brown Sugar]]'
p64
I13
sS'[[Butter]]'
p65
I27
sS'[[Bacon Pie]]'
p66
I58
sS'[[Strawberry]]'
p67
I7
sS'[[Pumpkin Pie]]'
p68
I35
sS'[[Corn]]'
p69
I77
sS'[[Fish Fillet]]'
p70
I55
sS'[[Chili Popcorn]]'
p71
I82
sS'[[Bacon]]'
p72
I21
sS'[[Cotton Fabric]]'
p73
I60
sS'[[Blue Sweater]]'
p74
I61
sS'[[Potato Feta Cake]]'
p75
I15
sS'[[Sugarcane]]'
p76
I70
sS'[[Cookie]]'
p77
I0
sS'[[Apple Juice]]'
p78
I54
sS'[[Pig Feed]]'
p79
I5
sS'[[Cotton]]'
p80
I33
sS'[[Feta Pie]]'
p81
I16
sS'[[Cheese]]'
p82
I10
sS'[[Chocolate Ice Cream]]'
p83
I51
sS'[[Chicken Feed]]'
p84
I56
sS'[[Corn Bread]]'
p85
I30
sS'[[Wool]]'
p86
I24
sS'[[Roasted Tomatoes]]'
p87
I63
sS'[[Berry Juice]]'
p88
I38
sS'[[Sweater]]'
p89
I42
sS'[[Blackberry Muffin]]'
p90
I29
sS'[[Cow Feed]]'
p91
I66
s.(dp0
S'[[Wheat]]'
p1
I2
sS'[[Apple]]'
p2
I2
sS'[[Popcorn]]'
p3
I3
sS'[[Cheesecake]]'
p4
I2
sS'[[Strawberry Cake]]'
p5
I1
sS'[[Potato]]'
p6
I4
sS'[[Fish Pie]]'
p7
I0
sS'[[Cotton Shirt]]'
p8
I5
sS'[[Spicy Pizza]]'
p9
I5
sS'[[Bacon]]'
p10
I1
sS'[[Milk]]'
p11
I2
sS'[[Chocolate Ice Cream]]'
p12
I3
sS'[[Bacon Pie]]'
p13
I4
s.