(dp0
S'[[Pumpkin]]'
p1
I29
sS'[[Blackberry Jam]]'
p2
I15
sS'[[Violet Dress]]'
p3
I54
sS'[[Strawberry Ice Cream]]'
p4
I90
sS'[[Raspberry Muffin]]'
p5
I4
sS'[[Apple Pie]]'
p6
I28
sS'[[Tomato Juice]]'
p7
I89
sS'[[Blue Sweater]]'
p8
I1
sS'[[Honey]]'
p9
I50
sS'[[Vanilla Ice Cream]]'
p10
I35
sS'[[Lure]]'
p11
I74
sS'[[Carrot Pie]]'
p12
I73
sS'[[Tomato]]'
p13
I31
sS'[[Potato]]'
p14
I37
sS'[[Cheesecake]]'
p15
I59
sS'[[Fish Pie]]'
p16
I39
sS'[[Pancake]]'
p17
I64
sS'[[Popcorn]]'
p18
I86
sS'[[Goat Cheese]]'
p19
I67
sS'[[Potato Bread]]'
p20
I78
sS'[[Goat Feed]]'
p21
I56
sS'[[Red Berry Cake]]'
p22
I55
sS'[[Pizza]]'
p23
I79
sS'[[Syrup]]'
p24
I65
sS'[[Sheep Feed]]'
p25
I51
sS'[[Cherry Popsicle]]'
p26
I12
sS'[[Bacon and Eggs]]'
p27
I7
sS'[[Carrot]]'
p28
I45
sS'[[Carrot Juice]]'
p29
I48
sS'[[Baked Potato]]'
p30
I75
sS'[[Milk]]'
p31
I38
sS'[[Apple Jam]]'
p32
I20
sS'[[Apple]]'
p33
I84
sS'[[Blackberry]]'
p34
I87
sS'[[Cotton Shirt]]'
p35
I70
sS'[[Cream]]'
p36
I17
sS'[[Raspberry Jam]]'
p37
I22
sS'[[Cherry]]'
p38
I49
sS'[[Bread]]'
p39
I25
sS'[[Wheat]]'
p40
I85
sS'[[Casserole]]'
p41
I62
sS'[[Strawberry]]'
p42
I5
sS'[[Honey Popcorn]]'
p43
I71
sS'[[Honeycomb]]'
p44
I53
sS'[[Indigo]]'
p45
I9
sS'[[Raspberry]]'
p46
I83
sS'[[Chocolate Cake]]'
p47
I60
sS'[[Spicy Pizza]]'
p48
I41
sS'[[Cacao]]'
p49
I16
sS'[[Woolly Chaps]]'
p50
I0
sS'[[Carrot Cake]]'
p51
I32
sS'[[Egg]]'
p52
I43
sS'[[Strawberry Cake]]'
p53
I44
sS'[[Cherry Juice]]'
p54
I14
sS'[[Fish Burger]]'
p55
I82
sS'[[White Sugar]]'
p56
I11
sS'[[Buttered Popcorn]]'
p57
I3
sS'[[Cream Cake]]'
p58
I36
sS'[[Soybean]]'
p59
I80
sS'[[Brown Sugar]]'
p60
I77
sS'[[Blue Woolly Hat]]'
p61
I72
sS'[[Goat Milk]]'
p62
I46
sS'[[Hamburger]]'
p63
I34
sS'[[Cherry Jam]]'
p64
I76
sS"[[Shepherd's Pie]]"
p65
I61
sS'[[Butter]]'
p66
I23
sS'[[Bacon Pie]]'
p67
I30
sS'[[Chili Pepper]]'
p68
I42
sS'[[Corn]]'
p69
I6
sS'[[Fish Fillet]]'
p70
I8
sS'[[Chili Popcorn]]'
p71
I52
sS'[[Bacon]]'
p72
I19
sS'[[Cotton Fabric]]'
p73
I68
sS'[[Pumpkin Pie]]'
p74
I21
sS'[[Potato Feta Cake]]'
p75
I63
sS'[[Sugarcane]]'
p76
I13
sS'[[Cookie]]'
p77
I24
sS'[[Apple Juice]]'
p78
I33
sS'[[Pig Feed]]'
p79
I57
sS'[[Cotton]]'
p80
I81
sS'[[Feta Pie]]'
p81
I27
sS'[[Cheese]]'
p82
I26
sS'[[Chocolate Ice Cream]]'
p83
I69
sS'[[Chicken Feed]]'
p84
I47
sS'[[Corn Bread]]'
p85
I18
sS'[[Wool]]'
p86
I66
sS'[[Roasted Tomatoes]]'
p87
I88
sS'[[Berry Juice]]'
p88
I58
sS'[[Sweater]]'
p89
I10
sS'[[Blackberry Muffin]]'
p90
I40
sS'[[Cow Feed]]'
p91
I2
s.(dp0
S'[[Wheat]]'
p1
I2
sS'[[Brown Sugar]]'
p2
I5
sS'[[Casserole]]'
p3
I5
sS'[[Honey]]'
p4
I2
sS'[[Feta Pie]]'
p5
I2
sS'[[Potato Feta Cake]]'
p6
I4
sS'[[Fish Pie]]'
p7
I0
sS'[[Carrot Cake]]'
p8
I3
sS'[[Pig Feed]]'
p9
I1
sS'[[Lure]]'
p10
I2
sS'[[Raspberry Jam]]'
p11
I0
sS'[[Pizza]]'
p12
I3
sS'[[Goat Feed]]'
p13
I4
s.