(dp0
S'[[Pumpkin]]'
p1
I53
sS'[[Blackberry Jam]]'
p2
I41
sS'[[Violet Dress]]'
p3
I68
sS'[[Strawberry Ice Cream]]'
p4
I39
sS'[[Raspberry Muffin]]'
p5
I85
sS'[[Apple Pie]]'
p6
I35
sS'[[Tomato Juice]]'
p7
I57
sS'[[Carrot Cake]]'
p8
I21
sS'[[Vanilla Ice Cream]]'
p9
I11
sS'[[Lure]]'
p10
I48
sS'[[Carrot Pie]]'
p11
I49
sS'[[Tomato]]'
p12
I59
sS'[[Cherry Juice]]'
p13
I2
sS'[[Cheesecake]]'
p14
I69
sS'[[Fish Pie]]'
p15
I25
sS'[[Pancake]]'
p16
I74
sS'[[Popcorn]]'
p17
I55
sS'[[Goat Cheese]]'
p18
I62
sS'[[Potato Bread]]'
p19
I14
sS'[[Goat Feed]]'
p20
I52
sS'[[Red Berry Cake]]'
p21
I30
sS'[[Pizza]]'
p22
I13
sS'[[Syrup]]'
p23
I90
sS'[[Sheep Feed]]'
p24
I87
sS'[[Cherry Popsicle]]'
p25
I23
sS'[[Bacon and Eggs]]'
p26
I45
sS'[[Carrot Juice]]'
p27
I82
sS'[[Baked Potato]]'
p28
I9
sS'[[Milk]]'
p29
I86
sS'[[Apple Jam]]'
p30
I65
sS'[[Carrot]]'
p31
I6
sS'[[Blackberry]]'
p32
I26
sS'[[Cotton Shirt]]'
p33
I67
sS'[[Cream]]'
p34
I42
sS'[[Raspberry Jam]]'
p35
I29
sS'[[Cherry]]'
p36
I34
sS'[[Bread]]'
p37
I36
sS'[[Wheat]]'
p38
I61
sS'[[Casserole]]'
p39
I4
sS'[[Chili Pepper]]'
p40
I33
sS'[[Honey Popcorn]]'
p41
I76
sS'[[Honeycomb]]'
p42
I18
sS'[[Indigo]]'
p43
I56
sS'[[Raspberry]]'
p44
I77
sS'[[Chocolate Cake]]'
p45
I79
sS'[[Spicy Pizza]]'
p46
I19
sS'[[Cacao]]'
p47
I60
sS'[[Woolly Chaps]]'
p48
I44
sS'[[Honey]]'
p49
I51
sS'[[Egg]]'
p50
I58
sS'[[Strawberry Cake]]'
p51
I73
sS'[[Potato]]'
p52
I88
sS'[[Fish Burger]]'
p53
I22
sS'[[White Sugar]]'
p54
I75
sS'[[Buttered Popcorn]]'
p55
I0
sS'[[Cream Cake]]'
p56
I37
sS'[[Soybean]]'
p57
I8
sS'[[Apple]]'
p58
I38
sS'[[Blue Woolly Hat]]'
p59
I83
sS'[[Goat Milk]]'
p60
I50
sS'[[Hamburger]]'
p61
I72
sS'[[Cherry Jam]]'
p62
I84
sS"[[Shepherd's Pie]]"
p63
I1
sS'[[Brown Sugar]]'
p64
I20
sS'[[Butter]]'
p65
I43
sS'[[Bacon Pie]]'
p66
I80
sS'[[Strawberry]]'
p67
I66
sS'[[Pumpkin Pie]]'
p68
I28
sS'[[Corn]]'
p69
I7
sS'[[Fish Fillet]]'
p70
I24
sS'[[Chili Popcorn]]'
p71
I63
sS'[[Sugarcane]]'
p72
I17
sS'[[Cotton Fabric]]'
p73
I47
sS'[[Blue Sweater]]'
p74
I54
sS'[[Potato Feta Cake]]'
p75
I5
sS'[[Cookie]]'
p76
I10
sS'[[Apple Juice]]'
p77
I27
sS'[[Pig Feed]]'
p78
I40
sS'[[Cotton]]'
p79
I71
sS'[[Feta Pie]]'
p80
I15
sS'[[Cheese]]'
p81
I64
sS'[[Chocolate Ice Cream]]'
p82
I12
sS'[[Bacon]]'
p83
I78
sS'[[Chicken Feed]]'
p84
I32
sS'[[Corn Bread]]'
p85
I3
sS'[[Wool]]'
p86
I46
sS'[[Roasted Tomatoes]]'
p87
I89
sS'[[Berry Juice]]'
p88
I81
sS'[[Sweater]]'
p89
I16
sS'[[Blackberry Muffin]]'
p90
I70
sS'[[Cow Feed]]'
p91
I31
s.(dp0
S'[[Tomato]]'
p1
I0
sS'[[Cherry Juice]]'
p2
I4
sS'[[Chili Pepper]]'
p3
I1
sS'[[Honey Popcorn]]'
p4
I4
sS'[[Hamburger]]'
p5
I0
sS'[[Chili Popcorn]]'
p6
I4
sS'[[Cotton Shirt]]'
p7
I5
sS'[[Pancake]]'
p8
I0
sS'[[Vanilla Ice Cream]]'
p9
I1
sS'[[Violet Dress]]'
p10
I3
sS'[[Raspberry Muffin]]'
p11
I4
s.