(dp0
S'[[Pumpkin]]'
p1
I73
sS'[[Blackberry Jam]]'
p2
I50
sS'[[Violet Dress]]'
p3
I27
sS'[[Strawberry Ice Cream]]'
p4
I63
sS'[[Raspberry Muffin]]'
p5
I51
sS'[[Apple Pie]]'
p6
I25
sS'[[Tomato Juice]]'
p7
I9
sS'[[Carrot Cake]]'
p8
I57
sS'[[Vanilla Ice Cream]]'
p9
I23
sS'[[Lure]]'
p10
I60
sS'[[Carrot Pie]]'
p11
I56
sS'[[Tomato]]'
p12
I0
sS'[[Cherry Juice]]'
p13
I64
sS'[[Cheesecake]]'
p14
I39
sS'[[Fish Pie]]'
p15
I84
sS'[[Pancake]]'
p16
I65
sS'[[Popcorn]]'
p17
I4
sS'[[Goat Cheese]]'
p18
I26
sS'[[Potato Bread]]'
p19
I36
sS'[[Goat Feed]]'
p20
I48
sS'[[Red Berry Cake]]'
p21
I6
sS'[[Pizza]]'
p22
I76
sS'[[Syrup]]'
p23
I21
sS'[[Sheep Feed]]'
p24
I13
sS'[[Cherry Popsicle]]'
p25
I58
sS'[[Bacon and Eggs]]'
p26
I71
sS'[[Carrot Juice]]'
p27
I85
sS'[[Baked Potato]]'
p28
I78
sS'[[Milk]]'
p29
I67
sS'[[Apple Jam]]'
p30
I46
sS'[[Carrot]]'
p31
I55
sS'[[Blackberry]]'
p32
I68
sS'[[Cotton Shirt]]'
p33
I18
sS'[[Cream]]'
p34
I53
sS'[[Raspberry Jam]]'
p35
I90
sS'[[Cherry]]'
p36
I45
sS'[[Bread]]'
p37
I7
sS'[[Wheat]]'
p38
I75
sS'[[Casserole]]'
p39
I38
sS'[[Chili Pepper]]'
p40
I74
sS'[[Honey Popcorn]]'
p41
I8
sS'[[Honeycomb]]'
p42
I15
sS'[[Indigo]]'
p43
I49
sS'[[Raspberry]]'
p44
I12
sS'[[Chocolate Cake]]'
p45
I44
sS'[[Spicy Pizza]]'
p46
I11
sS'[[Cacao]]'
p47
I83
sS'[[Woolly Chaps]]'
p48
I37
sS'[[Honey]]'
p49
I2
sS'[[Egg]]'
p50
I41
sS'[[Strawberry Cake]]'
p51
I42
sS'[[Potato]]'
p52
I77
sS'[[Fish Burger]]'
p53
I24
sS'[[White Sugar]]'
p54
I61
sS'[[Buttered Popcorn]]'
p55
I29
sS'[[Cream Cake]]'
p56
I62
sS'[[Soybean]]'
p57
I72
sS'[[Apple]]'
p58
I59
sS'[[Blue Woolly Hat]]'
p59
I28
sS'[[Goat Milk]]'
p60
I31
sS'[[Hamburger]]'
p61
I16
sS'[[Cherry Jam]]'
p62
I5
sS"[[Shepherd's Pie]]"
p63
I81
sS'[[Brown Sugar]]'
p64
I33
sS'[[Butter]]'
p65
I87
sS'[[Bacon Pie]]'
p66
I17
sS'[[Strawberry]]'
p67
I43
sS'[[Pumpkin Pie]]'
p68
I34
sS'[[Corn]]'
p69
I54
sS'[[Fish Fillet]]'
p70
I89
sS'[[Chili Popcorn]]'
p71
I35
sS'[[Bacon]]'
p72
I82
sS'[[Cotton Fabric]]'
p73
I1
sS'[[Blue Sweater]]'
p74
I52
sS'[[Potato Feta Cake]]'
p75
I66
sS'[[Sugarcane]]'
p76
I20
sS'[[Cookie]]'
p77
I32
sS'[[Apple Juice]]'
p78
I79
sS'[[Pig Feed]]'
p79
I86
sS'[[Cotton]]'
p80
I22
sS'[[Feta Pie]]'
p81
I30
sS'[[Cheese]]'
p82
I70
sS'[[Chocolate Ice Cream]]'
p83
I69
sS'[[Chicken Feed]]'
p84
I40
sS'[[Corn Bread]]'
p85
I88
sS'[[Wool]]'
p86
I19
sS'[[Roasted Tomatoes]]'
p87
I14
sS'[[Berry Juice]]'
p88
I80
sS'[[Sweater]]'
p89
I10
sS'[[Blackberry Muffin]]'
p90
I3
sS'[[Cow Feed]]'
p91
I47
s.(dp0
S'[[Casserole]]'
p1
I4
sS'[[Potato Bread]]'
p2
I2
sS'[[Popcorn]]'
p3
I0
sS'[[Strawberry Cake]]'
p4
I1
sS'[[Cotton Shirt]]'
p5
I5
sS'[[Baked Potato]]'
p6
I1
sS'[[Spicy Pizza]]'
p7
I5
sS'[[Sugarcane]]'
p8
I0
sS'[[Cherry]]'
p9
I1
sS'[[Bacon Pie]]'
p10
I4
sS'[[Chicken Feed]]'
p11
I5
sS'[[Corn Bread]]'
p12
I0
s.