(dp0
S'[[Pumpkin]]'
p1
I73
sS'[[Blackberry Jam]]'
p2
I84
sS'[[Violet Dress]]'
p3
I2
sS'[[Strawberry Ice Cream]]'
p4
I76
sS'[[Raspberry Muffin]]'
p5
I47
sS'[[Apple Pie]]'
p6
I55
sS'[[Tomato Juice]]'
p7
I13
sS'[[Blue Sweater]]'
p8
I88
sS'[[Honey]]'
p9
I22
sS'[[Vanilla Ice Cream]]'
p10
I53
sS'[[Lure]]'
p11
I68
sS'[[Carrot Pie]]'
p12
I80
sS'[[Tomato]]'
p13
I83
sS'[[Potato]]'
p14
I77
sS'[[Cheesecake]]'
p15
I67
sS'[[Fish Pie]]'
p16
I48
sS'[[Pancake]]'
p17
I38
sS'[[Popcorn]]'
p18
I60
sS'[[Goat Cheese]]'
p19
I71
sS'[[Potato Bread]]'
p20
I31
sS'[[Goat Feed]]'
p21
I62
sS'[[Red Berry Cake]]'
p22
I28
sS'[[Pizza]]'
p23
I33
sS'[[Syrup]]'
p24
I35
sS'[[Sheep Feed]]'
p25
I45
sS'[[Cherry Popsicle]]'
p26
I57
sS'[[Bacon and Eggs]]'
p27
I5
sS'[[Carrot]]'
p28
I7
sS'[[Carrot Juice]]'
p29
I21
sS'[[Baked Potato]]'
p30
I19
sS'[[Milk]]'
p31
I44
sS'[[Apple Jam]]'
p32
I51
sS'[[Apple]]'
p33
I16
sS'[[Blackberry]]'
p34
I20
sS'[[Cotton Shirt]]'
p35
I78
sS'[[Cream]]'
p36
I69
sS'[[Raspberry Jam]]'
p37
I42
sS'[[Cherry]]'
p38
I66
sS'[[Bread]]'
p39
I12
sS'[[Wheat]]'
p40
I82
sS'[[Casserole]]'
p41
I6
sS'[[Strawberry]]'
p42
I63
sS'[[Honey Popcorn]]'
p43
I49
sS'[[Honeycomb]]'
p44
I50
sS'[[Indigo]]'
p45
I89
sS'[[Raspberry]]'
p46
I24
sS'[[Chocolate Cake]]'
p47
I40
sS'[[Spicy Pizza]]'
p48
I79
sS'[[Cacao]]'
p49
I72
sS'[[Woolly Chaps]]'
p50
I87
sS'[[Carrot Cake]]'
p51
I15
sS'[[Egg]]'
p52
I32
sS'[[Strawberry Cake]]'
p53
I36
sS'[[Cherry Juice]]'
p54
I85
sS'[[Fish Burger]]'
p55
I8
sS'[[White Sugar]]'
p56
I23
sS'[[Buttered Popcorn]]'
p57
I3
sS'[[Cream Cake]]'
p58
I90
sS'[[Soybean]]'
p59
I81
sS'[[Brown Sugar]]'
p60
I65
sS'[[Blue Woolly Hat]]'
p61
I39
sS'[[Goat Milk]]'
p62
I56
sS'[[Hamburger]]'
p63
I64
sS'[[Cherry Jam]]'
p64
I18
sS"[[Shepherd's Pie]]"
p65
I30
sS'[[Butter]]'
p66
I41
sS'[[Bacon Pie]]'
p67
I61
sS'[[Chili Pepper]]'
p68
I27
sS'[[Corn]]'
p69
I52
sS'[[Fish Fillet]]'
p70
I17
sS'[[Chili Popcorn]]'
p71
I4
sS'[[Bacon]]'
p72
I46
sS'[[Cotton Fabric]]'
p73
I43
sS'[[Pumpkin Pie]]'
p74
I9
sS'[[Potato Feta Cake]]'
p75
I14
sS'[[Sugarcane]]'
p76
I34
sS'[[Cookie]]'
p77
I0
sS'[[Apple Juice]]'
p78
I1
sS'[[Pig Feed]]'
p79
I59
sS'[[Cotton]]'
p80
I29
sS'[[Feta Pie]]'
p81
I25
sS'[[Cheese]]'
p82
I58
sS'[[Chocolate Ice Cream]]'
p83
I26
sS'[[Chicken Feed]]'
p84
I37
sS'[[Corn Bread]]'
p85
I11
sS'[[Wool]]'
p86
I54
sS'[[Roasted Tomatoes]]'
p87
I70
sS'[[Berry Juice]]'
p88
I75
sS'[[Sweater]]'
p89
I74
sS'[[Blackberry Muffin]]'
p90
I86
sS'[[Cow Feed]]'
p91
I10
s.(dp0
S'[[Pig Feed]]'
p1
I1
sS'[[Blue Sweater]]'
p2
I2
sS'[[Cheesecake]]'
p3
I2
sS'[[Brown Sugar]]'
p4
I0
sS'[[Blackberry Jam]]'
p5
I3
sS'[[Strawberry Cake]]'
p6
I3
sS'[[Cookie]]'
p7
I2
sS'[[Cotton Shirt]]'
p8
I3
sS'[[Bacon]]'
p9
I3
sS'[[Lure]]'
p10
I1
sS'[[Bacon Pie]]'
p11
I5
sS'[[Apple Juice]]'
p12
I1
sS'[[Bacon and Eggs]]'
p13
I5
s.