(dp0
S'[[Pumpkin]]'
p1
I61
sS'[[Blackberry Jam]]'
p2
I65
sS'[[Violet Dress]]'
p3
I3
sS'[[Strawberry Ice Cream]]'
p4
I72
sS'[[Raspberry Muffin]]'
p5
I15
sS'[[Apple Pie]]'
p6
I51
sS'[[Tomato Juice]]'
p7
I71
sS'[[Carrot Cake]]'
p8
I12
sS'[[Vanilla Ice Cream]]'
p9
I31
sS'[[Lure]]'
p10
I54
sS'[[Carrot Pie]]'
p11
I81
sS'[[Tomato]]'
p12
I42
sS'[[Cherry Juice]]'
p13
I23
sS'[[Cheesecake]]'
p14
I6
sS'[[Fish Pie]]'
p15
I56
sS'[[Pancake]]'
p16
I75
sS'[[Popcorn]]'
p17
I45
sS'[[Goat Cheese]]'
p18
I5
sS'[[Potato Bread]]'
p19
I84
sS'[[Goat Feed]]'
p20
I36
sS'[[Red Berry Cake]]'
p21
I49
sS'[[Pizza]]'
p22
I86
sS'[[Syrup]]'
p23
I11
sS'[[Sheep Feed]]'
p24
I16
sS'[[Cherry Popsicle]]'
p25
I2
sS'[[Bacon and Eggs]]'
p26
I24
sS'[[Carrot Juice]]'
p27
I13
sS'[[Baked Potato]]'
p28
I18
sS'[[Milk]]'
p29
I30
sS'[[Apple Jam]]'
p30
I32
sS'[[Carrot]]'
p31
I82
sS'[[Blackberry]]'
p32
I9
sS'[[Cotton Shirt]]'
p33
I80
sS'[[Cream]]'
p34
I74
sS'[[Raspberry Jam]]'
p35
I26
sS'[[Cherry]]'
p36
I1
sS'[[Bread]]'
p37
I35
sS'[[Wheat]]'
p38
I38
sS'[[Casserole]]'
p39
I62
sS'[[Chili Pepper]]'
p40
I41
sS'[[Honey Popcorn]]'
p41
I47
sS'[[Honeycomb]]'
p42
I63
sS'[[Indigo]]'
p43
I28
sS'[[Raspberry]]'
p44
I79
sS'[[Chocolate Cake]]'
p45
I14
sS'[[Spicy Pizza]]'
p46
I70
sS'[[Cacao]]'
p47
I89
sS'[[Woolly Chaps]]'
p48
I64
sS'[[Honey]]'
p49
I19
sS'[[Egg]]'
p50
I10
sS'[[Strawberry Cake]]'
p51
I4
sS'[[Potato]]'
p52
I39
sS'[[Fish Burger]]'
p53
I22
sS'[[White Sugar]]'
p54
I7
sS'[[Buttered Popcorn]]'
p55
I46
sS'[[Cream Cake]]'
p56
I85
sS'[[Soybean]]'
p57
I44
sS'[[Apple]]'
p58
I25
sS'[[Blue Woolly Hat]]'
p59
I73
sS'[[Goat Milk]]'
p60
I52
sS'[[Hamburger]]'
p61
I60
sS'[[Cherry Jam]]'
p62
I67
sS"[[Shepherd's Pie]]"
p63
I57
sS'[[Brown Sugar]]'
p64
I69
sS'[[Butter]]'
p65
I37
sS'[[Bacon Pie]]'
p66
I34
sS'[[Strawberry]]'
p67
I8
sS'[[Pumpkin Pie]]'
p68
I59
sS'[[Corn]]'
p69
I27
sS'[[Fish Fillet]]'
p70
I17
sS'[[Chili Popcorn]]'
p71
I76
sS'[[Sugarcane]]'
p72
I40
sS'[[Cotton Fabric]]'
p73
I90
sS'[[Blue Sweater]]'
p74
I88
sS'[[Potato Feta Cake]]'
p75
I20
sS'[[Cookie]]'
p76
I53
sS'[[Apple Juice]]'
p77
I87
sS'[[Pig Feed]]'
p78
I68
sS'[[Cotton]]'
p79
I29
sS'[[Feta Pie]]'
p80
I58
sS'[[Cheese]]'
p81
I21
sS'[[Chocolate Ice Cream]]'
p82
I48
sS'[[Bacon]]'
p83
I33
sS'[[Chicken Feed]]'
p84
I0
sS'[[Corn Bread]]'
p85
I43
sS'[[Wool]]'
p86
I77
sS'[[Roasted Tomatoes]]'
p87
I78
sS'[[Berry Juice]]'
p88
I66
sS'[[Sweater]]'
p89
I83
sS'[[Blackberry Muffin]]'
p90
I50
sS'[[Cow Feed]]'
p91
I55
s.(dp0
S'[[Wheat]]'
p1
I0
sS'[[Casserole]]'
p2
I3
sS'[[Strawberry Ice Cream]]'
p3
I4
sS'[[Cacao]]'
p4
I5
sS'[[Carrot Pie]]'
p5
I1
sS'[[Hamburger]]'
p6
I5
sS'[[Cotton Shirt]]'
p7
I3
sS'[[Cream]]'
p8
I2
sS'[[Buttered Popcorn]]'
p9
I5
sS'[[Blackberry]]'
p10
I1
sS'[[Cream Cake]]'
p11
I4
sS'[[Potato Bread]]'
p12
I3
s.