(dp0
S'[[Pumpkin]]'
p1
I68
sS'[[Blackberry Jam]]'
p2
I31
sS'[[Violet Dress]]'
p3
I30
sS'[[Strawberry Ice Cream]]'
p4
I16
sS'[[Raspberry Muffin]]'
p5
I17
sS'[[Apple Pie]]'
p6
I59
sS'[[Tomato Juice]]'
p7
I45
sS'[[Blue Sweater]]'
p8
I83
sS'[[Honey]]'
p9
I8
sS'[[Vanilla Ice Cream]]'
p10
I89
sS'[[Lure]]'
p11
I86
sS'[[Carrot Pie]]'
p12
I46
sS'[[Tomato]]'
p13
I80
sS'[[Potato]]'
p14
I4
sS'[[Cheesecake]]'
p15
I38
sS'[[Fish Pie]]'
p16
I19
sS'[[Pancake]]'
p17
I72
sS'[[Popcorn]]'
p18
I12
sS'[[Goat Cheese]]'
p19
I61
sS'[[Potato Bread]]'
p20
I57
sS'[[Goat Feed]]'
p21
I76
sS'[[Red Berry Cake]]'
p22
I55
sS'[[Pizza]]'
p23
I36
sS'[[Syrup]]'
p24
I39
sS'[[Sheep Feed]]'
p25
I23
sS'[[Cherry Popsicle]]'
p26
I25
sS'[[Bacon and Eggs]]'
p27
I75
sS'[[Carrot]]'
p28
I77
sS'[[Carrot Juice]]'
p29
I84
sS'[[Baked Potato]]'
p30
I32
sS'[[Milk]]'
p31
I41
sS'[[Apple Jam]]'
p32
I63
sS'[[Apple]]'
p33
I10
sS'[[Blackberry]]'
p34
I14
sS'[[Cotton Shirt]]'
p35
I33
sS'[[Cream]]'
p36
I70
sS'[[Raspberry Jam]]'
p37
I87
sS'[[Cherry]]'
p38
I29
sS'[[Bread]]'
p39
I79
sS'[[Wheat]]'
p40
I51
sS'[[Casserole]]'
p41
I6
sS'[[Strawberry]]'
p42
I18
sS'[[Honey Popcorn]]'
p43
I66
sS'[[Honeycomb]]'
p44
I74
sS'[[Indigo]]'
p45
I43
sS'[[Raspberry]]'
p46
I2
sS'[[Chocolate Cake]]'
p47
I90
sS'[[Spicy Pizza]]'
p48
I1
sS'[[Cacao]]'
p49
I3
sS'[[Woolly Chaps]]'
p50
I13
sS'[[Carrot Cake]]'
p51
I34
sS'[[Egg]]'
p52
I0
sS'[[Strawberry Cake]]'
p53
I58
sS'[[Cherry Juice]]'
p54
I82
sS'[[Fish Burger]]'
p55
I42
sS'[[White Sugar]]'
p56
I7
sS'[[Buttered Popcorn]]'
p57
I81
sS'[[Cream Cake]]'
p58
I56
sS'[[Soybean]]'
p59
I49
sS'[[Brown Sugar]]'
p60
I53
sS'[[Blue Woolly Hat]]'
p61
I88
sS'[[Goat Milk]]'
p62
I11
sS'[[Hamburger]]'
p63
I65
sS'[[Cherry Jam]]'
p64
I27
sS"[[Shepherd's Pie]]"
p65
I48
sS'[[Butter]]'
p66
I50
sS'[[Bacon Pie]]'
p67
I22
sS'[[Chili Pepper]]'
p68
I20
sS'[[Corn]]'
p69
I35
sS'[[Fish Fillet]]'
p70
I37
sS'[[Chili Popcorn]]'
p71
I26
sS'[[Bacon]]'
p72
I47
sS'[[Cotton Fabric]]'
p73
I73
sS'[[Pumpkin Pie]]'
p74
I44
sS'[[Potato Feta Cake]]'
p75
I24
sS'[[Sugarcane]]'
p76
I15
sS'[[Cookie]]'
p77
I52
sS'[[Apple Juice]]'
p78
I9
sS'[[Pig Feed]]'
p79
I64
sS'[[Cotton]]'
p80
I28
sS'[[Feta Pie]]'
p81
I60
sS'[[Cheese]]'
p82
I71
sS'[[Chocolate Ice Cream]]'
p83
I54
sS'[[Chicken Feed]]'
p84
I69
sS'[[Corn Bread]]'
p85
I67
sS'[[Wool]]'
p86
I40
sS'[[Roasted Tomatoes]]'
p87
I21
sS'[[Berry Juice]]'
p88
I85
sS'[[Sweater]]'
p89
I5
sS'[[Blackberry Muffin]]'
p90
I62
sS'[[Cow Feed]]'
p91
I78
s.(dp0
S'[[Blue Sweater]]'
p1
I2
sS'[[Casserole]]'
p2
I1
sS'[[Potato Bread]]'
p3
I2
sS'[[Strawberry]]'
p4
I3
sS'[[Roasted Tomatoes]]'
p5
I1
sS'[[Cherry Popsicle]]'
p6
I3
sS'[[Blackberry Jam]]'
p7
I3
sS'[[Honey Popcorn]]'
p8
I3
sS'[[Cookie]]'
p9
I4
sS'[[Fish Burger]]'
p10
I0
sS'[[Sweater]]'
p11
I5
sS'[[Bacon Pie]]'
p12
I4
sS'[[Pizza]]'
p13
I1
s.