(dp0
S'[[Carrot]]'
p1
I9
sS'[[Apple Pie]]'
p2
I14
sS'[[Cacao]]'
p3
I52
sS'[[Woolly Chaps]]'
p4
I55
sS'[[Honey]]'
p5
I15
sS'[[Blackberry Jam]]'
p6
I21
sS'[[Strawberry Cake]]'
p7
I68
sS'[[Potato]]'
p8
I7
sS'[[Fish Burger]]'
p9
I24
sS'[[Tomato Juice]]'
p10
I84
sS'[[Buttered Popcorn]]'
p11
I62
sS'[[Cream Cake]]'
p12
I82
sS'[[Violet Dress]]'
p13
I38
sS'[[Soybean]]'
p14
I31
sS'[[Apple]]'
p15
I50
sS'[[Strawberry Ice Cream]]'
p16
I89
sS'[[Raspberry Muffin]]'
p17
I51
sS'[[Blue Woolly Hat]]'
p18
I42
sS'[[Goat Milk]]'
p19
I58
sS'[[Hamburger]]'
p20
I86
sS'[[White Sugar]]'
p21
I56
sS'[[Blue Sweater]]'
p22
I41
sS'[[Cherry Jam]]'
p23
I65
sS'[[Vanilla Ice Cream]]'
p24
I45
sS'[[Lure]]'
p25
I69
sS'[[Carrot Pie]]'
p26
I57
sS"[[Shepherd's Pie]]"
p27
I54
sS'[[Milk]]'
p28
I5
sS'[[Tomato]]'
p29
I34
sS'[[Cherry Juice]]'
p30
I64
sS'[[Cheesecake]]'
p31
I27
sS'[[Fish Pie]]'
p32
I48
sS'[[Butter]]'
p33
I11
sS'[[Pancake]]'
p34
I63
sS'[[Bacon Pie]]'
p35
I46
sS'[[Strawberry]]'
p36
I28
sS'[[Corn]]'
p37
I30
sS'[[Popcorn]]'
p38
I47
sS'[[Fish Fillet]]'
p39
I85
sS'[[Egg]]'
p40
I22
sS'[[Chili Popcorn]]'
p41
I53
sS'[[Goat Cheese]]'
p42
I44
sS'[[Bacon]]'
p43
I35
sS'[[Cotton Fabric]]'
p44
I90
sS'[[Potato Bread]]'
p45
I79
sS'[[Carrot Cake]]'
p46
I10
sS'[[Pumpkin Pie]]'
p47
I32
sS'[[Honey Popcorn]]'
p48
I25
sS'[[Red Berry Cake]]'
p49
I0
sS'[[Cookie]]'
p50
I6
sS'[[Pizza]]'
p51
I23
sS'[[Syrup]]'
p52
I18
sS'[[Pig Feed]]'
p53
I76
sS'[[Sheep Feed]]'
p54
I3
sS'[[Apple Juice]]'
p55
I8
sS'[[Cherry Popsicle]]'
p56
I73
sS'[[Bacon and Eggs]]'
p57
I2
sS'[[Cotton]]'
p58
I4
sS'[[Feta Pie]]'
p59
I49
sS'[[Carrot Juice]]'
p60
I17
sS'[[Baked Potato]]'
p61
I71
sS'[[Raspberry]]'
p62
I70
sS'[[Cheese]]'
p63
I13
sS'[[Chocolate Ice Cream]]'
p64
I77
sS'[[Apple Jam]]'
p65
I43
sS'[[Chicken Feed]]'
p66
I60
sS'[[Pumpkin]]'
p67
I36
sS'[[Brown Sugar]]'
p68
I12
sS'[[Blackberry]]'
p69
I33
sS'[[Corn Bread]]'
p70
I75
sS'[[Cotton Shirt]]'
p71
I72
sS'[[Honeycomb]]'
p72
I19
sS'[[Wool]]'
p73
I83
sS'[[Raspberry Jam]]'
p74
I39
sS'[[Cherry]]'
p75
I61
sS'[[Bread]]'
p76
I26
sS'[[Wheat]]'
p77
I74
sS'[[Casserole]]'
p78
I87
sS'[[Chili Pepper]]'
p79
I80
sS'[[Roasted Tomatoes]]'
p80
I88
sS'[[Potato Feta Cake]]'
p81
I40
sS'[[Sugarcane]]'
p82
I29
sS'[[Berry Juice]]'
p83
I66
sS'[[Indigo]]'
p84
I78
sS'[[Cream]]'
p85
I16
sS'[[Goat Feed]]'
p86
I67
sS'[[Sweater]]'
p87
I1
sS'[[Blackberry Muffin]]'
p88
I37
sS'[[Chocolate Cake]]'
p89
I59
sS'[[Cow Feed]]'
p90
I81
sS'[[Spicy Pizza]]'
p91
I20
s.(dp0
S'[[Pig Feed]]'
p1
I2
sS'[[Sheep Feed]]'
p2
I0
sS'[[Corn]]'
p3
I0
sS'[[Apple Pie]]'
p4
I5
sS'[[Popcorn]]'
p5
I4
sS'[[Fish Fillet]]'
p6
I3
sS'[[Roasted Tomatoes]]'
p7
I4
sS'[[Violet Dress]]'
p8
I4
sS'[[Honey Popcorn]]'
p9
I5
sS'[[Cotton Fabric]]'
p10
I5
sS'[[Syrup]]'
p11
I3
s.