(dp0
S'[[Pumpkin]]'
p1
I78
sS'[[Blackberry Jam]]'
p2
I61
sS'[[Violet Dress]]'
p3
I20
sS'[[Strawberry Ice Cream]]'
p4
I51
sS'[[Raspberry Muffin]]'
p5
I36
sS'[[Apple Pie]]'
p6
I43
sS'[[Tomato Juice]]'
p7
I50
sS'[[Blue Sweater]]'
p8
I6
sS'[[Honey]]'
p9
I84
sS'[[Vanilla Ice Cream]]'
p10
I31
sS'[[Lure]]'
p11
I53
sS'[[Carrot Pie]]'
p12
I3
sS'[[Tomato]]'
p13
I74
sS'[[Potato]]'
p14
I45
sS'[[Cheesecake]]'
p15
I48
sS'[[Fish Pie]]'
p16
I29
sS'[[Pancake]]'
p17
I88
sS'[[Popcorn]]'
p18
I59
sS'[[Goat Cheese]]'
p19
I19
sS'[[Potato Bread]]'
p20
I82
sS'[[Goat Feed]]'
p21
I55
sS'[[Red Berry Cake]]'
p22
I86
sS'[[Pizza]]'
p23
I77
sS'[[Syrup]]'
p24
I22
sS'[[Sheep Feed]]'
p25
I26
sS'[[Cherry Popsicle]]'
p26
I21
sS'[[Bacon and Eggs]]'
p27
I2
sS'[[Carrot]]'
p28
I5
sS'[[Carrot Juice]]'
p29
I46
sS'[[Baked Potato]]'
p30
I87
sS'[[Milk]]'
p31
I37
sS'[[Apple Jam]]'
p32
I30
sS'[[Apple]]'
p33
I54
sS'[[Blackberry]]'
p34
I85
sS'[[Cotton Shirt]]'
p35
I35
sS'[[Cream]]'
p36
I56
sS'[[Raspberry Jam]]'
p37
I14
sS'[[Cherry]]'
p38
I66
sS'[[Bread]]'
p39
I23
sS'[[Wheat]]'
p40
I64
sS'[[Casserole]]'
p41
I25
sS'[[Strawberry]]'
p42
I24
sS'[[Honey Popcorn]]'
p43
I73
sS'[[Honeycomb]]'
p44
I57
sS'[[Indigo]]'
p45
I89
sS'[[Raspberry]]'
p46
I83
sS'[[Chocolate Cake]]'
p47
I32
sS'[[Spicy Pizza]]'
p48
I62
sS'[[Cacao]]'
p49
I58
sS'[[Woolly Chaps]]'
p50
I7
sS'[[Carrot Cake]]'
p51
I34
sS'[[Egg]]'
p52
I79
sS'[[Strawberry Cake]]'
p53
I17
sS'[[Cherry Juice]]'
p54
I70
sS'[[Fish Burger]]'
p55
I90
sS'[[White Sugar]]'
p56
I44
sS'[[Buttered Popcorn]]'
p57
I39
sS'[[Cream Cake]]'
p58
I65
sS'[[Soybean]]'
p59
I80
sS'[[Brown Sugar]]'
p60
I47
sS'[[Blue Woolly Hat]]'
p61
I4
sS'[[Goat Milk]]'
p62
I33
sS'[[Hamburger]]'
p63
I75
sS'[[Cherry Jam]]'
p64
I40
sS"[[Shepherd's Pie]]"
p65
I60
sS'[[Butter]]'
p66
I9
sS'[[Bacon Pie]]'
p67
I71
sS'[[Chili Pepper]]'
p68
I63
sS'[[Corn]]'
p69
I67
sS'[[Fish Fillet]]'
p70
I76
sS'[[Chili Popcorn]]'
p71
I81
sS'[[Bacon]]'
p72
I16
sS'[[Cotton Fabric]]'
p73
I28
sS'[[Pumpkin Pie]]'
p74
I8
sS'[[Potato Feta Cake]]'
p75
I18
sS'[[Sugarcane]]'
p76
I72
sS'[[Cookie]]'
p77
I68
sS'[[Apple Juice]]'
p78
I11
sS'[[Pig Feed]]'
p79
I38
sS'[[Cotton]]'
p80
I49
sS'[[Feta Pie]]'
p81
I1
sS'[[Cheese]]'
p82
I41
sS'[[Chocolate Ice Cream]]'
p83
I10
sS'[[Chicken Feed]]'
p84
I52
sS'[[Corn Bread]]'
p85
I0
sS'[[Wool]]'
p86
I42
sS'[[Roasted Tomatoes]]'
p87
I27
sS'[[Berry Juice]]'
p88
I13
sS'[[Sweater]]'
p89
I15
sS'[[Blackberry Muffin]]'
p90
I12
sS'[[Cow Feed]]'
p91
I69
s.(dp0
S'[[Brown Sugar]]'
p1
I1
sS'[[Casserole]]'
p2
I4
sS'[[Honey Popcorn]]'
p3
I2
sS'[[Blue Woolly Hat]]'
p4
I5
sS'[[Apple Pie]]'
p5
I1
sS'[[Feta Pie]]'
p6
I2
sS'[[Fish Burger]]'
p7
I4
sS'[[Goat Cheese]]'
p8
I2
sS'[[Sweater]]'
p9
I3
sS'[[Raspberry]]'
p10
I5
sS'[[Pizza]]'
p11
I5
sS'[[Corn Bread]]'
p12
I2
s.