(dp0
S'[[Pumpkin]]'
p1
I24
sS'[[Carrot Pie]]'
p2
I44
sS'[[Violet Dress]]'
p3
I73
sS'[[Strawberry Ice Cream]]'
p4
I75
sS'[[Raspberry Muffin]]'
p5
I83
sS'[[Woolly Chaps]]'
p6
I87
sS'[[Tomato Juice]]'
p7
I12
sS'[[Honey]]'
p8
I85
sS'[[Vanilla Ice Cream]]'
p9
I89
sS'[[Lure]]'
p10
I41
sS'[[Blackberry Jam]]'
p11
I72
sS'[[Tomato]]'
p12
I49
sS'[[Potato]]'
p13
I60
sS'[[Cheesecake]]'
p14
I8
sS'[[Fish Pie]]'
p15
I9
sS'[[Pancake]]'
p16
I32
sS'[[Popcorn]]'
p17
I43
sS'[[Goat Cheese]]'
p18
I53
sS'[[Potato Bread]]'
p19
I80
sS'[[Goat Feed]]'
p20
I66
sS'[[Red Berry Cake]]'
p21
I30
sS'[[Pizza]]'
p22
I90
sS'[[Syrup]]'
p23
I0
sS'[[Sheep Feed]]'
p24
I1
sS'[[Cherry Popsicle]]'
p25
I4
sS'[[Bacon and Eggs]]'
p26
I5
sS'[[Carrot Juice]]'
p27
I46
sS'[[Baked Potato]]'
p28
I29
sS'[[Milk]]'
p29
I47
sS'[[Apple Jam]]'
p30
I14
sS'[[Carrot]]'
p31
I23
sS'[[Blackberry]]'
p32
I78
sS'[[Cotton Shirt]]'
p33
I10
sS'[[Cream]]'
p34
I16
sS'[[Raspberry Jam]]'
p35
I27
sS'[[Cherry]]'
p36
I6
sS'[[Bread]]'
p37
I15
sS'[[Wheat]]'
p38
I13
sS'[[Casserole]]'
p39
I11
sS'[[Strawberry]]'
p40
I71
sS'[[Potato Feta Cake]]'
p41
I58
sS'[[Spicy Pizza]]'
p42
I55
sS'[[Indigo]]'
p43
I34
sS'[[Raspberry]]'
p44
I82
sS'[[Chocolate Cake]]'
p45
I54
sS'[[Apple Pie]]'
p46
I37
sS'[[Cacao]]'
p47
I86
sS'[[Blue Sweater]]'
p48
I69
sS'[[Carrot Cake]]'
p49
I25
sS'[[Egg]]'
p50
I38
sS'[[Strawberry Cake]]'
p51
I63
sS'[[Cherry Juice]]'
p52
I77
sS'[[Fish Burger]]'
p53
I18
sS'[[White Sugar]]'
p54
I20
sS'[[Buttered Popcorn]]'
p55
I68
sS'[[Cream Cake]]'
p56
I19
sS'[[Soybean]]'
p57
I26
sS'[[Brown Sugar]]'
p58
I61
sS'[[Blue Woolly Hat]]'
p59
I50
sS'[[Goat Milk]]'
p60
I52
sS'[[Hamburger]]'
p61
I45
sS'[[Cherry Jam]]'
p62
I21
sS"[[Shepherd's Pie]]"
p63
I2
sS'[[Apple]]'
p64
I57
sS'[[Butter]]'
p65
I35
sS'[[Bacon Pie]]'
p66
I28
sS'[[Chili Pepper]]'
p67
I33
sS'[[Corn]]'
p68
I70
sS'[[Fish Fillet]]'
p69
I22
sS'[[Chili Popcorn]]'
p70
I40
sS'[[Bacon]]'
p71
I62
sS'[[Cotton Fabric]]'
p72
I84
sS'[[Pumpkin Pie]]'
p73
I59
sS'[[Honey Popcorn]]'
p74
I17
sS'[[Sugarcane]]'
p75
I88
sS'[[Cookie]]'
p76
I79
sS'[[Apple Juice]]'
p77
I3
sS'[[Pig Feed]]'
p78
I74
sS'[[Cotton]]'
p79
I67
sS'[[Feta Pie]]'
p80
I36
sS'[[Cheese]]'
p81
I51
sS'[[Chocolate Ice Cream]]'
p82
I42
sS'[[Chicken Feed]]'
p83
I76
sS'[[Corn Bread]]'
p84
I81
sS'[[Honeycomb]]'
p85
I56
sS'[[Wool]]'
p86
I65
sS'[[Roasted Tomatoes]]'
p87
I7
sS'[[Berry Juice]]'
p88
I39
sS'[[Sweater]]'
p89
I64
sS'[[Blackberry Muffin]]'
p90
I48
sS'[[Cow Feed]]'
p91
I31
s.(dp0
S'[[Popcorn]]'
p1
I4
sS'[[Cherry Popsicle]]'
p2
I2
sS'[[Honey]]'
p3
I0
sS'[[Blackberry]]'
p4
I4
sS'[[Honey Popcorn]]'
p5
I5
sS'[[Chili Popcorn]]'
p6
I5
sS'[[Berry Juice]]'
p7
I3
sS'[[Carrot Cake]]'
p8
I1
sS'[[Cotton Shirt]]'
p9
I5
sS'[[Syrup]]'
p10
I3
s.