(dp0
S'[[Pumpkin]]'
p1
I49
sS'[[Blackberry Jam]]'
p2
I34
sS'[[Violet Dress]]'
p3
I85
sS'[[Strawberry Ice Cream]]'
p4
I77
sS'[[Raspberry Muffin]]'
p5
I39
sS'[[Apple Pie]]'
p6
I35
sS'[[Tomato Juice]]'
p7
I52
sS'[[Blue Sweater]]'
p8
I31
sS'[[Honey]]'
p9
I41
sS'[[Vanilla Ice Cream]]'
p10
I17
sS'[[Lure]]'
p11
I60
sS'[[Carrot Pie]]'
p12
I63
sS'[[Tomato]]'
p13
I80
sS'[[Potato]]'
p14
I13
sS'[[Cheesecake]]'
p15
I14
sS'[[Fish Pie]]'
p16
I70
sS'[[Pancake]]'
p17
I73
sS'[[Popcorn]]'
p18
I9
sS'[[Goat Cheese]]'
p19
I65
sS'[[Potato Bread]]'
p20
I22
sS'[[Goat Feed]]'
p21
I48
sS'[[Red Berry Cake]]'
p22
I47
sS'[[Pizza]]'
p23
I87
sS'[[Syrup]]'
p24
I55
sS'[[Sheep Feed]]'
p25
I21
sS'[[Cherry Popsicle]]'
p26
I59
sS'[[Bacon and Eggs]]'
p27
I90
sS'[[Carrot Juice]]'
p28
I86
sS'[[Baked Potato]]'
p29
I84
sS'[[Milk]]'
p30
I10
sS'[[Apple Jam]]'
p31
I29
sS'[[Carrot]]'
p32
I56
sS'[[Blackberry]]'
p33
I27
sS'[[Cotton Shirt]]'
p34
I0
sS'[[Cream]]'
p35
I25
sS'[[Raspberry Jam]]'
p36
I72
sS'[[Cherry]]'
p37
I57
sS'[[Bread]]'
p38
I76
sS'[[Wheat]]'
p39
I15
sS'[[Casserole]]'
p40
I37
sS'[[Chili Pepper]]'
p41
I58
sS'[[Honey Popcorn]]'
p42
I88
sS'[[Honeycomb]]'
p43
I11
sS'[[Indigo]]'
p44
I24
sS'[[Raspberry]]'
p45
I20
sS'[[Chocolate Cake]]'
p46
I30
sS'[[Spicy Pizza]]'
p47
I32
sS'[[Cacao]]'
p48
I12
sS'[[Woolly Chaps]]'
p49
I66
sS'[[Carrot Cake]]'
p50
I8
sS'[[Egg]]'
p51
I61
sS'[[Strawberry Cake]]'
p52
I7
sS'[[Cherry Juice]]'
p53
I1
sS'[[Fish Burger]]'
p54
I36
sS'[[White Sugar]]'
p55
I54
sS'[[Buttered Popcorn]]'
p56
I6
sS'[[Cream Cake]]'
p57
I79
sS'[[Soybean]]'
p58
I16
sS'[[Apple]]'
p59
I38
sS'[[Blue Woolly Hat]]'
p60
I62
sS'[[Goat Milk]]'
p61
I33
sS'[[Hamburger]]'
p62
I5
sS'[[Cherry Jam]]'
p63
I40
sS"[[Shepherd's Pie]]"
p64
I26
sS'[[Brown Sugar]]'
p65
I23
sS'[[Butter]]'
p66
I53
sS'[[Bacon Pie]]'
p67
I19
sS'[[Strawberry]]'
p68
I78
sS'[[Corn]]'
p69
I3
sS'[[Fish Fillet]]'
p70
I4
sS'[[Chili Popcorn]]'
p71
I71
sS'[[Bacon]]'
p72
I28
sS'[[Cotton Fabric]]'
p73
I75
sS'[[Pumpkin Pie]]'
p74
I67
sS'[[Potato Feta Cake]]'
p75
I69
sS'[[Sugarcane]]'
p76
I43
sS'[[Cookie]]'
p77
I44
sS'[[Apple Juice]]'
p78
I81
sS'[[Pig Feed]]'
p79
I2
sS'[[Cotton]]'
p80
I18
sS'[[Feta Pie]]'
p81
I51
sS'[[Cheese]]'
p82
I50
sS'[[Chocolate Ice Cream]]'
p83
I45
sS'[[Chicken Feed]]'
p84
I64
sS'[[Corn Bread]]'
p85
I89
sS'[[Wool]]'
p86
I82
sS'[[Roasted Tomatoes]]'
p87
I74
sS'[[Berry Juice]]'
p88
I83
sS'[[Sweater]]'
p89
I42
sS'[[Blackberry Muffin]]'
p90
I68
sS'[[Cow Feed]]'
p91
I46
s.(dp0
S'[[Blue Sweater]]'
p1
I4
sS'[[Corn]]'
p2
I1
sS'[[Honey Popcorn]]'
p3
I5
sS'[[Fish Fillet]]'
p4
I3
sS'[[Carrot]]'
p5
I5
sS'[[Carrot Pie]]'
p6
I3
sS'[[Strawberry Cake]]'
p7
I1
sS'[[Potato Feta Cake]]'
p8
I4
sS'[[Blackberry Muffin]]'
p9
I4
sS'[[Butter]]'
p10
I5
sS'[[Bacon]]'
p11
I1
sS'[[Blackberry]]'
p12
I0
sS'[[Cotton Fabric]]'
p13
I0
s.