(dp0
S'[[Pumpkin]]'
p1
I5
sS'[[Blackberry Jam]]'
p2
I13
sS'[[Violet Dress]]'
p3
I52
sS'[[Strawberry Ice Cream]]'
p4
I54
sS'[[Raspberry Muffin]]'
p5
I47
sS'[[Apple Pie]]'
p6
I43
sS'[[Tomato Juice]]'
p7
I72
sS'[[Carrot Cake]]'
p8
I50
sS'[[Vanilla Ice Cream]]'
p9
I90
sS'[[Lure]]'
p10
I26
sS'[[Carrot Pie]]'
p11
I64
sS'[[Tomato]]'
p12
I44
sS'[[Cherry Juice]]'
p13
I6
sS'[[Cheesecake]]'
p14
I65
sS'[[Fish Pie]]'
p15
I69
sS'[[Pancake]]'
p16
I86
sS'[[Popcorn]]'
p17
I70
sS'[[Goat Cheese]]'
p18
I12
sS'[[Potato Bread]]'
p19
I57
sS'[[Goat Feed]]'
p20
I58
sS'[[Red Berry Cake]]'
p21
I32
sS'[[Pizza]]'
p22
I34
sS'[[Syrup]]'
p23
I40
sS'[[Sheep Feed]]'
p24
I37
sS'[[Cherry Popsicle]]'
p25
I10
sS'[[Bacon and Eggs]]'
p26
I16
sS'[[Carrot Juice]]'
p27
I39
sS'[[Baked Potato]]'
p28
I73
sS'[[Milk]]'
p29
I77
sS'[[Apple Jam]]'
p30
I11
sS'[[Carrot]]'
p31
I33
sS'[[Blackberry]]'
p32
I42
sS'[[Cotton Shirt]]'
p33
I79
sS'[[Cream]]'
p34
I62
sS'[[Raspberry Jam]]'
p35
I81
sS'[[Cherry]]'
p36
I66
sS'[[Bread]]'
p37
I74
sS'[[Wheat]]'
p38
I83
sS'[[Casserole]]'
p39
I84
sS'[[Chili Pepper]]'
p40
I18
sS'[[Honey Popcorn]]'
p41
I25
sS'[[Honeycomb]]'
p42
I78
sS'[[Indigo]]'
p43
I15
sS'[[Raspberry]]'
p44
I48
sS'[[Chocolate Cake]]'
p45
I68
sS'[[Spicy Pizza]]'
p46
I55
sS'[[Cacao]]'
p47
I89
sS'[[Woolly Chaps]]'
p48
I3
sS'[[Honey]]'
p49
I30
sS'[[Egg]]'
p50
I20
sS'[[Strawberry Cake]]'
p51
I67
sS'[[Potato]]'
p52
I21
sS'[[Fish Burger]]'
p53
I1
sS'[[White Sugar]]'
p54
I75
sS'[[Buttered Popcorn]]'
p55
I36
sS'[[Cream Cake]]'
p56
I46
sS'[[Soybean]]'
p57
I8
sS'[[Apple]]'
p58
I71
sS'[[Blue Woolly Hat]]'
p59
I38
sS'[[Goat Milk]]'
p60
I22
sS'[[Hamburger]]'
p61
I76
sS'[[Cherry Jam]]'
p62
I45
sS"[[Shepherd's Pie]]"
p63
I63
sS'[[Brown Sugar]]'
p64
I29
sS'[[Butter]]'
p65
I7
sS'[[Bacon Pie]]'
p66
I23
sS'[[Strawberry]]'
p67
I0
sS'[[Pumpkin Pie]]'
p68
I41
sS'[[Corn]]'
p69
I87
sS'[[Fish Fillet]]'
p70
I51
sS'[[Chili Popcorn]]'
p71
I56
sS'[[Bacon]]'
p72
I80
sS'[[Cotton Fabric]]'
p73
I17
sS'[[Blue Sweater]]'
p74
I49
sS'[[Potato Feta Cake]]'
p75
I85
sS'[[Sugarcane]]'
p76
I14
sS'[[Cookie]]'
p77
I60
sS'[[Apple Juice]]'
p78
I31
sS'[[Pig Feed]]'
p79
I4
sS'[[Cotton]]'
p80
I59
sS'[[Feta Pie]]'
p81
I27
sS'[[Cheese]]'
p82
I24
sS'[[Chocolate Ice Cream]]'
p83
I2
sS'[[Chicken Feed]]'
p84
I35
sS'[[Corn Bread]]'
p85
I53
sS'[[Wool]]'
p86
I82
sS'[[Roasted Tomatoes]]'
p87
I19
sS'[[Berry Juice]]'
p88
I88
sS'[[Sweater]]'
p89
I9
sS'[[Blackberry Muffin]]'
p90
I28
sS'[[Cow Feed]]'
p91
I61
s.(dp0
S'[[Corn]]'
p1
I3
sS'[[Sweater]]'
p2
I4
sS'[[Roasted Tomatoes]]'
p3
I1
sS'[[Fish Pie]]'
p4
I3
sS'[[Apple Pie]]'
p5
I0
sS'[[Hamburger]]'
p6
I2
sS'[[Casserole]]'
p7
I5
sS'[[Tomato Juice]]'
p8
I5
sS'[[Berry Juice]]'
p9
I0
sS'[[Raspberry]]'
p10
I5
sS'[[Baked Potato]]'
p11
I3
sS'[[Buttered Popcorn]]'
p12
I3
sS'[[Violet Dress]]'
p13
I2
sS'[[Milk]]'
p14
I2
s.