(dp0
S'[[Pumpkin]]'
p1
I19
sS'[[Blackberry Jam]]'
p2
I30
sS'[[Violet Dress]]'
p3
I69
sS'[[Strawberry Ice Cream]]'
p4
I28
sS'[[Raspberry Muffin]]'
p5
I74
sS'[[Apple Pie]]'
p6
I88
sS'[[Tomato Juice]]'
p7
I12
sS'[[Carrot Cake]]'
p8
I5
sS'[[Vanilla Ice Cream]]'
p9
I16
sS'[[Lure]]'
p10
I38
sS'[[Carrot Pie]]'
p11
I78
sS'[[Tomato]]'
p12
I43
sS'[[Cherry Juice]]'
p13
I36
sS'[[Cheesecake]]'
p14
I21
sS'[[Fish Pie]]'
p15
I64
sS'[[Pancake]]'
p16
I1
sS'[[Popcorn]]'
p17
I15
sS'[[Goat Cheese]]'
p18
I20
sS'[[Potato Bread]]'
p19
I4
sS'[[Goat Feed]]'
p20
I89
sS'[[Red Berry Cake]]'
p21
I79
sS'[[Pizza]]'
p22
I87
sS'[[Syrup]]'
p23
I34
sS'[[Sheep Feed]]'
p24
I35
sS'[[Cherry Popsicle]]'
p25
I9
sS'[[Bacon and Eggs]]'
p26
I65
sS'[[Carrot Juice]]'
p27
I76
sS'[[Baked Potato]]'
p28
I75
sS'[[Milk]]'
p29
I27
sS'[[Apple Jam]]'
p30
I31
sS'[[Carrot]]'
p31
I63
sS'[[Blackberry]]'
p32
I72
sS'[[Cotton Shirt]]'
p33
I23
sS'[[Cream]]'
p34
I26
sS'[[Raspberry Jam]]'
p35
I32
sS'[[Cherry]]'
p36
I0
sS'[[Bread]]'
p37
I3
sS'[[Wheat]]'
p38
I22
sS'[[Casserole]]'
p39
I46
sS'[[Chili Pepper]]'
p40
I70
sS'[[Honey Popcorn]]'
p41
I18
sS'[[Honeycomb]]'
p42
I61
sS'[[Indigo]]'
p43
I6
sS'[[Raspberry]]'
p44
I25
sS'[[Chocolate Cake]]'
p45
I7
sS'[[Spicy Pizza]]'
p46
I41
sS'[[Cacao]]'
p47
I55
sS'[[Woolly Chaps]]'
p48
I14
sS'[[Honey]]'
p49
I8
sS'[[Egg]]'
p50
I49
sS'[[Strawberry Cake]]'
p51
I17
sS'[[Potato]]'
p52
I24
sS'[[Fish Burger]]'
p53
I58
sS'[[White Sugar]]'
p54
I80
sS'[[Buttered Popcorn]]'
p55
I90
sS'[[Cream Cake]]'
p56
I37
sS'[[Soybean]]'
p57
I77
sS'[[Apple]]'
p58
I2
sS'[[Blue Woolly Hat]]'
p59
I39
sS'[[Goat Milk]]'
p60
I86
sS'[[Hamburger]]'
p61
I29
sS'[[Cherry Jam]]'
p62
I62
sS"[[Shepherd's Pie]]"
p63
I50
sS'[[Brown Sugar]]'
p64
I44
sS'[[Butter]]'
p65
I47
sS'[[Bacon Pie]]'
p66
I73
sS'[[Strawberry]]'
p67
I84
sS'[[Pumpkin Pie]]'
p68
I60
sS'[[Corn]]'
p69
I56
sS'[[Fish Fillet]]'
p70
I68
sS'[[Chili Popcorn]]'
p71
I51
sS'[[Bacon]]'
p72
I81
sS'[[Cotton Fabric]]'
p73
I83
sS'[[Blue Sweater]]'
p74
I67
sS'[[Potato Feta Cake]]'
p75
I48
sS'[[Sugarcane]]'
p76
I54
sS'[[Cookie]]'
p77
I53
sS'[[Apple Juice]]'
p78
I52
sS'[[Pig Feed]]'
p79
I66
sS'[[Cotton]]'
p80
I11
sS'[[Feta Pie]]'
p81
I33
sS'[[Cheese]]'
p82
I40
sS'[[Chocolate Ice Cream]]'
p83
I59
sS'[[Chicken Feed]]'
p84
I42
sS'[[Corn Bread]]'
p85
I45
sS'[[Wool]]'
p86
I57
sS'[[Roasted Tomatoes]]'
p87
I10
sS'[[Berry Juice]]'
p88
I71
sS'[[Sweater]]'
p89
I82
sS'[[Blackberry Muffin]]'
p90
I13
sS'[[Cow Feed]]'
p91
I85
s.(dp0
S'[[Potato Bread]]'
p1
I5
sS'[[Strawberry Ice Cream]]'
p2
I2
sS'[[Strawberry]]'
p3
I0
sS'[[Woolly Chaps]]'
p4
I2
sS'[[Carrot Cake]]'
p5
I2
sS'[[Potato Feta Cake]]'
p6
I5
sS'[[White Sugar]]'
p7
I0
sS'[[Blackberry Muffin]]'
p8
I2
sS'[[Wool]]'
p9
I4
sS'[[Bacon]]'
p10
I3
sS'[[Sugarcane]]'
p11
I4
sS'[[Bacon Pie]]'
p12
I4
sS'[[Cow Feed]]'
p13
I3
sS'[[Violet Dress]]'
p14
I5
sS"[[Shepherd's Pie]]"
p15
I5
sS'[[Spicy Pizza]]'
p16
I3
s.