(dp0
S'[[Pumpkin]]'
p1
I6
sS'[[Blackberry Jam]]'
p2
I61
sS'[[Violet Dress]]'
p3
I66
sS'[[Strawberry Ice Cream]]'
p4
I65
sS'[[Raspberry Muffin]]'
p5
I72
sS'[[Apple Pie]]'
p6
I38
sS'[[Tomato Juice]]'
p7
I26
sS'[[Blue Sweater]]'
p8
I11
sS'[[Honey]]'
p9
I28
sS'[[Vanilla Ice Cream]]'
p10
I29
sS'[[Lure]]'
p11
I15
sS'[[Carrot Pie]]'
p12
I17
sS'[[Tomato]]'
p13
I39
sS'[[Potato]]'
p14
I87
sS'[[Cheesecake]]'
p15
I34
sS'[[Fish Pie]]'
p16
I24
sS'[[Pancake]]'
p17
I19
sS'[[Popcorn]]'
p18
I0
sS'[[Goat Cheese]]'
p19
I86
sS'[[Potato Bread]]'
p20
I5
sS'[[Goat Feed]]'
p21
I21
sS'[[Red Berry Cake]]'
p22
I54
sS'[[Pizza]]'
p23
I9
sS'[[Syrup]]'
p24
I83
sS'[[Sheep Feed]]'
p25
I2
sS'[[Cherry Popsicle]]'
p26
I40
sS'[[Bacon and Eggs]]'
p27
I80
sS'[[Carrot]]'
p28
I50
sS'[[Carrot Juice]]'
p29
I4
sS'[[Baked Potato]]'
p30
I22
sS'[[Milk]]'
p31
I41
sS'[[Apple Jam]]'
p32
I77
sS'[[Apple]]'
p33
I35
sS'[[Blackberry]]'
p34
I67
sS'[[Cotton Shirt]]'
p35
I43
sS'[[Cream]]'
p36
I60
sS'[[Raspberry Jam]]'
p37
I55
sS'[[Cherry]]'
p38
I32
sS'[[Bread]]'
p39
I74
sS'[[Wheat]]'
p40
I16
sS'[[Casserole]]'
p41
I88
sS'[[Strawberry]]'
p42
I36
sS'[[Honey Popcorn]]'
p43
I76
sS'[[Honeycomb]]'
p44
I8
sS'[[Indigo]]'
p45
I85
sS'[[Raspberry]]'
p46
I69
sS'[[Chocolate Cake]]'
p47
I73
sS'[[Spicy Pizza]]'
p48
I46
sS'[[Cacao]]'
p49
I90
sS'[[Woolly Chaps]]'
p50
I25
sS'[[Carrot Cake]]'
p51
I59
sS'[[Egg]]'
p52
I42
sS'[[Strawberry Cake]]'
p53
I70
sS'[[Cherry Juice]]'
p54
I7
sS'[[Fish Burger]]'
p55
I20
sS'[[White Sugar]]'
p56
I57
sS'[[Buttered Popcorn]]'
p57
I78
sS'[[Cream Cake]]'
p58
I23
sS'[[Soybean]]'
p59
I63
sS'[[Brown Sugar]]'
p60
I79
sS'[[Blue Woolly Hat]]'
p61
I48
sS'[[Goat Milk]]'
p62
I58
sS'[[Hamburger]]'
p63
I30
sS'[[Cherry Jam]]'
p64
I37
sS"[[Shepherd's Pie]]"
p65
I3
sS'[[Butter]]'
p66
I10
sS'[[Bacon Pie]]'
p67
I31
sS'[[Chili Pepper]]'
p68
I51
sS'[[Corn]]'
p69
I53
sS'[[Fish Fillet]]'
p70
I89
sS'[[Chili Popcorn]]'
p71
I1
sS'[[Bacon]]'
p72
I12
sS'[[Cotton Fabric]]'
p73
I71
sS'[[Pumpkin Pie]]'
p74
I49
sS'[[Potato Feta Cake]]'
p75
I68
sS'[[Sugarcane]]'
p76
I27
sS'[[Cookie]]'
p77
I14
sS'[[Apple Juice]]'
p78
I18
sS'[[Pig Feed]]'
p79
I56
sS'[[Cotton]]'
p80
I84
sS'[[Feta Pie]]'
p81
I13
sS'[[Cheese]]'
p82
I82
sS'[[Chocolate Ice Cream]]'
p83
I64
sS'[[Chicken Feed]]'
p84
I44
sS'[[Corn Bread]]'
p85
I75
sS'[[Wool]]'
p86
I62
sS'[[Roasted Tomatoes]]'
p87
I45
sS'[[Berry Juice]]'
p88
I33
sS'[[Sweater]]'
p89
I47
sS'[[Blackberry Muffin]]'
p90
I52
sS'[[Cow Feed]]'
p91
I81
s.(dp0
S'[[Brown Sugar]]'
p1
I4
sS'[[Casserole]]'
p2
I5
sS'[[Goat Cheese]]'
p3
I2
sS'[[Roasted Tomatoes]]'
p4
I2
sS'[[Fish Pie]]'
p5
I1
sS'[[Strawberry Cake]]'
p6
I3
sS'[[Cotton]]'
p7
I5
sS'[[Egg]]'
p8
I1
sS'[[Cotton Shirt]]'
p9
I5
sS'[[White Sugar]]'
p10
I5
sS'[[Honeycomb]]'
p11
I2
sS'[[Vanilla Ice Cream]]'
p12
I4
sS'[[Cream]]'
p13
I7
sS'[[Cherry]]'
p14
I4
sS'[[Bacon Pie]]'
p15
I5
sS'[[Apple Juice]]'
p16
I5
sS'[[Syrup]]'
p17
I5
sS'[[Bacon and Eggs]]'
p18
I5
s.