(dp0
S'[[Pumpkin]]'
p1
I38
sS'[[Carrot Pie]]'
p2
I3
sS'[[Violet Dress]]'
p3
I36
sS'[[Strawberry Ice Cream]]'
p4
I70
sS'[[Raspberry Muffin]]'
p5
I41
sS'[[Apple Pie]]'
p6
I58
sS'[[Tomato Juice]]'
p7
I88
sS'[[Honey]]'
p8
I66
sS'[[Vanilla Ice Cream]]'
p9
I87
sS'[[Lure]]'
p10
I40
sS'[[Blackberry Jam]]'
p11
I19
sS'[[Tomato]]'
p12
I14
sS'[[Potato]]'
p13
I74
sS'[[Cheesecake]]'
p14
I86
sS'[[Fish Pie]]'
p15
I54
sS'[[Pancake]]'
p16
I67
sS'[[Popcorn]]'
p17
I10
sS'[[Goat Cheese]]'
p18
I50
sS'[[Potato Bread]]'
p19
I5
sS'[[Goat Feed]]'
p20
I24
sS'[[Red Berry Cake]]'
p21
I35
sS'[[Pizza]]'
p22
I52
sS'[[Syrup]]'
p23
I55
sS'[[Sheep Feed]]'
p24
I4
sS'[[Cherry Popsicle]]'
p25
I90
sS'[[Bacon and Eggs]]'
p26
I8
sS'[[Carrot Juice]]'
p27
I64
sS'[[Baked Potato]]'
p28
I12
sS'[[Milk]]'
p29
I15
sS'[[Apple Jam]]'
p30
I39
sS'[[Carrot]]'
p31
I9
sS'[[Blackberry]]'
p32
I26
sS'[[Cotton Shirt]]'
p33
I83
sS'[[Cream]]'
p34
I84
sS'[[Raspberry Jam]]'
p35
I68
sS'[[Cherry]]'
p36
I22
sS'[[Bread]]'
p37
I29
sS'[[Wheat]]'
p38
I13
sS'[[Casserole]]'
p39
I57
sS'[[Chili Pepper]]'
p40
I7
sS'[[Honey Popcorn]]'
p41
I78
sS'[[Honeycomb]]'
p42
I16
sS'[[Indigo]]'
p43
I79
sS'[[Raspberry]]'
p44
I47
sS'[[Chocolate Cake]]'
p45
I71
sS'[[Spicy Pizza]]'
p46
I31
sS'[[Cacao]]'
p47
I32
sS'[[Woolly Chaps]]'
p48
I63
sS'[[Carrot Cake]]'
p49
I2
sS'[[Egg]]'
p50
I17
sS'[[Strawberry Cake]]'
p51
I46
sS'[[Cherry Juice]]'
p52
I33
sS'[[Fish Burger]]'
p53
I89
sS'[[White Sugar]]'
p54
I77
sS'[[Buttered Popcorn]]'
p55
I81
sS'[[Cream Cake]]'
p56
I1
sS'[[Soybean]]'
p57
I34
sS'[[Apple]]'
p58
I25
sS'[[Blue Woolly Hat]]'
p59
I56
sS'[[Goat Milk]]'
p60
I62
sS'[[Hamburger]]'
p61
I65
sS'[[Cherry Jam]]'
p62
I85
sS"[[Shepherd's Pie]]"
p63
I21
sS'[[Brown Sugar]]'
p64
I72
sS'[[Butter]]'
p65
I23
sS'[[Bacon Pie]]'
p66
I80
sS'[[Strawberry]]'
p67
I42
sS'[[Pumpkin Pie]]'
p68
I73
sS'[[Corn]]'
p69
I60
sS'[[Fish Fillet]]'
p70
I30
sS'[[Chili Popcorn]]'
p71
I82
sS'[[Bacon]]'
p72
I45
sS'[[Cotton Fabric]]'
p73
I27
sS'[[Blue Sweater]]'
p74
I6
sS'[[Potato Feta Cake]]'
p75
I51
sS'[[Sugarcane]]'
p76
I43
sS'[[Cookie]]'
p77
I20
sS'[[Apple Juice]]'
p78
I37
sS'[[Pig Feed]]'
p79
I75
sS'[[Cotton]]'
p80
I69
sS'[[Feta Pie]]'
p81
I48
sS'[[Cheese]]'
p82
I28
sS'[[Chocolate Ice Cream]]'
p83
I44
sS'[[Chicken Feed]]'
p84
I53
sS'[[Corn Bread]]'
p85
I49
sS'[[Wool]]'
p86
I61
sS'[[Roasted Tomatoes]]'
p87
I0
sS'[[Berry Juice]]'
p88
I76
sS'[[Sweater]]'
p89
I11
sS'[[Blackberry Muffin]]'
p90
I18
sS'[[Cow Feed]]'
p91
I59
s.(dp0
S'[[Wheat]]'
p1
I2
sS'[[Woolly Chaps]]'
p2
I1
sS'[[Violet Dress]]'
p3
I4
sS'[[Strawberry Cake]]'
p4
I2
sS'[[Honey Popcorn]]'
p5
I5
sS'[[Cotton Shirt]]'
p6
I1
sS'[[Butter]]'
p7
I1
sS'[[Fish Burger]]'
p8
I5
sS'[[Vanilla Ice Cream]]'
p9
I4
sS'[[Raspberry Jam]]'
p10
I0
sS'[[Syrup]]'
p11
I2
s.