(dp0
S'[[Pumpkin]]'
p1
I58
sS'[[Blackberry Jam]]'
p2
I65
sS'[[Violet Dress]]'
p3
I59
sS'[[Strawberry Ice Cream]]'
p4
I34
sS'[[Raspberry Muffin]]'
p5
I4
sS'[[Apple Pie]]'
p6
I52
sS'[[Tomato Juice]]'
p7
I28
sS'[[Blue Sweater]]'
p8
I85
sS'[[Honey]]'
p9
I39
sS'[[Vanilla Ice Cream]]'
p10
I69
sS'[[Lure]]'
p11
I16
sS'[[Carrot Pie]]'
p12
I19
sS'[[Tomato]]'
p13
I49
sS'[[Potato]]'
p14
I29
sS'[[Cheesecake]]'
p15
I8
sS'[[Fish Pie]]'
p16
I71
sS'[[Pancake]]'
p17
I67
sS'[[Popcorn]]'
p18
I41
sS'[[Goat Cheese]]'
p19
I76
sS'[[Potato Bread]]'
p20
I72
sS'[[Goat Feed]]'
p21
I10
sS'[[Red Berry Cake]]'
p22
I25
sS'[[Pizza]]'
p23
I11
sS'[[Syrup]]'
p24
I87
sS'[[Sheep Feed]]'
p25
I48
sS'[[Cherry Popsicle]]'
p26
I9
sS'[[Bacon and Eggs]]'
p27
I56
sS'[[Carrot]]'
p28
I78
sS'[[Carrot Juice]]'
p29
I84
sS'[[Baked Potato]]'
p30
I86
sS'[[Milk]]'
p31
I79
sS'[[Apple Jam]]'
p32
I0
sS'[[Apple]]'
p33
I81
sS'[[Blackberry]]'
p34
I42
sS'[[Cotton Shirt]]'
p35
I43
sS'[[Cream]]'
p36
I5
sS'[[Raspberry Jam]]'
p37
I14
sS'[[Cherry]]'
p38
I74
sS'[[Bread]]'
p39
I32
sS'[[Wheat]]'
p40
I55
sS'[[Casserole]]'
p41
I73
sS'[[Strawberry]]'
p42
I51
sS'[[Honey Popcorn]]'
p43
I36
sS'[[Honeycomb]]'
p44
I24
sS'[[Indigo]]'
p45
I75
sS'[[Raspberry]]'
p46
I57
sS'[[Chocolate Cake]]'
p47
I82
sS'[[Spicy Pizza]]'
p48
I35
sS'[[Cacao]]'
p49
I66
sS'[[Woolly Chaps]]'
p50
I31
sS'[[Carrot Cake]]'
p51
I33
sS'[[Egg]]'
p52
I20
sS'[[Strawberry Cake]]'
p53
I63
sS'[[Cherry Juice]]'
p54
I62
sS'[[Fish Burger]]'
p55
I12
sS'[[White Sugar]]'
p56
I64
sS'[[Buttered Popcorn]]'
p57
I27
sS'[[Cream Cake]]'
p58
I17
sS'[[Soybean]]'
p59
I23
sS'[[Brown Sugar]]'
p60
I88
sS'[[Blue Woolly Hat]]'
p61
I47
sS'[[Goat Milk]]'
p62
I18
sS'[[Hamburger]]'
p63
I1
sS'[[Cherry Jam]]'
p64
I3
sS"[[Shepherd's Pie]]"
p65
I60
sS'[[Butter]]'
p66
I61
sS'[[Bacon Pie]]'
p67
I30
sS'[[Chili Pepper]]'
p68
I83
sS'[[Corn]]'
p69
I89
sS'[[Fish Fillet]]'
p70
I6
sS'[[Chili Popcorn]]'
p71
I44
sS'[[Bacon]]'
p72
I37
sS'[[Cotton Fabric]]'
p73
I26
sS'[[Pumpkin Pie]]'
p74
I68
sS'[[Potato Feta Cake]]'
p75
I53
sS'[[Sugarcane]]'
p76
I22
sS'[[Cookie]]'
p77
I21
sS'[[Apple Juice]]'
p78
I7
sS'[[Pig Feed]]'
p79
I77
sS'[[Cotton]]'
p80
I38
sS'[[Feta Pie]]'
p81
I45
sS'[[Cheese]]'
p82
I90
sS'[[Chocolate Ice Cream]]'
p83
I80
sS'[[Chicken Feed]]'
p84
I46
sS'[[Corn Bread]]'
p85
I13
sS'[[Wool]]'
p86
I70
sS'[[Roasted Tomatoes]]'
p87
I15
sS'[[Berry Juice]]'
p88
I2
sS'[[Sweater]]'
p89
I40
sS'[[Blackberry Muffin]]'
p90
I54
sS'[[Cow Feed]]'
p91
I50
s.(dp0
S'[[Blue Sweater]]'
p1
I1
sS'[[Cherry Popsicle]]'
p2
I3
sS'[[Carrot Cake]]'
p3
I2
sS'[[Apple Pie]]'
p4
I3
sS'[[Chili Popcorn]]'
p5
I3
sS'[[Blackberry Muffin]]'
p6
I5
sS'[[Butter]]'
p7
I2
sS'[[Fish Burger]]'
p8
I5
sS'[[Vanilla Ice Cream]]'
p9
I0
sS'[[Lure]]'
p10
I1
sS'[[Chocolate Cake]]'
p11
I5
sS'[[Pizza]]'
p12
I3
sS'[[Syrup]]'
p13
I1
s.