(dp0
S'[[Pumpkin]]'
p1
I11
sS'[[Blackberry Jam]]'
p2
I34
sS'[[Violet Dress]]'
p3
I77
sS'[[Strawberry Ice Cream]]'
p4
I37
sS'[[Raspberry Muffin]]'
p5
I67
sS'[[Apple Pie]]'
p6
I75
sS'[[Tomato Juice]]'
p7
I48
sS'[[Blue Sweater]]'
p8
I41
sS'[[Honey]]'
p9
I46
sS'[[Vanilla Ice Cream]]'
p10
I74
sS'[[Lure]]'
p11
I65
sS'[[Carrot Pie]]'
p12
I76
sS'[[Tomato]]'
p13
I22
sS'[[Potato]]'
p14
I24
sS'[[Cheesecake]]'
p15
I12
sS'[[Fish Pie]]'
p16
I33
sS'[[Pancake]]'
p17
I42
sS'[[Popcorn]]'
p18
I72
sS'[[Goat Cheese]]'
p19
I29
sS'[[Potato Bread]]'
p20
I44
sS'[[Goat Feed]]'
p21
I10
sS'[[Red Berry Cake]]'
p22
I54
sS'[[Pizza]]'
p23
I62
sS'[[Syrup]]'
p24
I30
sS'[[Sheep Feed]]'
p25
I56
sS'[[Cherry Popsicle]]'
p26
I1
sS'[[Bacon and Eggs]]'
p27
I5
sS'[[Carrot]]'
p28
I71
sS'[[Carrot Juice]]'
p29
I6
sS'[[Baked Potato]]'
p30
I86
sS'[[Milk]]'
p31
I18
sS'[[Apple Jam]]'
p32
I36
sS'[[Apple]]'
p33
I25
sS'[[Blackberry]]'
p34
I78
sS'[[Cotton Shirt]]'
p35
I61
sS'[[Cream]]'
p36
I17
sS'[[Raspberry Jam]]'
p37
I50
sS'[[Cherry]]'
p38
I53
sS'[[Bread]]'
p39
I59
sS'[[Wheat]]'
p40
I63
sS'[[Casserole]]'
p41
I49
sS'[[Strawberry]]'
p42
I51
sS'[[Honey Popcorn]]'
p43
I89
sS'[[Honeycomb]]'
p44
I32
sS'[[Indigo]]'
p45
I8
sS'[[Raspberry]]'
p46
I38
sS'[[Chocolate Cake]]'
p47
I73
sS'[[Spicy Pizza]]'
p48
I43
sS'[[Cacao]]'
p49
I2
sS'[[Woolly Chaps]]'
p50
I47
sS'[[Carrot Cake]]'
p51
I4
sS'[[Egg]]'
p52
I27
sS'[[Strawberry Cake]]'
p53
I20
sS'[[Cherry Juice]]'
p54
I55
sS'[[Fish Burger]]'
p55
I39
sS'[[White Sugar]]'
p56
I88
sS'[[Buttered Popcorn]]'
p57
I69
sS'[[Cream Cake]]'
p58
I52
sS'[[Soybean]]'
p59
I70
sS'[[Brown Sugar]]'
p60
I83
sS'[[Blue Woolly Hat]]'
p61
I0
sS'[[Goat Milk]]'
p62
I82
sS'[[Hamburger]]'
p63
I13
sS'[[Cherry Jam]]'
p64
I85
sS"[[Shepherd's Pie]]"
p65
I35
sS'[[Butter]]'
p66
I3
sS'[[Bacon Pie]]'
p67
I9
sS'[[Chili Pepper]]'
p68
I58
sS'[[Corn]]'
p69
I31
sS'[[Fish Fillet]]'
p70
I81
sS'[[Chili Popcorn]]'
p71
I21
sS'[[Bacon]]'
p72
I26
sS'[[Cotton Fabric]]'
p73
I15
sS'[[Pumpkin Pie]]'
p74
I40
sS'[[Potato Feta Cake]]'
p75
I84
sS'[[Sugarcane]]'
p76
I64
sS'[[Cookie]]'
p77
I7
sS'[[Apple Juice]]'
p78
I23
sS'[[Pig Feed]]'
p79
I14
sS'[[Cotton]]'
p80
I68
sS'[[Feta Pie]]'
p81
I90
sS'[[Cheese]]'
p82
I28
sS'[[Chocolate Ice Cream]]'
p83
I16
sS'[[Chicken Feed]]'
p84
I60
sS'[[Corn Bread]]'
p85
I87
sS'[[Wool]]'
p86
I57
sS'[[Roasted Tomatoes]]'
p87
I19
sS'[[Berry Juice]]'
p88
I45
sS'[[Sweater]]'
p89
I80
sS'[[Blackberry Muffin]]'
p90
I66
sS'[[Cow Feed]]'
p91
I79
s.(dp0
S'[[Wheat]]'
p1
I3
sS'[[Casserole]]'
p2
I4
sS'[[Strawberry]]'
p3
I3
sS'[[Carrot Cake]]'
p4
I2
sS'[[Strawberry Cake]]'
p5
I1
sS'[[Cotton]]'
p6
I4
sS'[[Cotton Shirt]]'
p7
I5
sS'[[Tomato Juice]]'
p8
I0
sS'[[Spicy Pizza]]'
p9
I5
sS'[[Buttered Popcorn]]'
p10
I5
sS'[[Pancake]]'
p11
I4
sS'[[Vanilla Ice Cream]]'
p12
I4
sS'[[Chocolate Ice Cream]]'
p13
I5
sS'[[Chicken Feed]]'
p14
I5
sS'[[Cheesecake]]'
p15
I0
s.