(dp0
S'[[Pumpkin]]'
p1
I56
sS'[[Carrot Pie]]'
p2
I33
sS'[[Violet Dress]]'
p3
I39
sS'[[Strawberry Ice Cream]]'
p4
I49
sS'[[Raspberry Muffin]]'
p5
I60
sS'[[Woolly Chaps]]'
p6
I46
sS'[[Tomato Juice]]'
p7
I80
sS'[[Honey]]'
p8
I73
sS'[[Vanilla Ice Cream]]'
p9
I89
sS'[[Lure]]'
p10
I38
sS'[[Blackberry Jam]]'
p11
I2
sS'[[Tomato]]'
p12
I66
sS'[[Potato]]'
p13
I76
sS'[[Cheesecake]]'
p14
I19
sS'[[Fish Pie]]'
p15
I20
sS'[[Pancake]]'
p16
I5
sS'[[Popcorn]]'
p17
I14
sS'[[Goat Cheese]]'
p18
I64
sS'[[Potato Bread]]'
p19
I84
sS'[[Goat Feed]]'
p20
I41
sS'[[Red Berry Cake]]'
p21
I27
sS'[[Pizza]]'
p22
I65
sS'[[Syrup]]'
p23
I15
sS'[[Sheep Feed]]'
p24
I8
sS'[[Cherry Popsicle]]'
p25
I32
sS'[[Bacon and Eggs]]'
p26
I59
sS'[[Carrot Juice]]'
p27
I75
sS'[[Baked Potato]]'
p28
I7
sS'[[Milk]]'
p29
I1
sS'[[Apple Jam]]'
p30
I16
sS'[[Carrot]]'
p31
I72
sS'[[Blackberry]]'
p32
I70
sS'[[Cotton Shirt]]'
p33
I71
sS'[[Cream]]'
p34
I3
sS'[[Raspberry Jam]]'
p35
I43
sS'[[Cherry]]'
p36
I18
sS'[[Bread]]'
p37
I86
sS'[[Wheat]]'
p38
I11
sS'[[Casserole]]'
p39
I10
sS'[[Strawberry]]'
p40
I51
sS'[[Potato Feta Cake]]'
p41
I30
sS'[[Spicy Pizza]]'
p42
I68
sS'[[Indigo]]'
p43
I21
sS'[[Raspberry]]'
p44
I85
sS'[[Chocolate Cake]]'
p45
I9
sS'[[Apple Pie]]'
p46
I87
sS'[[Cacao]]'
p47
I4
sS'[[Blue Sweater]]'
p48
I35
sS'[[Carrot Cake]]'
p49
I63
sS'[[Egg]]'
p50
I81
sS'[[Strawberry Cake]]'
p51
I22
sS'[[Cherry Juice]]'
p52
I37
sS'[[Fish Burger]]'
p53
I79
sS'[[White Sugar]]'
p54
I54
sS'[[Buttered Popcorn]]'
p55
I47
sS'[[Cream Cake]]'
p56
I52
sS'[[Soybean]]'
p57
I62
sS'[[Brown Sugar]]'
p58
I78
sS'[[Blue Woolly Hat]]'
p59
I58
sS'[[Goat Milk]]'
p60
I26
sS'[[Hamburger]]'
p61
I17
sS'[[Cherry Jam]]'
p62
I88
sS"[[Shepherd's Pie]]"
p63
I34
sS'[[Apple]]'
p64
I82
sS'[[Butter]]'
p65
I90
sS'[[Bacon Pie]]'
p66
I57
sS'[[Chili Pepper]]'
p67
I44
sS'[[Corn]]'
p68
I74
sS'[[Fish Fillet]]'
p69
I40
sS'[[Chili Popcorn]]'
p70
I50
sS'[[Bacon]]'
p71
I13
sS'[[Cotton Fabric]]'
p72
I69
sS'[[Pumpkin Pie]]'
p73
I29
sS'[[Honey Popcorn]]'
p74
I36
sS'[[Sugarcane]]'
p75
I12
sS'[[Cookie]]'
p76
I53
sS'[[Apple Juice]]'
p77
I77
sS'[[Pig Feed]]'
p78
I25
sS'[[Cotton]]'
p79
I55
sS'[[Feta Pie]]'
p80
I31
sS'[[Cheese]]'
p81
I48
sS'[[Chocolate Ice Cream]]'
p82
I24
sS'[[Chicken Feed]]'
p83
I83
sS'[[Corn Bread]]'
p84
I42
sS'[[Honeycomb]]'
p85
I61
sS'[[Wool]]'
p86
I28
sS'[[Roasted Tomatoes]]'
p87
I45
sS'[[Berry Juice]]'
p88
I6
sS'[[Sweater]]'
p89
I23
sS'[[Blackberry Muffin]]'
p90
I67
sS'[[Cow Feed]]'
p91
I0
s.(dp0
S'[[Pumpkin]]'
p1
I1
sS'[[Woolly Chaps]]'
p2
I4
sS'[[Blackberry Jam]]'
p3
I3
sS'[[Strawberry Cake]]'
p4
I4
sS'[[Cherry Juice]]'
p5
I4
sS'[[Cotton Shirt]]'
p6
I5
sS'[[Sugarcane]]'
p7
I0
sS'[[Bacon Pie]]'
p8
I4
sS'[[Violet Dress]]'
p9
I2
sS'[[Corn Bread]]'
p10
I0
s.