(dp0
S'[[Pumpkin]]'
p1
I22
sS'[[Blackberry Jam]]'
p2
I40
sS'[[Violet Dress]]'
p3
I27
sS'[[Strawberry Ice Cream]]'
p4
I87
sS'[[Raspberry Muffin]]'
p5
I77
sS'[[Apple Pie]]'
p6
I3
sS'[[Tomato Juice]]'
p7
I67
sS'[[Carrot Cake]]'
p8
I12
sS'[[Vanilla Ice Cream]]'
p9
I5
sS'[[Lure]]'
p10
I37
sS'[[Carrot Pie]]'
p11
I44
sS'[[Tomato]]'
p12
I43
sS'[[Cherry Juice]]'
p13
I54
sS'[[Cheesecake]]'
p14
I8
sS'[[Fish Pie]]'
p15
I85
sS'[[Pancake]]'
p16
I70
sS'[[Popcorn]]'
p17
I1
sS'[[Goat Cheese]]'
p18
I24
sS'[[Potato Bread]]'
p19
I41
sS'[[Goat Feed]]'
p20
I21
sS'[[Red Berry Cake]]'
p21
I14
sS'[[Pizza]]'
p22
I89
sS'[[Syrup]]'
p23
I45
sS'[[Sheep Feed]]'
p24
I86
sS'[[Cherry Popsicle]]'
p25
I69
sS'[[Bacon and Eggs]]'
p26
I29
sS'[[Carrot Juice]]'
p27
I78
sS'[[Baked Potato]]'
p28
I75
sS'[[Milk]]'
p29
I15
sS'[[Apple Jam]]'
p30
I62
sS'[[Carrot]]'
p31
I7
sS'[[Blackberry]]'
p32
I60
sS'[[Cotton Shirt]]'
p33
I58
sS'[[Cream]]'
p34
I30
sS'[[Raspberry Jam]]'
p35
I26
sS'[[Cherry]]'
p36
I57
sS'[[Bread]]'
p37
I17
sS'[[Wheat]]'
p38
I36
sS'[[Casserole]]'
p39
I32
sS'[[Chili Pepper]]'
p40
I16
sS'[[Honey Popcorn]]'
p41
I88
sS'[[Honeycomb]]'
p42
I79
sS'[[Indigo]]'
p43
I23
sS'[[Raspberry]]'
p44
I34
sS'[[Chocolate Cake]]'
p45
I64
sS'[[Spicy Pizza]]'
p46
I2
sS'[[Cacao]]'
p47
I47
sS'[[Woolly Chaps]]'
p48
I82
sS'[[Honey]]'
p49
I11
sS'[[Egg]]'
p50
I33
sS'[[Strawberry Cake]]'
p51
I48
sS'[[Potato]]'
p52
I73
sS'[[Fish Burger]]'
p53
I90
sS'[[White Sugar]]'
p54
I49
sS'[[Buttered Popcorn]]'
p55
I74
sS'[[Cream Cake]]'
p56
I50
sS'[[Soybean]]'
p57
I53
sS'[[Apple]]'
p58
I4
sS'[[Blue Woolly Hat]]'
p59
I71
sS'[[Goat Milk]]'
p60
I39
sS'[[Hamburger]]'
p61
I66
sS'[[Cherry Jam]]'
p62
I72
sS"[[Shepherd's Pie]]"
p63
I83
sS'[[Brown Sugar]]'
p64
I65
sS'[[Butter]]'
p65
I31
sS'[[Bacon Pie]]'
p66
I46
sS'[[Strawberry]]'
p67
I80
sS'[[Pumpkin Pie]]'
p68
I63
sS'[[Corn]]'
p69
I68
sS'[[Fish Fillet]]'
p70
I6
sS'[[Chili Popcorn]]'
p71
I0
sS'[[Bacon]]'
p72
I18
sS'[[Cotton Fabric]]'
p73
I51
sS'[[Blue Sweater]]'
p74
I38
sS'[[Potato Feta Cake]]'
p75
I25
sS'[[Sugarcane]]'
p76
I28
sS'[[Cookie]]'
p77
I20
sS'[[Apple Juice]]'
p78
I56
sS'[[Pig Feed]]'
p79
I35
sS'[[Cotton]]'
p80
I13
sS'[[Feta Pie]]'
p81
I59
sS'[[Cheese]]'
p82
I19
sS'[[Chocolate Ice Cream]]'
p83
I61
sS'[[Chicken Feed]]'
p84
I42
sS'[[Corn Bread]]'
p85
I10
sS'[[Wool]]'
p86
I52
sS'[[Roasted Tomatoes]]'
p87
I9
sS'[[Berry Juice]]'
p88
I76
sS'[[Sweater]]'
p89
I84
sS'[[Blackberry Muffin]]'
p90
I55
sS'[[Cow Feed]]'
p91
I81
s.(dp0
S'[[Indigo]]'
p1
I4
sS'[[Cacao]]'
p2
I0
sS'[[Cherry Popsicle]]'
p3
I5
sS'[[Bacon and Eggs]]'
p4
I5
sS'[[Honey Popcorn]]'
p5
I4
sS'[[Carrot Juice]]'
p6
I5
sS'[[Baked Potato]]'
p7
I1
sS'[[Chili Popcorn]]'
p8
I3
sS'[[Butter]]'
p9
I2
sS'[[Bacon]]'
p10
I0
sS'[[Cheese]]'
p11
I1
sS'[[Lure]]'
p12
I0
s.