(dp0
S'[[Pumpkin]]'
p1
I38
sS'[[Blackberry Jam]]'
p2
I7
sS'[[Violet Dress]]'
p3
I28
sS'[[Strawberry Ice Cream]]'
p4
I73
sS'[[Raspberry Muffin]]'
p5
I52
sS'[[Apple Pie]]'
p6
I36
sS'[[Tomato Juice]]'
p7
I77
sS'[[Blue Sweater]]'
p8
I55
sS'[[Honey]]'
p9
I57
sS'[[Vanilla Ice Cream]]'
p10
I29
sS'[[Lure]]'
p11
I9
sS'[[Carrot Pie]]'
p12
I24
sS'[[Tomato]]'
p13
I0
sS'[[Potato]]'
p14
I21
sS'[[Cheesecake]]'
p15
I68
sS'[[Fish Pie]]'
p16
I15
sS'[[Pancake]]'
p17
I78
sS'[[Popcorn]]'
p18
I80
sS'[[Goat Cheese]]'
p19
I83
sS'[[Potato Bread]]'
p20
I13
sS'[[Goat Feed]]'
p21
I27
sS'[[Red Berry Cake]]'
p22
I62
sS'[[Pizza]]'
p23
I65
sS'[[Syrup]]'
p24
I35
sS'[[Sheep Feed]]'
p25
I72
sS'[[Cherry Popsicle]]'
p26
I20
sS'[[Bacon and Eggs]]'
p27
I40
sS'[[Carrot]]'
p28
I47
sS'[[Carrot Juice]]'
p29
I10
sS'[[Baked Potato]]'
p30
I39
sS'[[Milk]]'
p31
I1
sS'[[Apple Jam]]'
p32
I76
sS'[[Apple]]'
p33
I50
sS'[[Blackberry]]'
p34
I44
sS'[[Cotton Shirt]]'
p35
I45
sS'[[Cream]]'
p36
I59
sS'[[Raspberry Jam]]'
p37
I17
sS'[[Cherry]]'
p38
I75
sS'[[Bread]]'
p39
I46
sS'[[Wheat]]'
p40
I87
sS'[[Casserole]]'
p41
I43
sS'[[Strawberry]]'
p42
I2
sS'[[Honey Popcorn]]'
p43
I3
sS'[[Honeycomb]]'
p44
I66
sS'[[Indigo]]'
p45
I89
sS'[[Raspberry]]'
p46
I70
sS'[[Chocolate Cake]]'
p47
I61
sS'[[Spicy Pizza]]'
p48
I18
sS'[[Cacao]]'
p49
I48
sS'[[Woolly Chaps]]'
p50
I42
sS'[[Carrot Cake]]'
p51
I85
sS'[[Egg]]'
p52
I58
sS'[[Strawberry Cake]]'
p53
I26
sS'[[Cherry Juice]]'
p54
I33
sS'[[Fish Burger]]'
p55
I82
sS'[[White Sugar]]'
p56
I51
sS'[[Buttered Popcorn]]'
p57
I11
sS'[[Cream Cake]]'
p58
I64
sS'[[Soybean]]'
p59
I5
sS'[[Brown Sugar]]'
p60
I41
sS'[[Blue Woolly Hat]]'
p61
I63
sS'[[Goat Milk]]'
p62
I49
sS'[[Hamburger]]'
p63
I34
sS'[[Cherry Jam]]'
p64
I12
sS"[[Shepherd's Pie]]"
p65
I84
sS'[[Butter]]'
p66
I71
sS'[[Bacon Pie]]'
p67
I54
sS'[[Chili Pepper]]'
p68
I22
sS'[[Corn]]'
p69
I30
sS'[[Fish Fillet]]'
p70
I16
sS'[[Chili Popcorn]]'
p71
I8
sS'[[Bacon]]'
p72
I90
sS'[[Cotton Fabric]]'
p73
I79
sS'[[Pumpkin Pie]]'
p74
I74
sS'[[Potato Feta Cake]]'
p75
I25
sS'[[Sugarcane]]'
p76
I56
sS'[[Cookie]]'
p77
I88
sS'[[Apple Juice]]'
p78
I60
sS'[[Pig Feed]]'
p79
I37
sS'[[Cotton]]'
p80
I31
sS'[[Feta Pie]]'
p81
I86
sS'[[Cheese]]'
p82
I4
sS'[[Chocolate Ice Cream]]'
p83
I14
sS'[[Chicken Feed]]'
p84
I81
sS'[[Corn Bread]]'
p85
I6
sS'[[Wool]]'
p86
I67
sS'[[Roasted Tomatoes]]'
p87
I19
sS'[[Berry Juice]]'
p88
I53
sS'[[Sweater]]'
p89
I69
sS'[[Blackberry Muffin]]'
p90
I32
sS'[[Cow Feed]]'
p91
I23
s.(dp0
S'[[Tomato]]'
p1
I2
sS'[[Blue Sweater]]'
p2
I0
sS'[[Casserole]]'
p3
I3
sS'[[Cheesecake]]'
p4
I4
sS'[[Hamburger]]'
p5
I5
sS'[[Chili Popcorn]]'
p6
I4
sS'[[Baked Potato]]'
p7
I2
sS'[[Spicy Pizza]]'
p8
I1
sS'[[Fish Burger]]'
p9
I2
sS'[[Goat Cheese]]'
p10
I5
sS'[[Sugarcane]]'
p11
I5
sS'[[Soybean]]'
p12
I3
sS'[[Fish Fillet]]'
p13
I2
s.