(dp0
S'[[Pumpkin]]'
p1
I30
sS'[[Blackberry Jam]]'
p2
I46
sS'[[Violet Dress]]'
p3
I6
sS'[[Strawberry Ice Cream]]'
p4
I76
sS'[[Raspberry Muffin]]'
p5
I63
sS'[[Apple Pie]]'
p6
I23
sS'[[Tomato Juice]]'
p7
I20
sS'[[Carrot Cake]]'
p8
I79
sS'[[Vanilla Ice Cream]]'
p9
I1
sS'[[Lure]]'
p10
I5
sS'[[Carrot Pie]]'
p11
I53
sS'[[Tomato]]'
p12
I8
sS'[[Cherry Juice]]'
p13
I3
sS'[[Cheesecake]]'
p14
I32
sS'[[Fish Pie]]'
p15
I58
sS'[[Pancake]]'
p16
I62
sS'[[Popcorn]]'
p17
I68
sS'[[Goat Cheese]]'
p18
I9
sS'[[Potato Bread]]'
p19
I28
sS'[[Goat Feed]]'
p20
I71
sS'[[Red Berry Cake]]'
p21
I45
sS'[[Pizza]]'
p22
I81
sS'[[Syrup]]'
p23
I83
sS'[[Sheep Feed]]'
p24
I11
sS'[[Cherry Popsicle]]'
p25
I52
sS'[[Bacon and Eggs]]'
p26
I40
sS'[[Carrot Juice]]'
p27
I12
sS'[[Baked Potato]]'
p28
I2
sS'[[Milk]]'
p29
I72
sS'[[Apple Jam]]'
p30
I78
sS'[[Carrot]]'
p31
I73
sS'[[Blackberry]]'
p32
I74
sS'[[Cotton Shirt]]'
p33
I59
sS'[[Cream]]'
p34
I19
sS'[[Raspberry Jam]]'
p35
I84
sS'[[Cherry]]'
p36
I16
sS'[[Bread]]'
p37
I34
sS'[[Wheat]]'
p38
I15
sS'[[Casserole]]'
p39
I47
sS'[[Chili Pepper]]'
p40
I80
sS'[[Honey Popcorn]]'
p41
I86
sS'[[Honeycomb]]'
p42
I31
sS'[[Indigo]]'
p43
I67
sS'[[Raspberry]]'
p44
I13
sS'[[Chocolate Cake]]'
p45
I51
sS'[[Spicy Pizza]]'
p46
I60
sS'[[Cacao]]'
p47
I18
sS'[[Woolly Chaps]]'
p48
I77
sS'[[Honey]]'
p49
I43
sS'[[Egg]]'
p50
I44
sS'[[Strawberry Cake]]'
p51
I57
sS'[[Potato]]'
p52
I22
sS'[[Fish Burger]]'
p53
I75
sS'[[White Sugar]]'
p54
I0
sS'[[Buttered Popcorn]]'
p55
I64
sS'[[Cream Cake]]'
p56
I90
sS'[[Soybean]]'
p57
I10
sS'[[Apple]]'
p58
I70
sS'[[Blue Woolly Hat]]'
p59
I7
sS'[[Goat Milk]]'
p60
I14
sS'[[Hamburger]]'
p61
I24
sS'[[Cherry Jam]]'
p62
I48
sS"[[Shepherd's Pie]]"
p63
I69
sS'[[Brown Sugar]]'
p64
I54
sS'[[Butter]]'
p65
I17
sS'[[Bacon Pie]]'
p66
I42
sS'[[Strawberry]]'
p67
I89
sS'[[Pumpkin Pie]]'
p68
I35
sS'[[Corn]]'
p69
I82
sS'[[Fish Fillet]]'
p70
I29
sS'[[Chili Popcorn]]'
p71
I41
sS'[[Bacon]]'
p72
I21
sS'[[Cotton Fabric]]'
p73
I25
sS'[[Blue Sweater]]'
p74
I27
sS'[[Potato Feta Cake]]'
p75
I36
sS'[[Sugarcane]]'
p76
I37
sS'[[Cookie]]'
p77
I85
sS'[[Apple Juice]]'
p78
I65
sS'[[Pig Feed]]'
p79
I4
sS'[[Cotton]]'
p80
I61
sS'[[Feta Pie]]'
p81
I87
sS'[[Cheese]]'
p82
I38
sS'[[Chocolate Ice Cream]]'
p83
I33
sS'[[Chicken Feed]]'
p84
I88
sS'[[Corn Bread]]'
p85
I49
sS'[[Wool]]'
p86
I39
sS'[[Roasted Tomatoes]]'
p87
I55
sS'[[Berry Juice]]'
p88
I66
sS'[[Sweater]]'
p89
I50
sS'[[Blackberry Muffin]]'
p90
I26
sS'[[Cow Feed]]'
p91
I56
s.(dp0
S'[[Apple Pie]]'
p1
I5
sS'[[Woolly Chaps]]'
p2
I5
sS'[[Red Berry Cake]]'
p3
I4
sS'[[Bacon and Eggs]]'
p4
I1
sS'[[Potato Feta Cake]]'
p5
I4
sS'[[Egg]]'
p6
I0
sS'[[Honeycomb]]'
p7
I3
sS'[[Chocolate Cake]]'
p8
I5
sS'[[Cotton Fabric]]'
p9
I3
sS'[[Honey Popcorn]]'
p10
I4
s.