(dp0
S'[[Pumpkin]]'
p1
I54
sS'[[Blackberry Jam]]'
p2
I63
sS'[[Violet Dress]]'
p3
I18
sS'[[Strawberry Ice Cream]]'
p4
I31
sS'[[Raspberry Muffin]]'
p5
I20
sS'[[Apple Pie]]'
p6
I8
sS'[[Tomato Juice]]'
p7
I81
sS'[[Blue Sweater]]'
p8
I6
sS'[[Honey]]'
p9
I21
sS'[[Vanilla Ice Cream]]'
p10
I52
sS'[[Lure]]'
p11
I5
sS'[[Carrot Pie]]'
p12
I35
sS'[[Tomato]]'
p13
I76
sS'[[Potato]]'
p14
I27
sS'[[Cheesecake]]'
p15
I79
sS'[[Fish Pie]]'
p16
I41
sS'[[Pancake]]'
p17
I68
sS'[[Popcorn]]'
p18
I64
sS'[[Goat Cheese]]'
p19
I38
sS'[[Potato Bread]]'
p20
I56
sS'[[Goat Feed]]'
p21
I74
sS'[[Red Berry Cake]]'
p22
I83
sS'[[Pizza]]'
p23
I90
sS'[[Syrup]]'
p24
I33
sS'[[Sheep Feed]]'
p25
I85
sS'[[Cherry Popsicle]]'
p26
I14
sS'[[Bacon and Eggs]]'
p27
I67
sS'[[Carrot]]'
p28
I53
sS'[[Carrot Juice]]'
p29
I34
sS'[[Baked Potato]]'
p30
I48
sS'[[Milk]]'
p31
I29
sS'[[Apple Jam]]'
p32
I49
sS'[[Apple]]'
p33
I59
sS'[[Blackberry]]'
p34
I88
sS'[[Cotton Shirt]]'
p35
I30
sS'[[Cream]]'
p36
I7
sS'[[Raspberry Jam]]'
p37
I50
sS'[[Cherry]]'
p38
I71
sS'[[Bread]]'
p39
I62
sS'[[Wheat]]'
p40
I80
sS'[[Casserole]]'
p41
I19
sS'[[Strawberry]]'
p42
I66
sS'[[Honey Popcorn]]'
p43
I78
sS'[[Honeycomb]]'
p44
I89
sS'[[Indigo]]'
p45
I77
sS'[[Raspberry]]'
p46
I37
sS'[[Chocolate Cake]]'
p47
I42
sS'[[Spicy Pizza]]'
p48
I25
sS'[[Cacao]]'
p49
I75
sS'[[Woolly Chaps]]'
p50
I3
sS'[[Carrot Cake]]'
p51
I12
sS'[[Egg]]'
p52
I84
sS'[[Strawberry Cake]]'
p53
I23
sS'[[Cherry Juice]]'
p54
I55
sS'[[Fish Burger]]'
p55
I24
sS'[[White Sugar]]'
p56
I45
sS'[[Buttered Popcorn]]'
p57
I57
sS'[[Cream Cake]]'
p58
I39
sS'[[Soybean]]'
p59
I10
sS'[[Brown Sugar]]'
p60
I26
sS'[[Blue Woolly Hat]]'
p61
I61
sS'[[Goat Milk]]'
p62
I43
sS'[[Hamburger]]'
p63
I15
sS'[[Cherry Jam]]'
p64
I72
sS"[[Shepherd's Pie]]"
p65
I73
sS'[[Butter]]'
p66
I0
sS'[[Bacon Pie]]'
p67
I69
sS'[[Chili Pepper]]'
p68
I9
sS'[[Corn]]'
p69
I58
sS'[[Fish Fillet]]'
p70
I32
sS'[[Chili Popcorn]]'
p71
I16
sS'[[Bacon]]'
p72
I70
sS'[[Cotton Fabric]]'
p73
I36
sS'[[Pumpkin Pie]]'
p74
I1
sS'[[Potato Feta Cake]]'
p75
I47
sS'[[Sugarcane]]'
p76
I40
sS'[[Cookie]]'
p77
I17
sS'[[Apple Juice]]'
p78
I28
sS'[[Pig Feed]]'
p79
I13
sS'[[Cotton]]'
p80
I22
sS'[[Feta Pie]]'
p81
I46
sS'[[Cheese]]'
p82
I11
sS'[[Chocolate Ice Cream]]'
p83
I2
sS'[[Chicken Feed]]'
p84
I60
sS'[[Corn Bread]]'
p85
I44
sS'[[Wool]]'
p86
I87
sS'[[Roasted Tomatoes]]'
p87
I82
sS'[[Berry Juice]]'
p88
I65
sS'[[Sweater]]'
p89
I4
sS'[[Blackberry Muffin]]'
p90
I51
sS'[[Cow Feed]]'
p91
I86
s.(dp0
S'[[Tomato]]'
p1
I0
sS'[[Chili Pepper]]'
p2
I1
sS'[[Cherry Popsicle]]'
p3
I2
sS'[[Bacon and Eggs]]'
p4
I5
sS'[[Honey Popcorn]]'
p5
I4
sS'[[Hamburger]]'
p6
I3
sS'[[Chili Popcorn]]'
p7
I4
sS'[[Baked Potato]]'
p8
I3
sS'[[Carrot Juice]]'
p9
I5
sS'[[Raspberry]]'
p10
I0
sS'[[Sugarcane]]'
p11
I1
sS'[[Violet Dress]]'
p12
I3
s.