(dp0
S'[[Pumpkin]]'
p1
I19
sS'[[Blackberry Jam]]'
p2
I26
sS'[[Violet Dress]]'
p3
I16
sS'[[Strawberry Ice Cream]]'
p4
I27
sS'[[Raspberry Muffin]]'
p5
I80
sS'[[Apple Pie]]'
p6
I88
sS'[[Tomato Juice]]'
p7
I22
sS'[[Blue Sweater]]'
p8
I89
sS'[[Honey]]'
p9
I10
sS'[[Vanilla Ice Cream]]'
p10
I38
sS'[[Lure]]'
p11
I60
sS'[[Carrot Pie]]'
p12
I87
sS'[[Tomato]]'
p13
I65
sS'[[Potato]]'
p14
I74
sS'[[Cheesecake]]'
p15
I4
sS'[[Fish Pie]]'
p16
I51
sS'[[Pancake]]'
p17
I43
sS'[[Popcorn]]'
p18
I17
sS'[[Goat Cheese]]'
p19
I79
sS'[[Potato Bread]]'
p20
I29
sS'[[Goat Feed]]'
p21
I20
sS'[[Red Berry Cake]]'
p22
I46
sS'[[Pizza]]'
p23
I68
sS'[[Syrup]]'
p24
I73
sS'[[Sheep Feed]]'
p25
I0
sS'[[Cherry Popsicle]]'
p26
I21
sS'[[Bacon and Eggs]]'
p27
I24
sS'[[Carrot]]'
p28
I37
sS'[[Carrot Juice]]'
p29
I57
sS'[[Baked Potato]]'
p30
I31
sS'[[Milk]]'
p31
I78
sS'[[Apple Jam]]'
p32
I52
sS'[[Apple]]'
p33
I84
sS'[[Blackberry]]'
p34
I48
sS'[[Cotton Shirt]]'
p35
I66
sS'[[Cream]]'
p36
I33
sS'[[Raspberry Jam]]'
p37
I12
sS'[[Cherry]]'
p38
I59
sS'[[Bread]]'
p39
I15
sS'[[Wheat]]'
p40
I53
sS'[[Casserole]]'
p41
I85
sS'[[Strawberry]]'
p42
I5
sS'[[Honey Popcorn]]'
p43
I83
sS'[[Honeycomb]]'
p44
I30
sS'[[Indigo]]'
p45
I9
sS'[[Raspberry]]'
p46
I14
sS'[[Chocolate Cake]]'
p47
I67
sS'[[Spicy Pizza]]'
p48
I64
sS'[[Cacao]]'
p49
I72
sS'[[Woolly Chaps]]'
p50
I1
sS'[[Carrot Cake]]'
p51
I77
sS'[[Egg]]'
p52
I75
sS'[[Strawberry Cake]]'
p53
I55
sS'[[Cherry Juice]]'
p54
I2
sS'[[Fish Burger]]'
p55
I45
sS'[[White Sugar]]'
p56
I41
sS'[[Buttered Popcorn]]'
p57
I69
sS'[[Cream Cake]]'
p58
I6
sS'[[Soybean]]'
p59
I32
sS'[[Brown Sugar]]'
p60
I61
sS'[[Blue Woolly Hat]]'
p61
I3
sS'[[Goat Milk]]'
p62
I39
sS'[[Hamburger]]'
p63
I36
sS'[[Cherry Jam]]'
p64
I28
sS"[[Shepherd's Pie]]"
p65
I49
sS'[[Butter]]'
p66
I7
sS'[[Bacon Pie]]'
p67
I63
sS'[[Chili Pepper]]'
p68
I8
sS'[[Corn]]'
p69
I40
sS'[[Fish Fillet]]'
p70
I56
sS'[[Chili Popcorn]]'
p71
I50
sS'[[Bacon]]'
p72
I82
sS'[[Cotton Fabric]]'
p73
I34
sS'[[Pumpkin Pie]]'
p74
I70
sS'[[Potato Feta Cake]]'
p75
I86
sS'[[Sugarcane]]'
p76
I25
sS'[[Cookie]]'
p77
I76
sS'[[Apple Juice]]'
p78
I71
sS'[[Pig Feed]]'
p79
I13
sS'[[Cotton]]'
p80
I47
sS'[[Feta Pie]]'
p81
I18
sS'[[Cheese]]'
p82
I42
sS'[[Chocolate Ice Cream]]'
p83
I35
sS'[[Chicken Feed]]'
p84
I90
sS'[[Corn Bread]]'
p85
I44
sS'[[Wool]]'
p86
I58
sS'[[Roasted Tomatoes]]'
p87
I62
sS'[[Berry Juice]]'
p88
I81
sS'[[Sweater]]'
p89
I23
sS'[[Blackberry Muffin]]'
p90
I54
sS'[[Cow Feed]]'
p91
I11
s.(dp0
S'[[Wheat]]'
p1
I0
sS"[[Shepherd's Pie]]"
p2
I5
sS'[[Strawberry]]'
p3
I0
sS'[[Woolly Chaps]]'
p4
I2
sS'[[Carrot Cake]]'
p5
I2
sS'[[Bacon and Eggs]]'
p6
I5
sS'[[Potato Feta Cake]]'
p7
I5
sS'[[Carrot]]'
p8
I4
sS'[[Honeycomb]]'
p9
I0
sS'[[Chocolate Ice Cream]]'
p10
I3
sS'[[Potato Bread]]'
p11
I5
sS'[[Spicy Pizza]]'
p12
I3
s.