(dp0
S'[[Pumpkin]]'
p1
I49
sS'[[Blackberry Jam]]'
p2
I82
sS'[[Violet Dress]]'
p3
I6
sS'[[Strawberry Ice Cream]]'
p4
I14
sS'[[Raspberry Muffin]]'
p5
I56
sS'[[Apple Pie]]'
p6
I36
sS'[[Tomato Juice]]'
p7
I68
sS'[[Carrot Cake]]'
p8
I69
sS'[[Vanilla Ice Cream]]'
p9
I23
sS'[[Lure]]'
p10
I76
sS'[[Carrot Pie]]'
p11
I24
sS'[[Tomato]]'
p12
I10
sS'[[Cherry Juice]]'
p13
I65
sS'[[Cheesecake]]'
p14
I44
sS'[[Fish Pie]]'
p15
I67
sS'[[Pancake]]'
p16
I19
sS'[[Popcorn]]'
p17
I11
sS'[[Goat Cheese]]'
p18
I21
sS'[[Potato Bread]]'
p19
I58
sS'[[Goat Feed]]'
p20
I79
sS'[[Red Berry Cake]]'
p21
I16
sS'[[Pizza]]'
p22
I17
sS'[[Syrup]]'
p23
I38
sS'[[Sheep Feed]]'
p24
I30
sS'[[Cherry Popsicle]]'
p25
I73
sS'[[Bacon and Eggs]]'
p26
I25
sS'[[Carrot Juice]]'
p27
I43
sS'[[Baked Potato]]'
p28
I4
sS'[[Milk]]'
p29
I66
sS'[[Apple Jam]]'
p30
I51
sS'[[Carrot]]'
p31
I88
sS'[[Blackberry]]'
p32
I83
sS'[[Cotton Shirt]]'
p33
I78
sS'[[Cream]]'
p34
I62
sS'[[Raspberry Jam]]'
p35
I5
sS'[[Cherry]]'
p36
I61
sS'[[Bread]]'
p37
I86
sS'[[Wheat]]'
p38
I85
sS'[[Casserole]]'
p39
I80
sS'[[Chili Pepper]]'
p40
I9
sS'[[Honey Popcorn]]'
p41
I59
sS'[[Honeycomb]]'
p42
I55
sS'[[Indigo]]'
p43
I57
sS'[[Raspberry]]'
p44
I64
sS'[[Chocolate Cake]]'
p45
I54
sS'[[Spicy Pizza]]'
p46
I35
sS'[[Cacao]]'
p47
I27
sS'[[Woolly Chaps]]'
p48
I74
sS'[[Honey]]'
p49
I26
sS'[[Egg]]'
p50
I87
sS'[[Strawberry Cake]]'
p51
I77
sS'[[Potato]]'
p52
I8
sS'[[Fish Burger]]'
p53
I37
sS'[[White Sugar]]'
p54
I29
sS'[[Buttered Popcorn]]'
p55
I81
sS'[[Cream Cake]]'
p56
I42
sS'[[Soybean]]'
p57
I31
sS'[[Apple]]'
p58
I33
sS'[[Blue Woolly Hat]]'
p59
I15
sS'[[Goat Milk]]'
p60
I52
sS'[[Hamburger]]'
p61
I0
sS'[[Cherry Jam]]'
p62
I47
sS"[[Shepherd's Pie]]"
p63
I72
sS'[[Brown Sugar]]'
p64
I75
sS'[[Butter]]'
p65
I40
sS'[[Bacon Pie]]'
p66
I7
sS'[[Strawberry]]'
p67
I2
sS'[[Pumpkin Pie]]'
p68
I32
sS'[[Corn]]'
p69
I28
sS'[[Fish Fillet]]'
p70
I53
sS'[[Chili Popcorn]]'
p71
I39
sS'[[Sugarcane]]'
p72
I71
sS'[[Cotton Fabric]]'
p73
I22
sS'[[Blue Sweater]]'
p74
I12
sS'[[Potato Feta Cake]]'
p75
I70
sS'[[Cookie]]'
p76
I34
sS'[[Apple Juice]]'
p77
I60
sS'[[Pig Feed]]'
p78
I89
sS'[[Cotton]]'
p79
I3
sS'[[Feta Pie]]'
p80
I45
sS'[[Cheese]]'
p81
I20
sS'[[Chocolate Ice Cream]]'
p82
I63
sS'[[Bacon]]'
p83
I50
sS'[[Chicken Feed]]'
p84
I18
sS'[[Corn Bread]]'
p85
I13
sS'[[Wool]]'
p86
I48
sS'[[Roasted Tomatoes]]'
p87
I84
sS'[[Berry Juice]]'
p88
I1
sS'[[Sweater]]'
p89
I46
sS'[[Blackberry Muffin]]'
p90
I41
sS'[[Cow Feed]]'
p91
I90
s.(dp0
S'[[Honey Popcorn]]'
p1
I3
sS'[[Chili Pepper]]'
p2
I1
sS'[[Carrot Cake]]'
p3
I4
sS'[[Cookie]]'
p4
I0
sS'[[Apple Pie]]'
p5
I3
sS'[[Hamburger]]'
p6
I5
sS'[[Cotton Shirt]]'
p7
I3
sS'[[Fish Burger]]'
p8
I0
sS'[[Vanilla Ice Cream]]'
p9
I1
sS'[[Bacon]]'
p10
I5
sS'[[Bacon Pie]]'
p11
I2
sS'[[Bread]]'
p12
I0
sS'[[Violet Dress]]'
p13
I3
s.