(dp0
S'[[Pumpkin]]'
p1
I23
sS'[[Blackberry Jam]]'
p2
I65
sS'[[Violet Dress]]'
p3
I50
sS'[[Strawberry Ice Cream]]'
p4
I29
sS'[[Raspberry Muffin]]'
p5
I52
sS'[[Apple Pie]]'
p6
I68
sS'[[Tomato Juice]]'
p7
I74
sS'[[Carrot Cake]]'
p8
I49
sS'[[Vanilla Ice Cream]]'
p9
I69
sS'[[Lure]]'
p10
I9
sS'[[Carrot Pie]]'
p11
I6
sS'[[Tomato]]'
p12
I72
sS'[[Cherry Juice]]'
p13
I28
sS'[[Cheesecake]]'
p14
I11
sS'[[Fish Pie]]'
p15
I43
sS'[[Pancake]]'
p16
I45
sS'[[Popcorn]]'
p17
I3
sS'[[Goat Cheese]]'
p18
I14
sS'[[Potato Bread]]'
p19
I24
sS'[[Goat Feed]]'
p20
I40
sS'[[Red Berry Cake]]'
p21
I73
sS'[[Pizza]]'
p22
I79
sS'[[Syrup]]'
p23
I71
sS'[[Sheep Feed]]'
p24
I54
sS'[[Cherry Popsicle]]'
p25
I70
sS'[[Bacon and Eggs]]'
p26
I33
sS'[[Carrot Juice]]'
p27
I58
sS'[[Baked Potato]]'
p28
I61
sS'[[Milk]]'
p29
I34
sS'[[Apple Jam]]'
p30
I66
sS'[[Carrot]]'
p31
I32
sS'[[Blackberry]]'
p32
I48
sS'[[Cotton Shirt]]'
p33
I44
sS'[[Cream]]'
p34
I78
sS'[[Raspberry Jam]]'
p35
I56
sS'[[Cherry]]'
p36
I59
sS'[[Bread]]'
p37
I90
sS'[[Wheat]]'
p38
I1
sS'[[Casserole]]'
p39
I16
sS'[[Chili Pepper]]'
p40
I55
sS'[[Honey Popcorn]]'
p41
I82
sS'[[Honeycomb]]'
p42
I53
sS'[[Indigo]]'
p43
I5
sS'[[Raspberry]]'
p44
I89
sS'[[Chocolate Cake]]'
p45
I64
sS'[[Spicy Pizza]]'
p46
I2
sS'[[Cacao]]'
p47
I76
sS'[[Woolly Chaps]]'
p48
I57
sS'[[Honey]]'
p49
I13
sS'[[Egg]]'
p50
I67
sS'[[Strawberry Cake]]'
p51
I77
sS'[[Potato]]'
p52
I8
sS'[[Fish Burger]]'
p53
I63
sS'[[White Sugar]]'
p54
I81
sS'[[Buttered Popcorn]]'
p55
I22
sS'[[Cream Cake]]'
p56
I36
sS'[[Soybean]]'
p57
I7
sS'[[Apple]]'
p58
I15
sS'[[Blue Woolly Hat]]'
p59
I31
sS'[[Goat Milk]]'
p60
I37
sS'[[Hamburger]]'
p61
I84
sS'[[Cherry Jam]]'
p62
I18
sS"[[Shepherd's Pie]]"
p63
I60
sS'[[Brown Sugar]]'
p64
I19
sS'[[Butter]]'
p65
I17
sS'[[Bacon Pie]]'
p66
I41
sS'[[Strawberry]]'
p67
I42
sS'[[Pumpkin Pie]]'
p68
I21
sS'[[Corn]]'
p69
I86
sS'[[Fish Fillet]]'
p70
I39
sS'[[Chili Popcorn]]'
p71
I0
sS'[[Sugarcane]]'
p72
I62
sS'[[Cotton Fabric]]'
p73
I20
sS'[[Blue Sweater]]'
p74
I38
sS'[[Potato Feta Cake]]'
p75
I75
sS'[[Cookie]]'
p76
I46
sS'[[Apple Juice]]'
p77
I51
sS'[[Pig Feed]]'
p78
I30
sS'[[Cotton]]'
p79
I83
sS'[[Feta Pie]]'
p80
I12
sS'[[Cheese]]'
p81
I25
sS'[[Chocolate Ice Cream]]'
p82
I85
sS'[[Bacon]]'
p83
I88
sS'[[Chicken Feed]]'
p84
I4
sS'[[Corn Bread]]'
p85
I10
sS'[[Wool]]'
p86
I87
sS'[[Roasted Tomatoes]]'
p87
I35
sS'[[Berry Juice]]'
p88
I47
sS'[[Sweater]]'
p89
I80
sS'[[Blackberry Muffin]]'
p90
I27
sS'[[Cow Feed]]'
p91
I26
s.(dp0
S'[[Cheesecake]]'
p1
I1
sS'[[Woolly Chaps]]'
p2
I2
sS'[[Strawberry Cake]]'
p3
I5
sS'[[Apple Pie]]'
p4
I1
sS'[[Cookie]]'
p5
I1
sS'[[Baked Potato]]'
p6
I4
sS'[[Spicy Pizza]]'
p7
I1
sS'[[Pancake]]'
p8
I4
sS'[[Potato Bread]]'
p9
I5
sS'[[Bacon and Eggs]]'
p10
I3
sS'[[Strawberry]]'
p11
I1
s.