(dp0
S'[[Pumpkin]]'
p1
I46
sS'[[Blackberry Jam]]'
p2
I50
sS'[[Violet Dress]]'
p3
I38
sS'[[Strawberry Ice Cream]]'
p4
I77
sS'[[Raspberry Muffin]]'
p5
I44
sS'[[Apple Pie]]'
p6
I2
sS'[[Tomato Juice]]'
p7
I88
sS'[[Carrot Cake]]'
p8
I58
sS'[[Vanilla Ice Cream]]'
p9
I40
sS'[[Lure]]'
p10
I23
sS'[[Carrot Pie]]'
p11
I10
sS'[[Tomato]]'
p12
I72
sS'[[Cherry Juice]]'
p13
I70
sS'[[Cheesecake]]'
p14
I86
sS'[[Fish Pie]]'
p15
I87
sS'[[Pancake]]'
p16
I35
sS'[[Popcorn]]'
p17
I29
sS'[[Goat Cheese]]'
p18
I16
sS'[[Potato Bread]]'
p19
I27
sS'[[Goat Feed]]'
p20
I78
sS'[[Red Berry Cake]]'
p21
I15
sS'[[Pizza]]'
p22
I59
sS'[[Syrup]]'
p23
I13
sS'[[Sheep Feed]]'
p24
I28
sS'[[Cherry Popsicle]]'
p25
I51
sS'[[Bacon and Eggs]]'
p26
I56
sS'[[Carrot Juice]]'
p27
I30
sS'[[Baked Potato]]'
p28
I34
sS'[[Milk]]'
p29
I74
sS'[[Apple Jam]]'
p30
I24
sS'[[Carrot]]'
p31
I90
sS'[[Blackberry]]'
p32
I69
sS'[[Cotton Shirt]]'
p33
I12
sS'[[Cream]]'
p34
I6
sS'[[Raspberry Jam]]'
p35
I9
sS'[[Cherry]]'
p36
I0
sS'[[Bread]]'
p37
I33
sS'[[Wheat]]'
p38
I42
sS'[[Casserole]]'
p39
I89
sS'[[Chili Pepper]]'
p40
I64
sS'[[Honey Popcorn]]'
p41
I5
sS'[[Honeycomb]]'
p42
I82
sS'[[Indigo]]'
p43
I62
sS'[[Raspberry]]'
p44
I85
sS'[[Chocolate Cake]]'
p45
I52
sS'[[Spicy Pizza]]'
p46
I20
sS'[[Cacao]]'
p47
I32
sS'[[Woolly Chaps]]'
p48
I22
sS'[[Honey]]'
p49
I73
sS'[[Egg]]'
p50
I11
sS'[[Strawberry Cake]]'
p51
I49
sS'[[Potato]]'
p52
I79
sS'[[Fish Burger]]'
p53
I37
sS'[[White Sugar]]'
p54
I75
sS'[[Buttered Popcorn]]'
p55
I84
sS'[[Cream Cake]]'
p56
I65
sS'[[Soybean]]'
p57
I81
sS'[[Apple]]'
p58
I61
sS'[[Blue Woolly Hat]]'
p59
I1
sS'[[Goat Milk]]'
p60
I67
sS'[[Hamburger]]'
p61
I14
sS'[[Cherry Jam]]'
p62
I57
sS"[[Shepherd's Pie]]"
p63
I60
sS'[[Brown Sugar]]'
p64
I41
sS'[[Butter]]'
p65
I71
sS'[[Bacon Pie]]'
p66
I66
sS'[[Strawberry]]'
p67
I31
sS'[[Pumpkin Pie]]'
p68
I39
sS'[[Corn]]'
p69
I83
sS'[[Fish Fillet]]'
p70
I55
sS'[[Chili Popcorn]]'
p71
I3
sS'[[Sugarcane]]'
p72
I7
sS'[[Cotton Fabric]]'
p73
I18
sS'[[Blue Sweater]]'
p74
I47
sS'[[Potato Feta Cake]]'
p75
I19
sS'[[Cookie]]'
p76
I54
sS'[[Apple Juice]]'
p77
I68
sS'[[Pig Feed]]'
p78
I17
sS'[[Cotton]]'
p79
I53
sS'[[Feta Pie]]'
p80
I4
sS'[[Cheese]]'
p81
I25
sS'[[Chocolate Ice Cream]]'
p82
I76
sS'[[Bacon]]'
p83
I45
sS'[[Chicken Feed]]'
p84
I63
sS'[[Corn Bread]]'
p85
I80
sS'[[Wool]]'
p86
I48
sS'[[Roasted Tomatoes]]'
p87
I8
sS'[[Berry Juice]]'
p88
I21
sS'[[Sweater]]'
p89
I26
sS'[[Blackberry Muffin]]'
p90
I43
sS'[[Cow Feed]]'
p91
I36
s.(dp0
S'[[Pumpkin Pie]]'
p1
I4
sS'[[Woolly Chaps]]'
p2
I4
sS'[[Blackberry Jam]]'
p3
I3
sS'[[Strawberry Cake]]'
p4
I4
sS'[[Cotton Shirt]]'
p5
I2
sS'[[Vanilla Ice Cream]]'
p6
I2
sS'[[Cheese]]'
p7
I1
sS'[[Buttered Popcorn]]'
p8
I5
sS'[[Syrup]]'
p9
I5
sS'[[Corn Bread]]'
p10
I0
sS'[[Violet Dress]]'
p11
I2
s.