(dp0
S'[[Pumpkin]]'
p1
I82
sS'[[Carrot Pie]]'
p2
I71
sS'[[Violet Dress]]'
p3
I6
sS'[[Strawberry Ice Cream]]'
p4
I22
sS'[[Raspberry Muffin]]'
p5
I38
sS'[[Apple Pie]]'
p6
I37
sS'[[Tomato Juice]]'
p7
I47
sS'[[Blue Sweater]]'
p8
I2
sS'[[Carrot Cake]]'
p9
I50
sS'[[Vanilla Ice Cream]]'
p10
I84
sS'[[Lure]]'
p11
I65
sS'[[Blackberry Jam]]'
p12
I55
sS'[[Tomato]]'
p13
I58
sS'[[Cherry Juice]]'
p14
I49
sS'[[Cheesecake]]'
p15
I9
sS'[[Fish Pie]]'
p16
I45
sS'[[Pancake]]'
p17
I15
sS'[[Popcorn]]'
p18
I17
sS'[[Goat Cheese]]'
p19
I87
sS'[[Potato Bread]]'
p20
I20
sS'[[Goat Feed]]'
p21
I67
sS'[[Red Berry Cake]]'
p22
I36
sS'[[Pizza]]'
p23
I69
sS'[[Syrup]]'
p24
I10
sS'[[Sheep Feed]]'
p25
I39
sS'[[Cherry Popsicle]]'
p26
I75
sS'[[Bacon and Eggs]]'
p27
I80
sS'[[Carrot]]'
p28
I73
sS'[[Carrot Juice]]'
p29
I62
sS'[[Baked Potato]]'
p30
I64
sS'[[Milk]]'
p31
I29
sS'[[Apple Jam]]'
p32
I52
sS'[[Apple]]'
p33
I8
sS'[[Blackberry]]'
p34
I0
sS'[[Cotton Shirt]]'
p35
I18
sS'[[Cream]]'
p36
I1
sS'[[Raspberry Jam]]'
p37
I51
sS'[[Cherry]]'
p38
I19
sS'[[Bread]]'
p39
I77
sS'[[Wheat]]'
p40
I57
sS'[[Casserole]]'
p41
I7
sS'[[Strawberry]]'
p42
I26
sS'[[Honey Popcorn]]'
p43
I78
sS'[[Honeycomb]]'
p44
I54
sS'[[Indigo]]'
p45
I34
sS'[[Raspberry]]'
p46
I44
sS'[[Chocolate Cake]]'
p47
I53
sS'[[Spicy Pizza]]'
p48
I41
sS'[[Cacao]]'
p49
I90
sS'[[Woolly Chaps]]'
p50
I25
sS'[[Honey]]'
p51
I14
sS'[[Egg]]'
p52
I46
sS'[[Strawberry Cake]]'
p53
I76
sS'[[Potato]]'
p54
I11
sS'[[Fish Burger]]'
p55
I43
sS'[[White Sugar]]'
p56
I13
sS'[[Buttered Popcorn]]'
p57
I70
sS'[[Cream Cake]]'
p58
I27
sS'[[Soybean]]'
p59
I83
sS'[[Brown Sugar]]'
p60
I72
sS'[[Blue Woolly Hat]]'
p61
I68
sS'[[Goat Milk]]'
p62
I79
sS'[[Hamburger]]'
p63
I5
sS'[[Cherry Jam]]'
p64
I48
sS"[[Shepherd's Pie]]"
p65
I23
sS'[[Butter]]'
p66
I33
sS'[[Bacon Pie]]'
p67
I66
sS'[[Chili Pepper]]'
p68
I42
sS'[[Corn]]'
p69
I3
sS'[[Fish Fillet]]'
p70
I28
sS'[[Chili Popcorn]]'
p71
I63
sS'[[Bacon]]'
p72
I81
sS'[[Cotton Fabric]]'
p73
I60
sS'[[Pumpkin Pie]]'
p74
I12
sS'[[Potato Feta Cake]]'
p75
I61
sS'[[Sugarcane]]'
p76
I30
sS'[[Cookie]]'
p77
I86
sS'[[Apple Juice]]'
p78
I21
sS'[[Pig Feed]]'
p79
I32
sS'[[Cotton]]'
p80
I56
sS'[[Feta Pie]]'
p81
I89
sS'[[Cheese]]'
p82
I31
sS'[[Chocolate Ice Cream]]'
p83
I74
sS'[[Chicken Feed]]'
p84
I35
sS'[[Corn Bread]]'
p85
I4
sS'[[Wool]]'
p86
I40
sS'[[Roasted Tomatoes]]'
p87
I88
sS'[[Berry Juice]]'
p88
I24
sS'[[Sweater]]'
p89
I59
sS'[[Blackberry Muffin]]'
p90
I16
sS'[[Cow Feed]]'
p91
I85
s.(dp0
S'[[Pig Feed]]'
p1
I1
sS'[[Blue Sweater]]'
p2
I5
sS'[[Cheesecake]]'
p3
I2
sS'[[Woolly Chaps]]'
p4
I5
sS'[[Carrot Pie]]'
p5
I5
sS'[[Brown Sugar]]'
p6
I0
sS'[[Fish Burger]]'
p7
I2
sS'[[Vanilla Ice Cream]]'
p8
I2
sS'[[Lure]]'
p9
I1
sS'[[Blackberry Jam]]'
p10
I3
sS'[[Cherry]]'
p11
I4
sS'[[Bacon Pie]]'
p12
I5
sS'[[Apple]]'
p13
I0
s.