(dp0
S'[[Carrot]]'
p1
I41
sS'[[Apple Pie]]'
p2
I13
sS'[[Cacao]]'
p3
I86
sS'[[Woolly Chaps]]'
p4
I36
sS'[[Carrot Cake]]'
p5
I20
sS'[[Blackberry Jam]]'
p6
I85
sS'[[Strawberry Cake]]'
p7
I10
sS'[[Cherry Juice]]'
p8
I24
sS'[[Fish Burger]]'
p9
I31
sS'[[Tomato Juice]]'
p10
I0
sS'[[Buttered Popcorn]]'
p11
I33
sS'[[Cream Cake]]'
p12
I8
sS'[[Violet Dress]]'
p13
I79
sS'[[Soybean]]'
p14
I87
sS'[[Apple]]'
p15
I22
sS'[[Strawberry Ice Cream]]'
p16
I28
sS'[[Raspberry Muffin]]'
p17
I55
sS'[[Blue Woolly Hat]]'
p18
I17
sS'[[Goat Milk]]'
p19
I39
sS'[[Hamburger]]'
p20
I16
sS'[[White Sugar]]'
p21
I56
sS'[[Cherry Jam]]'
p22
I83
sS'[[Vanilla Ice Cream]]'
p23
I72
sS'[[Lure]]'
p24
I37
sS'[[Carrot Pie]]'
p25
I48
sS"[[Shepherd's Pie]]"
p26
I35
sS'[[Milk]]'
p27
I67
sS'[[Tomato]]'
p28
I50
sS'[[Potato]]'
p29
I59
sS'[[Cheesecake]]'
p30
I42
sS'[[Fish Pie]]'
p31
I34
sS'[[Butter]]'
p32
I15
sS'[[Pancake]]'
p33
I6
sS'[[Bacon Pie]]'
p34
I18
sS'[[Chili Pepper]]'
p35
I58
sS'[[Pumpkin Pie]]'
p36
I80
sS'[[Corn]]'
p37
I30
sS'[[Popcorn]]'
p38
I78
sS'[[Fish Fillet]]'
p39
I21
sS'[[Egg]]'
p40
I14
sS'[[Chili Popcorn]]'
p41
I29
sS'[[Honey]]'
p42
I81
sS'[[Goat Cheese]]'
p43
I70
sS'[[Bacon]]'
p44
I82
sS'[[Cotton Fabric]]'
p45
I54
sS'[[Potato Bread]]'
p46
I90
sS'[[Goat Feed]]'
p47
I4
sS'[[Blue Sweater]]'
p48
I38
sS'[[Honey Popcorn]]'
p49
I63
sS'[[Red Berry Cake]]'
p50
I32
sS'[[Cookie]]'
p51
I9
sS'[[Pizza]]'
p52
I43
sS'[[Syrup]]'
p53
I49
sS'[[Pig Feed]]'
p54
I51
sS'[[Sheep Feed]]'
p55
I27
sS'[[Apple Juice]]'
p56
I66
sS'[[Cherry Popsicle]]'
p57
I44
sS'[[Bacon and Eggs]]'
p58
I73
sS'[[Cotton]]'
p59
I25
sS'[[Feta Pie]]'
p60
I61
sS'[[Carrot Juice]]'
p61
I89
sS'[[Baked Potato]]'
p62
I60
sS'[[Raspberry]]'
p63
I68
sS'[[Cheese]]'
p64
I23
sS'[[Chocolate Ice Cream]]'
p65
I69
sS'[[Apple Jam]]'
p66
I84
sS'[[Chicken Feed]]'
p67
I1
sS'[[Pumpkin]]'
p68
I52
sS'[[Brown Sugar]]'
p69
I12
sS'[[Blackberry]]'
p70
I77
sS'[[Corn Bread]]'
p71
I3
sS'[[Cotton Shirt]]'
p72
I74
sS'[[Honeycomb]]'
p73
I7
sS'[[Wool]]'
p74
I53
sS'[[Raspberry Jam]]'
p75
I65
sS'[[Cherry]]'
p76
I45
sS'[[Bread]]'
p77
I11
sS'[[Wheat]]'
p78
I2
sS'[[Casserole]]'
p79
I40
sS'[[Strawberry]]'
p80
I47
sS'[[Roasted Tomatoes]]'
p81
I5
sS'[[Potato Feta Cake]]'
p82
I88
sS'[[Sugarcane]]'
p83
I62
sS'[[Berry Juice]]'
p84
I75
sS'[[Indigo]]'
p85
I26
sS'[[Cream]]'
p86
I64
sS'[[Sweater]]'
p87
I76
sS'[[Blackberry Muffin]]'
p88
I46
sS'[[Chocolate Cake]]'
p89
I19
sS'[[Cow Feed]]'
p90
I71
sS'[[Spicy Pizza]]'
p91
I57
s.(dp0
S'[[Pumpkin]]'
p1
I0
sS'[[Popcorn]]'
p2
I4
sS'[[Roasted Tomatoes]]'
p3
I5
sS'[[Carrot Cake]]'
p4
I1
sS'[[Blackberry]]'
p5
I0
sS'[[Apple Pie]]'
p6
I5
sS'[[Baked Potato]]'
p7
I4
sS'[[Raspberry]]'
p8
I5
sS'[[Chocolate Ice Cream]]'
p9
I5
sS'[[Potato Bread]]'
p10
I3
sS'[[Violet Dress]]'
p11
I4
s.