(dp0
S'[[Pumpkin]]'
p1
I12
sS'[[Blackberry Jam]]'
p2
I51
sS'[[Violet Dress]]'
p3
I69
sS'[[Strawberry Ice Cream]]'
p4
I18
sS'[[Raspberry Muffin]]'
p5
I61
sS'[[Apple Pie]]'
p6
I50
sS'[[Tomato Juice]]'
p7
I76
sS'[[Carrot Cake]]'
p8
I32
sS'[[Vanilla Ice Cream]]'
p9
I26
sS'[[Lure]]'
p10
I37
sS'[[Carrot Pie]]'
p11
I33
sS'[[Tomato]]'
p12
I54
sS'[[Cherry Juice]]'
p13
I88
sS'[[Cheesecake]]'
p14
I44
sS'[[Fish Pie]]'
p15
I72
sS'[[Pancake]]'
p16
I10
sS'[[Popcorn]]'
p17
I78
sS'[[Goat Cheese]]'
p18
I74
sS'[[Potato Bread]]'
p19
I79
sS'[[Goat Feed]]'
p20
I34
sS'[[Red Berry Cake]]'
p21
I75
sS'[[Pizza]]'
p22
I82
sS'[[Syrup]]'
p23
I40
sS'[[Sheep Feed]]'
p24
I0
sS'[[Cherry Popsicle]]'
p25
I52
sS'[[Bacon and Eggs]]'
p26
I25
sS'[[Carrot Juice]]'
p27
I7
sS'[[Baked Potato]]'
p28
I48
sS'[[Milk]]'
p29
I17
sS'[[Apple Jam]]'
p30
I47
sS'[[Carrot]]'
p31
I27
sS'[[Blackberry]]'
p32
I15
sS'[[Cotton Shirt]]'
p33
I16
sS'[[Cream]]'
p34
I83
sS'[[Raspberry Jam]]'
p35
I62
sS'[[Cherry]]'
p36
I56
sS'[[Bread]]'
p37
I13
sS'[[Wheat]]'
p38
I9
sS'[[Casserole]]'
p39
I11
sS'[[Chili Pepper]]'
p40
I90
sS'[[Honey Popcorn]]'
p41
I20
sS'[[Honeycomb]]'
p42
I49
sS'[[Indigo]]'
p43
I89
sS'[[Raspberry]]'
p44
I21
sS'[[Chocolate Cake]]'
p45
I42
sS'[[Spicy Pizza]]'
p46
I70
sS'[[Cacao]]'
p47
I81
sS'[[Woolly Chaps]]'
p48
I77
sS'[[Honey]]'
p49
I65
sS'[[Egg]]'
p50
I31
sS'[[Strawberry Cake]]'
p51
I57
sS'[[Potato]]'
p52
I80
sS'[[Fish Burger]]'
p53
I29
sS'[[White Sugar]]'
p54
I60
sS'[[Buttered Popcorn]]'
p55
I43
sS'[[Cream Cake]]'
p56
I46
sS'[[Soybean]]'
p57
I2
sS'[[Apple]]'
p58
I4
sS'[[Blue Woolly Hat]]'
p59
I38
sS'[[Goat Milk]]'
p60
I86
sS'[[Hamburger]]'
p61
I5
sS'[[Cherry Jam]]'
p62
I24
sS"[[Shepherd's Pie]]"
p63
I45
sS'[[Brown Sugar]]'
p64
I58
sS'[[Butter]]'
p65
I3
sS'[[Bacon Pie]]'
p66
I87
sS'[[Strawberry]]'
p67
I59
sS'[[Pumpkin Pie]]'
p68
I73
sS'[[Corn]]'
p69
I41
sS'[[Fish Fillet]]'
p70
I64
sS'[[Chili Popcorn]]'
p71
I67
sS'[[Bacon]]'
p72
I53
sS'[[Cotton Fabric]]'
p73
I55
sS'[[Blue Sweater]]'
p74
I68
sS'[[Potato Feta Cake]]'
p75
I6
sS'[[Sugarcane]]'
p76
I84
sS'[[Cookie]]'
p77
I30
sS'[[Apple Juice]]'
p78
I22
sS'[[Pig Feed]]'
p79
I28
sS'[[Cotton]]'
p80
I63
sS'[[Feta Pie]]'
p81
I35
sS'[[Cheese]]'
p82
I1
sS'[[Chocolate Ice Cream]]'
p83
I66
sS'[[Chicken Feed]]'
p84
I19
sS'[[Corn Bread]]'
p85
I8
sS'[[Wool]]'
p86
I14
sS'[[Roasted Tomatoes]]'
p87
I85
sS'[[Berry Juice]]'
p88
I39
sS'[[Sweater]]'
p89
I36
sS'[[Blackberry Muffin]]'
p90
I71
sS'[[Cow Feed]]'
p91
I23
s.(dp0
S'[[Pig Feed]]'
p1
I5
sS'[[Casserole]]'
p2
I2
sS'[[Goat Milk]]'
p3
I4
sS'[[Roasted Tomatoes]]'
p4
I2
sS'[[Cherry Popsicle]]'
p5
I4
sS'[[Carrot Pie]]'
p6
I3
sS'[[Strawberry Cake]]'
p7
I3
sS'[[Honey Popcorn]]'
p8
I5
sS'[[Baked Potato]]'
p9
I4
sS'[[White Sugar]]'
p10
I0
sS'[[Buttered Popcorn]]'
p11
I4
sS'[[Blackberry]]'
p12
I0
sS'[[Chocolate Cake]]'
p13
I5
sS'[[Chicken Feed]]'
p14
I2
s.