(dp0
S'[[Pumpkin]]'
p1
I13
sS'[[Blackberry Jam]]'
p2
I16
sS'[[Violet Dress]]'
p3
I28
sS'[[Strawberry Ice Cream]]'
p4
I56
sS'[[Raspberry Muffin]]'
p5
I84
sS'[[Apple Pie]]'
p6
I50
sS'[[Tomato Juice]]'
p7
I88
sS'[[Carrot Cake]]'
p8
I75
sS'[[Vanilla Ice Cream]]'
p9
I29
sS'[[Lure]]'
p10
I44
sS'[[Carrot Pie]]'
p11
I5
sS'[[Tomato]]'
p12
I21
sS'[[Cherry Juice]]'
p13
I51
sS'[[Cheesecake]]'
p14
I80
sS'[[Fish Pie]]'
p15
I14
sS'[[Pancake]]'
p16
I90
sS'[[Popcorn]]'
p17
I0
sS'[[Goat Cheese]]'
p18
I78
sS'[[Potato Bread]]'
p19
I54
sS'[[Goat Feed]]'
p20
I1
sS'[[Red Berry Cake]]'
p21
I68
sS'[[Pizza]]'
p22
I30
sS'[[Syrup]]'
p23
I9
sS'[[Sheep Feed]]'
p24
I53
sS'[[Cherry Popsicle]]'
p25
I57
sS'[[Bacon and Eggs]]'
p26
I20
sS'[[Carrot Juice]]'
p27
I10
sS'[[Baked Potato]]'
p28
I22
sS'[[Milk]]'
p29
I87
sS'[[Apple Jam]]'
p30
I66
sS'[[Carrot]]'
p31
I18
sS'[[Blackberry]]'
p32
I40
sS'[[Cotton Shirt]]'
p33
I45
sS'[[Cream]]'
p34
I85
sS'[[Raspberry Jam]]'
p35
I36
sS'[[Cherry]]'
p36
I41
sS'[[Bread]]'
p37
I81
sS'[[Wheat]]'
p38
I47
sS'[[Casserole]]'
p39
I31
sS'[[Chili Pepper]]'
p40
I4
sS'[[Honey Popcorn]]'
p41
I38
sS'[[Honeycomb]]'
p42
I58
sS'[[Indigo]]'
p43
I89
sS'[[Raspberry]]'
p44
I26
sS'[[Chocolate Cake]]'
p45
I43
sS'[[Spicy Pizza]]'
p46
I59
sS'[[Cacao]]'
p47
I67
sS'[[Woolly Chaps]]'
p48
I27
sS'[[Honey]]'
p49
I2
sS'[[Egg]]'
p50
I70
sS'[[Strawberry Cake]]'
p51
I82
sS'[[Potato]]'
p52
I62
sS'[[Fish Burger]]'
p53
I42
sS'[[White Sugar]]'
p54
I76
sS'[[Buttered Popcorn]]'
p55
I6
sS'[[Cream Cake]]'
p56
I3
sS'[[Soybean]]'
p57
I37
sS'[[Apple]]'
p58
I77
sS'[[Blue Woolly Hat]]'
p59
I61
sS'[[Goat Milk]]'
p60
I73
sS'[[Hamburger]]'
p61
I24
sS'[[Cherry Jam]]'
p62
I86
sS"[[Shepherd's Pie]]"
p63
I69
sS'[[Brown Sugar]]'
p64
I19
sS'[[Butter]]'
p65
I46
sS'[[Bacon Pie]]'
p66
I65
sS'[[Strawberry]]'
p67
I83
sS'[[Pumpkin Pie]]'
p68
I12
sS'[[Corn]]'
p69
I32
sS'[[Fish Fillet]]'
p70
I7
sS'[[Chili Popcorn]]'
p71
I63
sS'[[Sugarcane]]'
p72
I33
sS'[[Cotton Fabric]]'
p73
I64
sS'[[Blue Sweater]]'
p74
I8
sS'[[Potato Feta Cake]]'
p75
I39
sS'[[Cookie]]'
p76
I11
sS'[[Apple Juice]]'
p77
I52
sS'[[Pig Feed]]'
p78
I48
sS'[[Cotton]]'
p79
I55
sS'[[Feta Pie]]'
p80
I17
sS'[[Cheese]]'
p81
I25
sS'[[Chocolate Ice Cream]]'
p82
I79
sS'[[Bacon]]'
p83
I35
sS'[[Chicken Feed]]'
p84
I49
sS'[[Corn Bread]]'
p85
I15
sS'[[Wool]]'
p86
I60
sS'[[Roasted Tomatoes]]'
p87
I34
sS'[[Berry Juice]]'
p88
I71
sS'[[Sweater]]'
p89
I74
sS'[[Blackberry Muffin]]'
p90
I72
sS'[[Cow Feed]]'
p91
I23
s.(dp0
S'[[Pumpkin Pie]]'
p1
I5
sS'[[Casserole]]'
p2
I4
sS'[[Chocolate Ice Cream]]'
p3
I3
sS'[[Bacon and Eggs]]'
p4
I1
sS'[[Goat Milk]]'
p5
I5
sS'[[Hamburger]]'
p6
I5
sS'[[Indigo]]'
p7
I2
sS'[[Cream]]'
p8
I3
sS'[[Milk]]'
p9
I1
sS'[[Buttered Popcorn]]'
p10
I5
sS'[[Violet Dress]]'
p11
I4
sS'[[Goat Feed]]'
p12
I5
sS'[[Raspberry Muffin]]'
p13
I2
s.