(dp0
S'[[Pumpkin]]'
p1
I51
sS'[[Carrot Pie]]'
p2
I56
sS'[[Violet Dress]]'
p3
I44
sS'[[Strawberry Ice Cream]]'
p4
I58
sS'[[Raspberry Muffin]]'
p5
I43
sS'[[Woolly Chaps]]'
p6
I3
sS'[[Tomato Juice]]'
p7
I20
sS'[[Honey]]'
p8
I37
sS'[[Vanilla Ice Cream]]'
p9
I74
sS'[[Lure]]'
p10
I65
sS'[[Blackberry Jam]]'
p11
I15
sS'[[Tomato]]'
p12
I4
sS'[[Potato]]'
p13
I72
sS'[[Cheesecake]]'
p14
I86
sS'[[Fish Pie]]'
p15
I73
sS'[[Pancake]]'
p16
I5
sS'[[Popcorn]]'
p17
I21
sS'[[Goat Cheese]]'
p18
I34
sS'[[Potato Bread]]'
p19
I38
sS'[[Goat Feed]]'
p20
I6
sS'[[Red Berry Cake]]'
p21
I24
sS'[[Pizza]]'
p22
I39
sS'[[Syrup]]'
p23
I17
sS'[[Sheep Feed]]'
p24
I35
sS'[[Cherry Popsicle]]'
p25
I55
sS'[[Bacon and Eggs]]'
p26
I13
sS'[[Carrot Juice]]'
p27
I12
sS'[[Baked Potato]]'
p28
I2
sS'[[Milk]]'
p29
I41
sS'[[Apple Jam]]'
p30
I26
sS'[[Carrot]]'
p31
I46
sS'[[Blackberry]]'
p32
I36
sS'[[Cotton Shirt]]'
p33
I48
sS'[[Cream]]'
p34
I9
sS'[[Raspberry Jam]]'
p35
I53
sS'[[Cherry]]'
p36
I79
sS'[[Bread]]'
p37
I78
sS'[[Wheat]]'
p38
I77
sS'[[Casserole]]'
p39
I61
sS'[[Strawberry]]'
p40
I8
sS'[[Potato Feta Cake]]'
p41
I18
sS'[[Spicy Pizza]]'
p42
I90
sS'[[Indigo]]'
p43
I27
sS'[[Raspberry]]'
p44
I88
sS'[[Chocolate Cake]]'
p45
I63
sS'[[Apple Pie]]'
p46
I80
sS'[[Cacao]]'
p47
I85
sS'[[Blue Sweater]]'
p48
I19
sS'[[Carrot Cake]]'
p49
I32
sS'[[Egg]]'
p50
I47
sS'[[Strawberry Cake]]'
p51
I52
sS'[[Cherry Juice]]'
p52
I49
sS'[[Fish Burger]]'
p53
I81
sS'[[White Sugar]]'
p54
I31
sS'[[Buttered Popcorn]]'
p55
I84
sS'[[Cream Cake]]'
p56
I62
sS'[[Soybean]]'
p57
I76
sS'[[Brown Sugar]]'
p58
I1
sS'[[Blue Woolly Hat]]'
p59
I68
sS'[[Goat Milk]]'
p60
I16
sS'[[Hamburger]]'
p61
I28
sS'[[Cherry Jam]]'
p62
I59
sS"[[Shepherd's Pie]]"
p63
I23
sS'[[Apple]]'
p64
I89
sS'[[Butter]]'
p65
I67
sS'[[Bacon Pie]]'
p66
I45
sS'[[Chili Pepper]]'
p67
I69
sS'[[Corn]]'
p68
I71
sS'[[Fish Fillet]]'
p69
I30
sS'[[Chili Popcorn]]'
p70
I60
sS'[[Bacon]]'
p71
I0
sS'[[Cotton Fabric]]'
p72
I33
sS'[[Pumpkin Pie]]'
p73
I75
sS'[[Honey Popcorn]]'
p74
I10
sS'[[Sugarcane]]'
p75
I7
sS'[[Cookie]]'
p76
I42
sS'[[Apple Juice]]'
p77
I70
sS'[[Pig Feed]]'
p78
I11
sS'[[Cotton]]'
p79
I29
sS'[[Feta Pie]]'
p80
I82
sS'[[Cheese]]'
p81
I50
sS'[[Chocolate Ice Cream]]'
p82
I25
sS'[[Chicken Feed]]'
p83
I64
sS'[[Corn Bread]]'
p84
I14
sS'[[Honeycomb]]'
p85
I54
sS'[[Wool]]'
p86
I40
sS'[[Roasted Tomatoes]]'
p87
I83
sS'[[Berry Juice]]'
p88
I22
sS'[[Sweater]]'
p89
I66
sS'[[Blackberry Muffin]]'
p90
I57
sS'[[Cow Feed]]'
p91
I87
s.(dp0
S'[[Pizza]]'
p1
I2
sS'[[Popcorn]]'
p2
I1
sS'[[Cheesecake]]'
p3
I3
sS'[[Carrot Pie]]'
p4
I1
sS'[[Hamburger]]'
p5
I4
sS'[[Cotton Shirt]]'
p6
I4
sS'[[Berry Juice]]'
p7
I0
sS'[[Raspberry]]'
p8
I0
sS"[[Shepherd's Pie]]"
p9
I5
sS'[[Violet Dress]]'
p10
I5
s.