(dp0
S'[[Pumpkin]]'
p1
I65
sS'[[Blackberry Jam]]'
p2
I59
sS'[[Violet Dress]]'
p3
I25
sS'[[Strawberry Ice Cream]]'
p4
I0
sS'[[Raspberry Muffin]]'
p5
I73
sS'[[Apple Pie]]'
p6
I27
sS'[[Tomato Juice]]'
p7
I2
sS'[[Carrot Cake]]'
p8
I16
sS'[[Vanilla Ice Cream]]'
p9
I4
sS'[[Lure]]'
p10
I60
sS'[[Carrot Pie]]'
p11
I77
sS'[[Tomato]]'
p12
I24
sS'[[Cherry Juice]]'
p13
I28
sS'[[Cheesecake]]'
p14
I45
sS'[[Fish Pie]]'
p15
I63
sS'[[Pancake]]'
p16
I62
sS'[[Popcorn]]'
p17
I89
sS'[[Goat Cheese]]'
p18
I53
sS'[[Potato Bread]]'
p19
I18
sS'[[Goat Feed]]'
p20
I15
sS'[[Red Berry Cake]]'
p21
I75
sS'[[Pizza]]'
p22
I46
sS'[[Syrup]]'
p23
I57
sS'[[Sheep Feed]]'
p24
I41
sS'[[Cherry Popsicle]]'
p25
I85
sS'[[Bacon and Eggs]]'
p26
I29
sS'[[Carrot Juice]]'
p27
I84
sS'[[Baked Potato]]'
p28
I55
sS'[[Milk]]'
p29
I6
sS'[[Apple Jam]]'
p30
I10
sS'[[Carrot]]'
p31
I61
sS'[[Blackberry]]'
p32
I67
sS'[[Cotton Shirt]]'
p33
I38
sS'[[Cream]]'
p34
I51
sS'[[Raspberry Jam]]'
p35
I78
sS'[[Cherry]]'
p36
I48
sS'[[Bread]]'
p37
I90
sS'[[Wheat]]'
p38
I14
sS'[[Casserole]]'
p39
I54
sS'[[Chili Pepper]]'
p40
I82
sS'[[Honey Popcorn]]'
p41
I52
sS'[[Honeycomb]]'
p42
I76
sS'[[Indigo]]'
p43
I7
sS'[[Raspberry]]'
p44
I8
sS'[[Chocolate Cake]]'
p45
I42
sS'[[Spicy Pizza]]'
p46
I71
sS'[[Cacao]]'
p47
I39
sS'[[Woolly Chaps]]'
p48
I11
sS'[[Honey]]'
p49
I33
sS'[[Egg]]'
p50
I83
sS'[[Strawberry Cake]]'
p51
I13
sS'[[Potato]]'
p52
I81
sS'[[Fish Burger]]'
p53
I88
sS'[[White Sugar]]'
p54
I47
sS'[[Buttered Popcorn]]'
p55
I30
sS'[[Cream Cake]]'
p56
I69
sS'[[Soybean]]'
p57
I21
sS'[[Apple]]'
p58
I56
sS'[[Blue Woolly Hat]]'
p59
I9
sS'[[Goat Milk]]'
p60
I68
sS'[[Hamburger]]'
p61
I26
sS'[[Cherry Jam]]'
p62
I86
sS"[[Shepherd's Pie]]"
p63
I23
sS'[[Brown Sugar]]'
p64
I31
sS'[[Butter]]'
p65
I34
sS'[[Bacon Pie]]'
p66
I5
sS'[[Strawberry]]'
p67
I36
sS'[[Pumpkin Pie]]'
p68
I43
sS'[[Corn]]'
p69
I20
sS'[[Fish Fillet]]'
p70
I74
sS'[[Chili Popcorn]]'
p71
I19
sS'[[Bacon]]'
p72
I58
sS'[[Cotton Fabric]]'
p73
I44
sS'[[Blue Sweater]]'
p74
I50
sS'[[Potato Feta Cake]]'
p75
I1
sS'[[Sugarcane]]'
p76
I49
sS'[[Cookie]]'
p77
I87
sS'[[Apple Juice]]'
p78
I64
sS'[[Pig Feed]]'
p79
I22
sS'[[Cotton]]'
p80
I3
sS'[[Feta Pie]]'
p81
I66
sS'[[Cheese]]'
p82
I12
sS'[[Chocolate Ice Cream]]'
p83
I40
sS'[[Chicken Feed]]'
p84
I17
sS'[[Corn Bread]]'
p85
I32
sS'[[Wool]]'
p86
I37
sS'[[Roasted Tomatoes]]'
p87
I80
sS'[[Berry Juice]]'
p88
I79
sS'[[Sweater]]'
p89
I72
sS'[[Blackberry Muffin]]'
p90
I35
sS'[[Cow Feed]]'
p91
I70
s.(dp0
S'[[Blue Sweater]]'
p1
I5
sS'[[Potato Bread]]'
p2
I2
sS'[[Strawberry Ice Cream]]'
p3
I5
sS'[[Strawberry Cake]]'
p4
I3
sS'[[Apple Pie]]'
p5
I4
sS'[[Sugarcane]]'
p6
I0
sS'[[Cheese]]'
p7
I5
sS'[[Buttered Popcorn]]'
p8
I4
sS'[[Pizza]]'
p9
I5
sS'[[Violet Dress]]'
p10
I2
sS'[[Soybean]]'
p11
I0
s.