(dp0
S'[[Pumpkin]]'
p1
I84
sS'[[Blackberry Jam]]'
p2
I51
sS'[[Violet Dress]]'
p3
I12
sS'[[Strawberry Ice Cream]]'
p4
I5
sS'[[Raspberry Muffin]]'
p5
I78
sS'[[Apple Pie]]'
p6
I82
sS'[[Tomato Juice]]'
p7
I28
sS'[[Blue Sweater]]'
p8
I32
sS'[[Honey]]'
p9
I59
sS'[[Vanilla Ice Cream]]'
p10
I21
sS'[[Lure]]'
p11
I30
sS'[[Carrot Pie]]'
p12
I40
sS'[[Tomato]]'
p13
I27
sS'[[Potato]]'
p14
I57
sS'[[Cheesecake]]'
p15
I31
sS'[[Fish Pie]]'
p16
I88
sS'[[Pancake]]'
p17
I17
sS'[[Popcorn]]'
p18
I45
sS'[[Goat Cheese]]'
p19
I34
sS'[[Potato Bread]]'
p20
I41
sS'[[Goat Feed]]'
p21
I90
sS'[[Red Berry Cake]]'
p22
I11
sS'[[Pizza]]'
p23
I80
sS'[[Syrup]]'
p24
I86
sS'[[Sheep Feed]]'
p25
I24
sS'[[Cherry Popsicle]]'
p26
I61
sS'[[Bacon and Eggs]]'
p27
I55
sS'[[Carrot]]'
p28
I73
sS'[[Carrot Juice]]'
p29
I52
sS'[[Baked Potato]]'
p30
I67
sS'[[Milk]]'
p31
I29
sS'[[Apple Jam]]'
p32
I42
sS'[[Apple]]'
p33
I47
sS'[[Blackberry]]'
p34
I4
sS'[[Cotton Shirt]]'
p35
I7
sS'[[Cream]]'
p36
I46
sS'[[Raspberry Jam]]'
p37
I50
sS'[[Cherry]]'
p38
I83
sS'[[Bread]]'
p39
I62
sS'[[Wheat]]'
p40
I25
sS'[[Casserole]]'
p41
I72
sS'[[Strawberry]]'
p42
I66
sS'[[Honey Popcorn]]'
p43
I79
sS'[[Honeycomb]]'
p44
I19
sS'[[Indigo]]'
p45
I58
sS'[[Raspberry]]'
p46
I87
sS'[[Chocolate Cake]]'
p47
I77
sS'[[Spicy Pizza]]'
p48
I10
sS'[[Cacao]]'
p49
I89
sS'[[Woolly Chaps]]'
p50
I43
sS'[[Carrot Cake]]'
p51
I53
sS'[[Egg]]'
p52
I48
sS'[[Strawberry Cake]]'
p53
I13
sS'[[Cherry Juice]]'
p54
I65
sS'[[Fish Burger]]'
p55
I60
sS'[[White Sugar]]'
p56
I85
sS'[[Buttered Popcorn]]'
p57
I64
sS'[[Cream Cake]]'
p58
I37
sS'[[Soybean]]'
p59
I69
sS'[[Brown Sugar]]'
p60
I68
sS'[[Blue Woolly Hat]]'
p61
I54
sS'[[Goat Milk]]'
p62
I0
sS'[[Hamburger]]'
p63
I74
sS'[[Cherry Jam]]'
p64
I20
sS"[[Shepherd's Pie]]"
p65
I14
sS'[[Butter]]'
p66
I33
sS'[[Bacon Pie]]'
p67
I35
sS'[[Chili Pepper]]'
p68
I22
sS'[[Corn]]'
p69
I81
sS'[[Fish Fillet]]'
p70
I18
sS'[[Chili Popcorn]]'
p71
I70
sS'[[Bacon]]'
p72
I39
sS'[[Cotton Fabric]]'
p73
I9
sS'[[Pumpkin Pie]]'
p74
I49
sS'[[Potato Feta Cake]]'
p75
I23
sS'[[Sugarcane]]'
p76
I71
sS'[[Cookie]]'
p77
I15
sS'[[Apple Juice]]'
p78
I2
sS'[[Pig Feed]]'
p79
I6
sS'[[Cotton]]'
p80
I16
sS'[[Feta Pie]]'
p81
I1
sS'[[Cheese]]'
p82
I8
sS'[[Chocolate Ice Cream]]'
p83
I36
sS'[[Chicken Feed]]'
p84
I26
sS'[[Corn Bread]]'
p85
I75
sS'[[Wool]]'
p86
I3
sS'[[Roasted Tomatoes]]'
p87
I44
sS'[[Berry Juice]]'
p88
I63
sS'[[Sweater]]'
p89
I56
sS'[[Blackberry Muffin]]'
p90
I76
sS'[[Cow Feed]]'
p91
I38
s.(dp0
S'[[Tomato]]'
p1
I1
sS'[[Casserole]]'
p2
I1
sS'[[Strawberry Ice Cream]]'
p3
I3
sS'[[Egg]]'
p4
I2
sS'[[Hamburger]]'
p5
I4
sS'[[Fish Burger]]'
p6
I5
sS'[[Baked Potato]]'
p7
I2
sS'[[Spicy Pizza]]'
p8
I2
sS'[[Pancake]]'
p9
I1
sS'[[Sweater]]'
p10
I3
sS'[[Chocolate Cake]]'
p11
I3
sS'[[Apple Juice]]'
p12
I3
s.