(dp0
S'[[Pumpkin]]'
p1
I16
sS'[[Carrot Pie]]'
p2
I47
sS'[[Violet Dress]]'
p3
I51
sS'[[Strawberry Ice Cream]]'
p4
I90
sS'[[Raspberry Muffin]]'
p5
I42
sS'[[Woolly Chaps]]'
p6
I4
sS'[[Tomato Juice]]'
p7
I40
sS'[[Honey]]'
p8
I49
sS'[[Vanilla Ice Cream]]'
p9
I63
sS'[[Lure]]'
p10
I89
sS'[[Blackberry Jam]]'
p11
I67
sS'[[Tomato]]'
p12
I76
sS'[[Potato]]'
p13
I7
sS'[[Cheesecake]]'
p14
I52
sS'[[Fish Pie]]'
p15
I58
sS'[[Pancake]]'
p16
I50
sS'[[Popcorn]]'
p17
I64
sS'[[Goat Cheese]]'
p18
I32
sS'[[Potato Bread]]'
p19
I10
sS'[[Goat Feed]]'
p20
I38
sS'[[Red Berry Cake]]'
p21
I87
sS'[[Pizza]]'
p22
I71
sS'[[Syrup]]'
p23
I84
sS'[[Sheep Feed]]'
p24
I29
sS'[[Cherry Popsicle]]'
p25
I69
sS'[[Bacon and Eggs]]'
p26
I39
sS'[[Carrot Juice]]'
p27
I8
sS'[[Baked Potato]]'
p28
I79
sS'[[Milk]]'
p29
I73
sS'[[Apple Jam]]'
p30
I26
sS'[[Carrot]]'
p31
I44
sS'[[Blackberry]]'
p32
I60
sS'[[Cotton Shirt]]'
p33
I23
sS'[[Cream]]'
p34
I72
sS'[[Raspberry Jam]]'
p35
I27
sS'[[Cherry]]'
p36
I17
sS'[[Bread]]'
p37
I21
sS'[[Wheat]]'
p38
I61
sS'[[Casserole]]'
p39
I13
sS'[[Strawberry]]'
p40
I15
sS'[[Potato Feta Cake]]'
p41
I37
sS'[[Spicy Pizza]]'
p42
I68
sS'[[Indigo]]'
p43
I33
sS'[[Raspberry]]'
p44
I1
sS'[[Chocolate Cake]]'
p45
I83
sS'[[Apple Pie]]'
p46
I75
sS'[[Cacao]]'
p47
I36
sS'[[Blue Sweater]]'
p48
I46
sS'[[Carrot Cake]]'
p49
I35
sS'[[Egg]]'
p50
I86
sS'[[Strawberry Cake]]'
p51
I2
sS'[[Cherry Juice]]'
p52
I77
sS'[[Fish Burger]]'
p53
I70
sS'[[White Sugar]]'
p54
I20
sS'[[Buttered Popcorn]]'
p55
I81
sS'[[Cream Cake]]'
p56
I9
sS'[[Soybean]]'
p57
I74
sS'[[Brown Sugar]]'
p58
I18
sS'[[Blue Woolly Hat]]'
p59
I43
sS'[[Goat Milk]]'
p60
I80
sS'[[Hamburger]]'
p61
I66
sS'[[Cherry Jam]]'
p62
I59
sS"[[Shepherd's Pie]]"
p63
I55
sS'[[Apple]]'
p64
I22
sS'[[Butter]]'
p65
I19
sS'[[Bacon Pie]]'
p66
I53
sS'[[Chili Pepper]]'
p67
I25
sS'[[Corn]]'
p68
I57
sS'[[Fish Fillet]]'
p69
I82
sS'[[Chili Popcorn]]'
p70
I28
sS'[[Bacon]]'
p71
I85
sS'[[Cotton Fabric]]'
p72
I12
sS'[[Pumpkin Pie]]'
p73
I48
sS'[[Honey Popcorn]]'
p74
I41
sS'[[Sugarcane]]'
p75
I88
sS'[[Cookie]]'
p76
I78
sS'[[Apple Juice]]'
p77
I11
sS'[[Pig Feed]]'
p78
I14
sS'[[Cotton]]'
p79
I5
sS'[[Feta Pie]]'
p80
I54
sS'[[Cheese]]'
p81
I3
sS'[[Chocolate Ice Cream]]'
p82
I45
sS'[[Chicken Feed]]'
p83
I34
sS'[[Corn Bread]]'
p84
I30
sS'[[Honeycomb]]'
p85
I0
sS'[[Wool]]'
p86
I6
sS'[[Roasted Tomatoes]]'
p87
I31
sS'[[Berry Juice]]'
p88
I56
sS'[[Sweater]]'
p89
I62
sS'[[Blackberry Muffin]]'
p90
I65
sS'[[Cow Feed]]'
p91
I24
s.(dp0
S'[[Pumpkin Pie]]'
p1
I1
sS'[[Carrot Cake]]'
p2
I1
sS'[[Egg]]'
p3
I0
sS'[[Chili Popcorn]]'
p4
I3
sS'[[Baked Potato]]'
p5
I4
sS'[[Bacon]]'
p6
I0
sS'[[Chocolate Ice Cream]]'
p7
I5
sS'[[Apple Jam]]'
p8
I2
sS'[[Potato Bread]]'
p9
I3
sS'[[Violet Dress]]'
p10
I4
s.