(dp0
S'[[Pumpkin]]'
p1
I47
sS'[[Blackberry Jam]]'
p2
I80
sS'[[Violet Dress]]'
p3
I3
sS'[[Strawberry Ice Cream]]'
p4
I40
sS'[[Raspberry Muffin]]'
p5
I49
sS'[[Apple Pie]]'
p6
I62
sS'[[Tomato Juice]]'
p7
I33
sS'[[Carrot Cake]]'
p8
I28
sS'[[Vanilla Ice Cream]]'
p9
I46
sS'[[Lure]]'
p10
I51
sS'[[Carrot Pie]]'
p11
I82
sS'[[Tomato]]'
p12
I52
sS'[[Cherry Juice]]'
p13
I1
sS'[[Cheesecake]]'
p14
I57
sS'[[Fish Pie]]'
p15
I37
sS'[[Pancake]]'
p16
I45
sS'[[Popcorn]]'
p17
I36
sS'[[Goat Cheese]]'
p18
I72
sS'[[Potato Bread]]'
p19
I30
sS'[[Goat Feed]]'
p20
I60
sS'[[Red Berry Cake]]'
p21
I9
sS'[[Pizza]]'
p22
I8
sS'[[Syrup]]'
p23
I75
sS'[[Sheep Feed]]'
p24
I59
sS'[[Cherry Popsicle]]'
p25
I67
sS'[[Bacon and Eggs]]'
p26
I5
sS'[[Carrot Juice]]'
p27
I24
sS'[[Baked Potato]]'
p28
I85
sS'[[Milk]]'
p29
I71
sS'[[Apple Jam]]'
p30
I11
sS'[[Carrot]]'
p31
I18
sS'[[Blackberry]]'
p32
I14
sS'[[Cotton Shirt]]'
p33
I61
sS'[[Cream]]'
p34
I2
sS'[[Raspberry Jam]]'
p35
I48
sS'[[Cherry]]'
p36
I34
sS'[[Bread]]'
p37
I23
sS'[[Wheat]]'
p38
I15
sS'[[Casserole]]'
p39
I41
sS'[[Chili Pepper]]'
p40
I58
sS'[[Honey Popcorn]]'
p41
I81
sS'[[Honeycomb]]'
p42
I20
sS'[[Indigo]]'
p43
I17
sS'[[Raspberry]]'
p44
I32
sS'[[Chocolate Cake]]'
p45
I25
sS'[[Spicy Pizza]]'
p46
I89
sS'[[Cacao]]'
p47
I84
sS'[[Woolly Chaps]]'
p48
I13
sS'[[Honey]]'
p49
I7
sS'[[Egg]]'
p50
I6
sS'[[Strawberry Cake]]'
p51
I86
sS'[[Potato]]'
p52
I39
sS'[[Fish Burger]]'
p53
I42
sS'[[White Sugar]]'
p54
I19
sS'[[Buttered Popcorn]]'
p55
I54
sS'[[Cream Cake]]'
p56
I26
sS'[[Soybean]]'
p57
I38
sS'[[Apple]]'
p58
I88
sS'[[Blue Woolly Hat]]'
p59
I87
sS'[[Goat Milk]]'
p60
I55
sS'[[Hamburger]]'
p61
I44
sS'[[Cherry Jam]]'
p62
I79
sS"[[Shepherd's Pie]]"
p63
I0
sS'[[Brown Sugar]]'
p64
I65
sS'[[Butter]]'
p65
I22
sS'[[Bacon Pie]]'
p66
I53
sS'[[Strawberry]]'
p67
I63
sS'[[Pumpkin Pie]]'
p68
I69
sS'[[Corn]]'
p69
I31
sS'[[Fish Fillet]]'
p70
I27
sS'[[Chili Popcorn]]'
p71
I56
sS'[[Sugarcane]]'
p72
I70
sS'[[Cotton Fabric]]'
p73
I73
sS'[[Blue Sweater]]'
p74
I64
sS'[[Potato Feta Cake]]'
p75
I50
sS'[[Cookie]]'
p76
I66
sS'[[Apple Juice]]'
p77
I83
sS'[[Pig Feed]]'
p78
I74
sS'[[Cotton]]'
p79
I16
sS'[[Feta Pie]]'
p80
I68
sS'[[Cheese]]'
p81
I29
sS'[[Chocolate Ice Cream]]'
p82
I21
sS'[[Bacon]]'
p83
I77
sS'[[Chicken Feed]]'
p84
I35
sS'[[Corn Bread]]'
p85
I4
sS'[[Wool]]'
p86
I90
sS'[[Roasted Tomatoes]]'
p87
I10
sS'[[Berry Juice]]'
p88
I12
sS'[[Sweater]]'
p89
I43
sS'[[Blackberry Muffin]]'
p90
I76
sS'[[Cow Feed]]'
p91
I78
s.(dp0
S'[[Sheep Feed]]'
p1
I3
sS'[[Casserole]]'
p2
I0
sS'[[Cheesecake]]'
p3
I4
sS'[[Cherry Popsicle]]'
p4
I5
sS'[[Blackberry]]'
p5
I5
sS'[[Bacon and Eggs]]'
p6
I5
sS'[[Woolly Chaps]]'
p7
I5
sS'[[Goat Feed]]'
p8
I3
sS'[[Lure]]'
p9
I1
sS'[[Cow Feed]]'
p10
I3
sS'[[Violet Dress]]'
p11
I2
sS'[[Soybean]]'
p12
I5
sS'[[Raspberry Muffin]]'
p13
I1
s.