(dp0
S'[[Pumpkin]]'
p1
I31
sS'[[Blackberry Jam]]'
p2
I87
sS'[[Violet Dress]]'
p3
I10
sS'[[Strawberry Ice Cream]]'
p4
I20
sS'[[Raspberry Muffin]]'
p5
I25
sS'[[Apple Pie]]'
p6
I51
sS'[[Tomato Juice]]'
p7
I86
sS'[[Carrot Cake]]'
p8
I23
sS'[[Vanilla Ice Cream]]'
p9
I62
sS'[[Lure]]'
p10
I4
sS'[[Carrot Pie]]'
p11
I11
sS'[[Tomato]]'
p12
I56
sS'[[Cherry Juice]]'
p13
I60
sS'[[Cheesecake]]'
p14
I84
sS'[[Fish Pie]]'
p15
I22
sS'[[Pancake]]'
p16
I13
sS'[[Popcorn]]'
p17
I72
sS'[[Goat Cheese]]'
p18
I47
sS'[[Potato Bread]]'
p19
I79
sS'[[Goat Feed]]'
p20
I58
sS'[[Red Berry Cake]]'
p21
I74
sS'[[Pizza]]'
p22
I77
sS'[[Syrup]]'
p23
I49
sS'[[Sheep Feed]]'
p24
I75
sS'[[Cherry Popsicle]]'
p25
I76
sS'[[Bacon and Eggs]]'
p26
I41
sS'[[Carrot Juice]]'
p27
I69
sS'[[Baked Potato]]'
p28
I71
sS'[[Milk]]'
p29
I6
sS'[[Apple Jam]]'
p30
I57
sS'[[Carrot]]'
p31
I45
sS'[[Blackberry]]'
p32
I35
sS'[[Cotton Shirt]]'
p33
I54
sS'[[Cream]]'
p34
I36
sS'[[Raspberry Jam]]'
p35
I0
sS'[[Cherry]]'
p36
I3
sS'[[Bread]]'
p37
I50
sS'[[Wheat]]'
p38
I14
sS'[[Casserole]]'
p39
I21
sS'[[Chili Pepper]]'
p40
I44
sS'[[Honey Popcorn]]'
p41
I37
sS'[[Honeycomb]]'
p42
I73
sS'[[Indigo]]'
p43
I67
sS'[[Raspberry]]'
p44
I88
sS'[[Chocolate Cake]]'
p45
I16
sS'[[Spicy Pizza]]'
p46
I90
sS'[[Cacao]]'
p47
I5
sS'[[Woolly Chaps]]'
p48
I18
sS'[[Honey]]'
p49
I43
sS'[[Egg]]'
p50
I61
sS'[[Strawberry Cake]]'
p51
I66
sS'[[Potato]]'
p52
I34
sS'[[Fish Burger]]'
p53
I42
sS'[[White Sugar]]'
p54
I33
sS'[[Buttered Popcorn]]'
p55
I38
sS'[[Cream Cake]]'
p56
I80
sS'[[Soybean]]'
p57
I78
sS'[[Apple]]'
p58
I39
sS'[[Blue Woolly Hat]]'
p59
I53
sS'[[Goat Milk]]'
p60
I1
sS'[[Hamburger]]'
p61
I8
sS'[[Cherry Jam]]'
p62
I19
sS"[[Shepherd's Pie]]"
p63
I83
sS'[[Brown Sugar]]'
p64
I15
sS'[[Butter]]'
p65
I12
sS'[[Bacon Pie]]'
p66
I17
sS'[[Strawberry]]'
p67
I26
sS'[[Pumpkin Pie]]'
p68
I70
sS'[[Corn]]'
p69
I64
sS'[[Fish Fillet]]'
p70
I7
sS'[[Chili Popcorn]]'
p71
I65
sS'[[Bacon]]'
p72
I46
sS'[[Cotton Fabric]]'
p73
I24
sS'[[Blue Sweater]]'
p74
I63
sS'[[Potato Feta Cake]]'
p75
I82
sS'[[Sugarcane]]'
p76
I27
sS'[[Cookie]]'
p77
I32
sS'[[Apple Juice]]'
p78
I89
sS'[[Pig Feed]]'
p79
I68
sS'[[Cotton]]'
p80
I2
sS'[[Feta Pie]]'
p81
I55
sS'[[Cheese]]'
p82
I85
sS'[[Chocolate Ice Cream]]'
p83
I52
sS'[[Chicken Feed]]'
p84
I9
sS'[[Corn Bread]]'
p85
I59
sS'[[Wool]]'
p86
I40
sS'[[Roasted Tomatoes]]'
p87
I48
sS'[[Berry Juice]]'
p88
I28
sS'[[Sweater]]'
p89
I30
sS'[[Blackberry Muffin]]'
p90
I81
sS'[[Cow Feed]]'
p91
I29
s.(dp0
S'[[Wheat]]'
p1
I1
sS'[[Apple]]'
p2
I4
sS'[[Cow Feed]]'
p3
I2
sS'[[Cherry Popsicle]]'
p4
I3
sS'[[Syrup]]'
p5
I1
sS'[[Cookie]]'
p6
I5
sS'[[Chili Popcorn]]'
p7
I3
sS'[[Sugarcane]]'
p8
I5
sS'[[Chocolate Cake]]'
p9
I5
sS'[[Bacon Pie]]'
p10
I1
sS'[[Pizza]]'
p11
I3
sS'[[Violet Dress]]'
p12
I5
s.