(dp0
S'[[Pumpkin]]'
p1
I55
sS'[[Blackberry Jam]]'
p2
I65
sS'[[Violet Dress]]'
p3
I59
sS'[[Strawberry Ice Cream]]'
p4
I49
sS'[[Raspberry Muffin]]'
p5
I29
sS'[[Apple Pie]]'
p6
I84
sS'[[Tomato Juice]]'
p7
I81
sS'[[Carrot Cake]]'
p8
I0
sS'[[Vanilla Ice Cream]]'
p9
I13
sS'[[Lure]]'
p10
I24
sS'[[Carrot Pie]]'
p11
I47
sS'[[Tomato]]'
p12
I90
sS'[[Cherry Juice]]'
p13
I32
sS'[[Cheesecake]]'
p14
I75
sS'[[Fish Pie]]'
p15
I34
sS'[[Pancake]]'
p16
I53
sS'[[Popcorn]]'
p17
I61
sS'[[Goat Cheese]]'
p18
I11
sS'[[Potato Bread]]'
p19
I35
sS'[[Goat Feed]]'
p20
I83
sS'[[Red Berry Cake]]'
p21
I30
sS'[[Pizza]]'
p22
I15
sS'[[Syrup]]'
p23
I16
sS'[[Sheep Feed]]'
p24
I2
sS'[[Cherry Popsicle]]'
p25
I14
sS'[[Bacon and Eggs]]'
p26
I22
sS'[[Carrot Juice]]'
p27
I80
sS'[[Baked Potato]]'
p28
I62
sS'[[Milk]]'
p29
I68
sS'[[Apple Jam]]'
p30
I12
sS'[[Carrot]]'
p31
I44
sS'[[Blackberry]]'
p32
I42
sS'[[Cotton Shirt]]'
p33
I48
sS'[[Cream]]'
p34
I20
sS'[[Raspberry Jam]]'
p35
I27
sS'[[Cherry]]'
p36
I33
sS'[[Bread]]'
p37
I74
sS'[[Wheat]]'
p38
I79
sS'[[Casserole]]'
p39
I19
sS'[[Chili Pepper]]'
p40
I51
sS'[[Honey Popcorn]]'
p41
I40
sS'[[Honeycomb]]'
p42
I72
sS'[[Indigo]]'
p43
I46
sS'[[Raspberry]]'
p44
I69
sS'[[Chocolate Cake]]'
p45
I77
sS'[[Spicy Pizza]]'
p46
I78
sS'[[Cacao]]'
p47
I1
sS'[[Woolly Chaps]]'
p48
I37
sS'[[Honey]]'
p49
I18
sS'[[Egg]]'
p50
I52
sS'[[Strawberry Cake]]'
p51
I89
sS'[[Potato]]'
p52
I10
sS'[[Fish Burger]]'
p53
I88
sS'[[White Sugar]]'
p54
I31
sS'[[Buttered Popcorn]]'
p55
I67
sS'[[Cream Cake]]'
p56
I70
sS'[[Soybean]]'
p57
I57
sS'[[Apple]]'
p58
I64
sS'[[Blue Woolly Hat]]'
p59
I82
sS'[[Goat Milk]]'
p60
I38
sS'[[Hamburger]]'
p61
I21
sS'[[Cherry Jam]]'
p62
I87
sS"[[Shepherd's Pie]]"
p63
I8
sS'[[Brown Sugar]]'
p64
I45
sS'[[Butter]]'
p65
I7
sS'[[Bacon Pie]]'
p66
I50
sS'[[Strawberry]]'
p67
I85
sS'[[Pumpkin Pie]]'
p68
I23
sS'[[Corn]]'
p69
I41
sS'[[Fish Fillet]]'
p70
I5
sS'[[Chili Popcorn]]'
p71
I26
sS'[[Sugarcane]]'
p72
I4
sS'[[Cotton Fabric]]'
p73
I86
sS'[[Blue Sweater]]'
p74
I28
sS'[[Potato Feta Cake]]'
p75
I58
sS'[[Cookie]]'
p76
I3
sS'[[Apple Juice]]'
p77
I6
sS'[[Pig Feed]]'
p78
I25
sS'[[Cotton]]'
p79
I39
sS'[[Feta Pie]]'
p80
I76
sS'[[Cheese]]'
p81
I43
sS'[[Chocolate Ice Cream]]'
p82
I73
sS'[[Bacon]]'
p83
I56
sS'[[Chicken Feed]]'
p84
I54
sS'[[Corn Bread]]'
p85
I36
sS'[[Wool]]'
p86
I17
sS'[[Roasted Tomatoes]]'
p87
I60
sS'[[Berry Juice]]'
p88
I63
sS'[[Sweater]]'
p89
I9
sS'[[Blackberry Muffin]]'
p90
I66
sS'[[Cow Feed]]'
p91
I71
s.(dp0
S'[[Pig Feed]]'
p1
I4
sS'[[Casserole]]'
p2
I2
sS'[[Potato Feta Cake]]'
p3
I5
sS'[[Cheesecake]]'
p4
I0
sS'[[Cherry Popsicle]]'
p5
I3
sS'[[Apple Pie]]'
p6
I5
sS'[[Cookie]]'
p7
I5
sS'[[Baked Potato]]'
p8
I4
sS'[[Chocolate Cake]]'
p9
I1
s.