(dp0
S'[[Pumpkin]]'
p1
I26
sS'[[Blackberry Jam]]'
p2
I60
sS'[[Violet Dress]]'
p3
I77
sS'[[Strawberry Ice Cream]]'
p4
I47
sS'[[Raspberry Muffin]]'
p5
I81
sS'[[Apple Pie]]'
p6
I75
sS'[[Tomato Juice]]'
p7
I48
sS'[[Carrot Cake]]'
p8
I19
sS'[[Vanilla Ice Cream]]'
p9
I59
sS'[[Lure]]'
p10
I39
sS'[[Carrot Pie]]'
p11
I83
sS'[[Tomato]]'
p12
I87
sS'[[Cherry Juice]]'
p13
I67
sS'[[Cheesecake]]'
p14
I18
sS'[[Fish Pie]]'
p15
I40
sS'[[Pancake]]'
p16
I51
sS'[[Popcorn]]'
p17
I53
sS'[[Goat Cheese]]'
p18
I42
sS'[[Potato Bread]]'
p19
I34
sS'[[Goat Feed]]'
p20
I57
sS'[[Red Berry Cake]]'
p21
I70
sS'[[Pizza]]'
p22
I44
sS'[[Syrup]]'
p23
I23
sS'[[Sheep Feed]]'
p24
I10
sS'[[Cherry Popsicle]]'
p25
I4
sS'[[Bacon and Eggs]]'
p26
I5
sS'[[Carrot Juice]]'
p27
I6
sS'[[Baked Potato]]'
p28
I61
sS'[[Milk]]'
p29
I22
sS'[[Apple Jam]]'
p30
I33
sS'[[Carrot]]'
p31
I0
sS'[[Blackberry]]'
p32
I25
sS'[[Cotton Shirt]]'
p33
I29
sS'[[Cream]]'
p34
I68
sS'[[Raspberry Jam]]'
p35
I20
sS'[[Cherry]]'
p36
I21
sS'[[Bread]]'
p37
I49
sS'[[Wheat]]'
p38
I31
sS'[[Casserole]]'
p39
I82
sS'[[Chili Pepper]]'
p40
I65
sS'[[Honey Popcorn]]'
p41
I17
sS'[[Honeycomb]]'
p42
I41
sS'[[Indigo]]'
p43
I11
sS'[[Raspberry]]'
p44
I56
sS'[[Chocolate Cake]]'
p45
I74
sS'[[Spicy Pizza]]'
p46
I27
sS'[[Cacao]]'
p47
I37
sS'[[Woolly Chaps]]'
p48
I73
sS'[[Honey]]'
p49
I15
sS'[[Egg]]'
p50
I24
sS'[[Strawberry Cake]]'
p51
I30
sS'[[Potato]]'
p52
I16
sS'[[Fish Burger]]'
p53
I7
sS'[[White Sugar]]'
p54
I46
sS'[[Buttered Popcorn]]'
p55
I52
sS'[[Cream Cake]]'
p56
I69
sS'[[Soybean]]'
p57
I3
sS'[[Apple]]'
p58
I35
sS'[[Blue Woolly Hat]]'
p59
I62
sS'[[Goat Milk]]'
p60
I28
sS'[[Hamburger]]'
p61
I32
sS'[[Cherry Jam]]'
p62
I66
sS"[[Shepherd's Pie]]"
p63
I2
sS'[[Brown Sugar]]'
p64
I8
sS'[[Butter]]'
p65
I45
sS'[[Bacon Pie]]'
p66
I85
sS'[[Strawberry]]'
p67
I88
sS'[[Pumpkin Pie]]'
p68
I80
sS'[[Corn]]'
p69
I78
sS'[[Fish Fillet]]'
p70
I12
sS'[[Chili Popcorn]]'
p71
I54
sS'[[Sugarcane]]'
p72
I72
sS'[[Cotton Fabric]]'
p73
I84
sS'[[Blue Sweater]]'
p74
I64
sS'[[Potato Feta Cake]]'
p75
I71
sS'[[Cookie]]'
p76
I1
sS'[[Apple Juice]]'
p77
I63
sS'[[Pig Feed]]'
p78
I43
sS'[[Cotton]]'
p79
I55
sS'[[Feta Pie]]'
p80
I36
sS'[[Cheese]]'
p81
I50
sS'[[Chocolate Ice Cream]]'
p82
I9
sS'[[Bacon]]'
p83
I89
sS'[[Chicken Feed]]'
p84
I38
sS'[[Corn Bread]]'
p85
I58
sS'[[Wool]]'
p86
I79
sS'[[Roasted Tomatoes]]'
p87
I76
sS'[[Berry Juice]]'
p88
I14
sS'[[Sweater]]'
p89
I13
sS'[[Blackberry Muffin]]'
p90
I86
sS'[[Cow Feed]]'
p91
I90
s.(dp0
S'[[Wheat]]'
p1
I5
sS'[[Casserole]]'
p2
I2
sS'[[Pizza]]'
p3
I2
sS'[[Cheesecake]]'
p4
I3
sS'[[Egg]]'
p5
I0
sS'[[Carrot Pie]]'
p6
I1
sS'[[Hamburger]]'
p7
I1
sS'[[Cotton Shirt]]'
p8
I4
sS"[[Shepherd's Pie]]"
p9
I5
sS'[[Violet Dress]]'
p10
I5
s.