(dp0
S'[[Pumpkin]]'
p1
I5
sS'[[Blackberry Jam]]'
p2
I18
sS'[[Violet Dress]]'
p3
I26
sS'[[Strawberry Ice Cream]]'
p4
I39
sS'[[Raspberry Muffin]]'
p5
I77
sS'[[Apple Pie]]'
p6
I69
sS'[[Tomato Juice]]'
p7
I19
sS'[[Carrot Cake]]'
p8
I60
sS'[[Vanilla Ice Cream]]'
p9
I71
sS'[[Lure]]'
p10
I85
sS'[[Carrot Pie]]'
p11
I57
sS'[[Tomato]]'
p12
I53
sS'[[Cherry Juice]]'
p13
I74
sS'[[Cheesecake]]'
p14
I25
sS'[[Fish Pie]]'
p15
I29
sS'[[Pancake]]'
p16
I80
sS'[[Popcorn]]'
p17
I50
sS'[[Goat Cheese]]'
p18
I84
sS'[[Potato Bread]]'
p19
I15
sS'[[Goat Feed]]'
p20
I40
sS'[[Red Berry Cake]]'
p21
I6
sS'[[Pizza]]'
p22
I42
sS'[[Syrup]]'
p23
I23
sS'[[Sheep Feed]]'
p24
I47
sS'[[Cherry Popsicle]]'
p25
I17
sS'[[Bacon and Eggs]]'
p26
I0
sS'[[Carrot Juice]]'
p27
I48
sS'[[Baked Potato]]'
p28
I81
sS'[[Milk]]'
p29
I32
sS'[[Apple Jam]]'
p30
I55
sS'[[Carrot]]'
p31
I38
sS'[[Blackberry]]'
p32
I62
sS'[[Cotton Shirt]]'
p33
I87
sS'[[Cream]]'
p34
I12
sS'[[Raspberry Jam]]'
p35
I11
sS'[[Cherry]]'
p36
I34
sS'[[Bread]]'
p37
I27
sS'[[Wheat]]'
p38
I33
sS'[[Casserole]]'
p39
I76
sS'[[Chili Pepper]]'
p40
I28
sS'[[Honey Popcorn]]'
p41
I24
sS'[[Honeycomb]]'
p42
I3
sS'[[Indigo]]'
p43
I70
sS'[[Raspberry]]'
p44
I7
sS'[[Chocolate Cake]]'
p45
I64
sS'[[Spicy Pizza]]'
p46
I16
sS'[[Cacao]]'
p47
I43
sS'[[Woolly Chaps]]'
p48
I78
sS'[[Honey]]'
p49
I83
sS'[[Egg]]'
p50
I66
sS'[[Strawberry Cake]]'
p51
I2
sS'[[Potato]]'
p52
I73
sS'[[Fish Burger]]'
p53
I31
sS'[[White Sugar]]'
p54
I35
sS'[[Buttered Popcorn]]'
p55
I59
sS'[[Cream Cake]]'
p56
I65
sS'[[Soybean]]'
p57
I82
sS'[[Apple]]'
p58
I63
sS'[[Blue Woolly Hat]]'
p59
I22
sS'[[Goat Milk]]'
p60
I1
sS'[[Hamburger]]'
p61
I21
sS'[[Cherry Jam]]'
p62
I20
sS"[[Shepherd's Pie]]"
p63
I58
sS'[[Brown Sugar]]'
p64
I36
sS'[[Butter]]'
p65
I90
sS'[[Bacon Pie]]'
p66
I68
sS'[[Strawberry]]'
p67
I10
sS'[[Pumpkin Pie]]'
p68
I72
sS'[[Corn]]'
p69
I86
sS'[[Fish Fillet]]'
p70
I61
sS'[[Chili Popcorn]]'
p71
I75
sS'[[Sugarcane]]'
p72
I51
sS'[[Cotton Fabric]]'
p73
I89
sS'[[Blue Sweater]]'
p74
I30
sS'[[Potato Feta Cake]]'
p75
I4
sS'[[Cookie]]'
p76
I67
sS'[[Apple Juice]]'
p77
I88
sS'[[Pig Feed]]'
p78
I14
sS'[[Cotton]]'
p79
I49
sS'[[Feta Pie]]'
p80
I79
sS'[[Cheese]]'
p81
I8
sS'[[Chocolate Ice Cream]]'
p82
I13
sS'[[Bacon]]'
p83
I46
sS'[[Chicken Feed]]'
p84
I37
sS'[[Corn Bread]]'
p85
I44
sS'[[Wool]]'
p86
I56
sS'[[Roasted Tomatoes]]'
p87
I52
sS'[[Berry Juice]]'
p88
I9
sS'[[Sweater]]'
p89
I45
sS'[[Blackberry Muffin]]'
p90
I41
sS'[[Cow Feed]]'
p91
I54
s.(dp0
S'[[Pumpkin Pie]]'
p1
I1
sS"[[Shepherd's Pie]]"
p2
I5
sS'[[Popcorn]]'
p3
I1
sS'[[Carrot Cake]]'
p4
I1
sS'[[Carrot Pie]]'
p5
I1
sS'[[Chili Popcorn]]'
p6
I3
sS'[[Cotton Shirt]]'
p7
I4
sS'[[Chocolate Ice Cream]]'
p8
I5
sS'[[Berry Juice]]'
p9
I0
sS'[[Apple Jam]]'
p10
I2
sS'[[Pizza]]'
p11
I2
sS'[[Violet Dress]]'
p12
I4
s.