(dp0
S'[[Pumpkin]]'
p1
I18
sS'[[Blackberry Jam]]'
p2
I44
sS'[[Violet Dress]]'
p3
I57
sS'[[Strawberry Ice Cream]]'
p4
I48
sS'[[Raspberry Muffin]]'
p5
I8
sS'[[Apple Pie]]'
p6
I6
sS'[[Tomato Juice]]'
p7
I50
sS'[[Blue Sweater]]'
p8
I27
sS'[[Honey]]'
p9
I21
sS'[[Vanilla Ice Cream]]'
p10
I28
sS'[[Lure]]'
p11
I42
sS'[[Carrot Pie]]'
p12
I12
sS'[[Tomato]]'
p13
I22
sS'[[Potato]]'
p14
I72
sS'[[Cheesecake]]'
p15
I86
sS'[[Fish Pie]]'
p16
I13
sS'[[Pancake]]'
p17
I29
sS'[[Popcorn]]'
p18
I43
sS'[[Goat Cheese]]'
p19
I40
sS'[[Potato Bread]]'
p20
I80
sS'[[Goat Feed]]'
p21
I83
sS'[[Red Berry Cake]]'
p22
I36
sS'[[Pizza]]'
p23
I70
sS'[[Syrup]]'
p24
I60
sS'[[Sheep Feed]]'
p25
I1
sS'[[Cherry Popsicle]]'
p26
I30
sS'[[Bacon and Eggs]]'
p27
I32
sS'[[Carrot]]'
p28
I7
sS'[[Carrot Juice]]'
p29
I16
sS'[[Baked Potato]]'
p30
I76
sS'[[Milk]]'
p31
I45
sS'[[Apple Jam]]'
p32
I79
sS'[[Apple]]'
p33
I5
sS'[[Blackberry]]'
p34
I77
sS'[[Cotton Shirt]]'
p35
I51
sS'[[Cream]]'
p36
I75
sS'[[Raspberry Jam]]'
p37
I84
sS'[[Cherry]]'
p38
I35
sS'[[Bread]]'
p39
I41
sS'[[Wheat]]'
p40
I39
sS'[[Casserole]]'
p41
I74
sS'[[Strawberry]]'
p42
I52
sS'[[Honey Popcorn]]'
p43
I81
sS'[[Honeycomb]]'
p44
I34
sS'[[Indigo]]'
p45
I26
sS'[[Raspberry]]'
p46
I33
sS'[[Chocolate Cake]]'
p47
I68
sS'[[Spicy Pizza]]'
p48
I37
sS'[[Cacao]]'
p49
I63
sS'[[Woolly Chaps]]'
p50
I11
sS'[[Carrot Cake]]'
p51
I15
sS'[[Egg]]'
p52
I67
sS'[[Strawberry Cake]]'
p53
I64
sS'[[Cherry Juice]]'
p54
I24
sS'[[Fish Burger]]'
p55
I89
sS'[[White Sugar]]'
p56
I0
sS'[[Buttered Popcorn]]'
p57
I10
sS'[[Cream Cake]]'
p58
I17
sS'[[Soybean]]'
p59
I47
sS'[[Brown Sugar]]'
p60
I73
sS'[[Blue Woolly Hat]]'
p61
I58
sS'[[Goat Milk]]'
p62
I23
sS'[[Hamburger]]'
p63
I38
sS'[[Cherry Jam]]'
p64
I55
sS"[[Shepherd's Pie]]"
p65
I85
sS'[[Butter]]'
p66
I19
sS'[[Bacon Pie]]'
p67
I56
sS'[[Chili Pepper]]'
p68
I61
sS'[[Corn]]'
p69
I3
sS'[[Fish Fillet]]'
p70
I49
sS'[[Chili Popcorn]]'
p71
I78
sS'[[Bacon]]'
p72
I9
sS'[[Cotton Fabric]]'
p73
I62
sS'[[Pumpkin Pie]]'
p74
I69
sS'[[Potato Feta Cake]]'
p75
I66
sS'[[Sugarcane]]'
p76
I2
sS'[[Cookie]]'
p77
I4
sS'[[Apple Juice]]'
p78
I90
sS'[[Pig Feed]]'
p79
I46
sS'[[Cotton]]'
p80
I65
sS'[[Feta Pie]]'
p81
I14
sS'[[Cheese]]'
p82
I25
sS'[[Chocolate Ice Cream]]'
p83
I71
sS'[[Chicken Feed]]'
p84
I20
sS'[[Corn Bread]]'
p85
I82
sS'[[Wool]]'
p86
I87
sS'[[Roasted Tomatoes]]'
p87
I53
sS'[[Berry Juice]]'
p88
I88
sS'[[Sweater]]'
p89
I31
sS'[[Blackberry Muffin]]'
p90
I59
sS'[[Cow Feed]]'
p91
I54
s.(dp0
S'[[Potato Feta Cake]]'
p1
I4
sS'[[Strawberry Ice Cream]]'
p2
I1
sS'[[Strawberry]]'
p3
I0
sS'[[Woolly Chaps]]'
p4
I2
sS'[[Carrot Cake]]'
p5
I2
sS'[[Bacon and Eggs]]'
p6
I4
sS'[[Cherry Juice]]'
p7
I1
sS'[[Egg]]'
p8
I0
sS'[[Carrot Juice]]'
p9
I0
sS'[[Baked Potato]]'
p10
I4
sS'[[Honeycomb]]'
p11
I3
sS'[[Vanilla Ice Cream]]'
p12
I5
sS'[[Blackberry Muffin]]'
p13
I2
sS'[[Bacon Pie]]'
p14
I4
sS"[[Shepherd's Pie]]"
p15
I5
s.