(dp0
S'[[Pumpkin]]'
p1
I21
sS'[[Blackberry Jam]]'
p2
I42
sS'[[Violet Dress]]'
p3
I29
sS'[[Strawberry Ice Cream]]'
p4
I57
sS'[[Raspberry Muffin]]'
p5
I85
sS'[[Apple Pie]]'
p6
I36
sS'[[Tomato Juice]]'
p7
I16
sS'[[Blue Sweater]]'
p8
I25
sS'[[Honey]]'
p9
I44
sS'[[Vanilla Ice Cream]]'
p10
I26
sS'[[Lure]]'
p11
I7
sS'[[Carrot Pie]]'
p12
I19
sS'[[Tomato]]'
p13
I70
sS'[[Potato]]'
p14
I1
sS'[[Cheesecake]]'
p15
I18
sS'[[Fish Pie]]'
p16
I71
sS'[[Pancake]]'
p17
I82
sS'[[Popcorn]]'
p18
I30
sS'[[Goat Cheese]]'
p19
I52
sS'[[Potato Bread]]'
p20
I67
sS'[[Goat Feed]]'
p21
I11
sS'[[Red Berry Cake]]'
p22
I60
sS'[[Pizza]]'
p23
I24
sS'[[Syrup]]'
p24
I76
sS'[[Sheep Feed]]'
p25
I40
sS'[[Cherry Popsicle]]'
p26
I41
sS'[[Bacon and Eggs]]'
p27
I45
sS'[[Carrot]]'
p28
I23
sS'[[Carrot Juice]]'
p29
I84
sS'[[Baked Potato]]'
p30
I34
sS'[[Milk]]'
p31
I79
sS'[[Apple Jam]]'
p32
I54
sS'[[Apple]]'
p33
I66
sS'[[Blackberry]]'
p34
I38
sS'[[Cotton Shirt]]'
p35
I72
sS'[[Cream]]'
p36
I28
sS'[[Raspberry Jam]]'
p37
I68
sS'[[Cherry]]'
p38
I31
sS'[[Bread]]'
p39
I8
sS'[[Wheat]]'
p40
I75
sS'[[Casserole]]'
p41
I49
sS'[[Strawberry]]'
p42
I27
sS'[[Honey Popcorn]]'
p43
I12
sS'[[Honeycomb]]'
p44
I35
sS'[[Indigo]]'
p45
I58
sS'[[Raspberry]]'
p46
I48
sS'[[Chocolate Cake]]'
p47
I69
sS'[[Spicy Pizza]]'
p48
I86
sS'[[Cacao]]'
p49
I5
sS'[[Woolly Chaps]]'
p50
I9
sS'[[Carrot Cake]]'
p51
I83
sS'[[Egg]]'
p52
I56
sS'[[Strawberry Cake]]'
p53
I13
sS'[[Cherry Juice]]'
p54
I65
sS'[[Fish Burger]]'
p55
I37
sS'[[White Sugar]]'
p56
I87
sS'[[Buttered Popcorn]]'
p57
I62
sS'[[Cream Cake]]'
p58
I47
sS'[[Soybean]]'
p59
I2
sS'[[Brown Sugar]]'
p60
I78
sS'[[Blue Woolly Hat]]'
p61
I61
sS'[[Goat Milk]]'
p62
I14
sS'[[Hamburger]]'
p63
I3
sS'[[Cherry Jam]]'
p64
I89
sS"[[Shepherd's Pie]]"
p65
I90
sS'[[Butter]]'
p66
I80
sS'[[Bacon Pie]]'
p67
I77
sS'[[Chili Pepper]]'
p68
I17
sS'[[Corn]]'
p69
I59
sS'[[Fish Fillet]]'
p70
I51
sS'[[Chili Popcorn]]'
p71
I15
sS'[[Bacon]]'
p72
I43
sS'[[Cotton Fabric]]'
p73
I0
sS'[[Pumpkin Pie]]'
p74
I10
sS'[[Potato Feta Cake]]'
p75
I53
sS'[[Sugarcane]]'
p76
I55
sS'[[Cookie]]'
p77
I63
sS'[[Apple Juice]]'
p78
I46
sS'[[Pig Feed]]'
p79
I73
sS'[[Cotton]]'
p80
I32
sS'[[Feta Pie]]'
p81
I39
sS'[[Cheese]]'
p82
I4
sS'[[Chocolate Ice Cream]]'
p83
I64
sS'[[Chicken Feed]]'
p84
I88
sS'[[Corn Bread]]'
p85
I20
sS'[[Wool]]'
p86
I33
sS'[[Roasted Tomatoes]]'
p87
I81
sS'[[Berry Juice]]'
p88
I50
sS'[[Sweater]]'
p89
I22
sS'[[Blackberry Muffin]]'
p90
I74
sS'[[Cow Feed]]'
p91
I6
s.(dp0
S'[[Popcorn]]'
p1
I3
sS'[[Chili Pepper]]'
p2
I0
sS'[[Carrot]]'
p3
I2
sS'[[Carrot Cake]]'
p4
I2
sS'[[Strawberry Cake]]'
p5
I5
sS'[[Apple Pie]]'
p6
I4
sS'[[Cotton Shirt]]'
p7
I4
sS'[[Carrot Juice]]'
p8
I0
sS'[[Goat Cheese]]'
p9
I1
sS'[[Buttered Popcorn]]'
p10
I0
sS'[[Chocolate Cake]]'
p11
I4
sS"[[Shepherd's Pie]]"
p12
I3
sS'[[Violet Dress]]'
p13
I3
s.