(dp0
S'[[Carrot]]'
p1
I38
sS'[[Apple Pie]]'
p2
I87
sS'[[Cacao]]'
p3
I33
sS'[[Woolly Chaps]]'
p4
I71
sS'[[Carrot Cake]]'
p5
I70
sS'[[Blackberry Jam]]'
p6
I41
sS'[[Strawberry Cake]]'
p7
I69
sS'[[Cherry Juice]]'
p8
I76
sS'[[Fish Burger]]'
p9
I27
sS'[[Tomato Juice]]'
p10
I4
sS'[[Buttered Popcorn]]'
p11
I43
sS'[[Cream Cake]]'
p12
I11
sS'[[Violet Dress]]'
p13
I52
sS'[[Soybean]]'
p14
I28
sS'[[Apple]]'
p15
I21
sS'[[Strawberry Ice Cream]]'
p16
I58
sS'[[Raspberry Muffin]]'
p17
I25
sS'[[Blue Woolly Hat]]'
p18
I64
sS'[[Goat Milk]]'
p19
I57
sS'[[Hamburger]]'
p20
I31
sS'[[White Sugar]]'
p21
I16
sS'[[Cherry Jam]]'
p22
I83
sS'[[Vanilla Ice Cream]]'
p23
I55
sS'[[Lure]]'
p24
I46
sS'[[Carrot Pie]]'
p25
I40
sS"[[Shepherd's Pie]]"
p26
I32
sS'[[Milk]]'
p27
I42
sS'[[Tomato]]'
p28
I9
sS'[[Potato]]'
p29
I34
sS'[[Cheesecake]]'
p30
I84
sS'[[Fish Pie]]'
p31
I24
sS'[[Butter]]'
p32
I62
sS'[[Pancake]]'
p33
I5
sS'[[Bacon Pie]]'
p34
I20
sS'[[Chili Pepper]]'
p35
I59
sS'[[Pumpkin Pie]]'
p36
I75
sS'[[Corn]]'
p37
I85
sS'[[Popcorn]]'
p38
I26
sS'[[Fish Fillet]]'
p39
I68
sS'[[Egg]]'
p40
I82
sS'[[Chili Popcorn]]'
p41
I50
sS'[[Honey]]'
p42
I3
sS'[[Goat Cheese]]'
p43
I67
sS'[[Bacon]]'
p44
I79
sS'[[Cotton Fabric]]'
p45
I23
sS'[[Potato Bread]]'
p46
I72
sS'[[Goat Feed]]'
p47
I2
sS'[[Blue Sweater]]'
p48
I81
sS'[[Honey Popcorn]]'
p49
I7
sS'[[Red Berry Cake]]'
p50
I12
sS'[[Cookie]]'
p51
I63
sS'[[Pizza]]'
p52
I60
sS'[[Syrup]]'
p53
I80
sS'[[Pig Feed]]'
p54
I74
sS'[[Sheep Feed]]'
p55
I90
sS'[[Apple Juice]]'
p56
I10
sS'[[Cherry Popsicle]]'
p57
I65
sS'[[Bacon and Eggs]]'
p58
I19
sS'[[Cotton]]'
p59
I0
sS'[[Feta Pie]]'
p60
I37
sS'[[Carrot Juice]]'
p61
I6
sS'[[Baked Potato]]'
p62
I35
sS'[[Raspberry]]'
p63
I36
sS'[[Cheese]]'
p64
I61
sS'[[Chocolate Ice Cream]]'
p65
I73
sS'[[Apple Jam]]'
p66
I56
sS'[[Chicken Feed]]'
p67
I29
sS'[[Pumpkin]]'
p68
I53
sS'[[Brown Sugar]]'
p69
I88
sS'[[Blackberry]]'
p70
I8
sS'[[Corn Bread]]'
p71
I77
sS'[[Cotton Shirt]]'
p72
I15
sS'[[Honeycomb]]'
p73
I22
sS'[[Wool]]'
p74
I47
sS'[[Raspberry Jam]]'
p75
I54
sS'[[Cherry]]'
p76
I48
sS'[[Bread]]'
p77
I30
sS'[[Wheat]]'
p78
I39
sS'[[Casserole]]'
p79
I78
sS'[[Strawberry]]'
p80
I13
sS'[[Roasted Tomatoes]]'
p81
I45
sS'[[Potato Feta Cake]]'
p82
I17
sS'[[Sugarcane]]'
p83
I49
sS'[[Berry Juice]]'
p84
I18
sS'[[Indigo]]'
p85
I14
sS'[[Cream]]'
p86
I51
sS'[[Sweater]]'
p87
I1
sS'[[Blackberry Muffin]]'
p88
I66
sS'[[Chocolate Cake]]'
p89
I89
sS'[[Cow Feed]]'
p90
I44
sS'[[Spicy Pizza]]'
p91
I86
s.(dp0
S'[[Tomato]]'
p1
I2
sS'[[Honey Popcorn]]'
p2
I4
sS'[[Woolly Chaps]]'
p3
I0
sS'[[Carrot Cake]]'
p4
I3
sS'[[Strawberry Cake]]'
p5
I2
sS'[[Apple Pie]]'
p6
I0
sS'[[Cookie]]'
p7
I4
sS'[[Fish Burger]]'
p8
I5
sS'[[Goat Cheese]]'
p9
I4
sS'[[Chocolate Ice Cream]]'
p10
I4
sS'[[Potato Bread]]'
p11
I3
sS'[[Violet Dress]]'
p12
I4
sS'[[Bacon and Eggs]]'
p13
I3
s.