(dp0
S'[[Pumpkin]]'
p1
I74
sS'[[Blackberry Jam]]'
p2
I75
sS'[[Violet Dress]]'
p3
I16
sS'[[Strawberry Ice Cream]]'
p4
I57
sS'[[Raspberry Muffin]]'
p5
I58
sS'[[Apple Pie]]'
p6
I9
sS'[[Tomato Juice]]'
p7
I64
sS'[[Carrot Cake]]'
p8
I79
sS'[[Vanilla Ice Cream]]'
p9
I7
sS'[[Lure]]'
p10
I82
sS'[[Carrot Pie]]'
p11
I15
sS'[[Tomato]]'
p12
I2
sS'[[Cherry Juice]]'
p13
I85
sS'[[Cheesecake]]'
p14
I56
sS'[[Fish Pie]]'
p15
I46
sS'[[Pancake]]'
p16
I3
sS'[[Popcorn]]'
p17
I35
sS'[[Goat Cheese]]'
p18
I53
sS'[[Potato Bread]]'
p19
I67
sS'[[Goat Feed]]'
p20
I22
sS'[[Red Berry Cake]]'
p21
I59
sS'[[Pizza]]'
p22
I10
sS'[[Syrup]]'
p23
I40
sS'[[Sheep Feed]]'
p24
I80
sS'[[Cherry Popsicle]]'
p25
I55
sS'[[Bacon and Eggs]]'
p26
I5
sS'[[Carrot Juice]]'
p27
I72
sS'[[Baked Potato]]'
p28
I88
sS'[[Milk]]'
p29
I33
sS'[[Apple Jam]]'
p30
I65
sS'[[Carrot]]'
p31
I84
sS'[[Blackberry]]'
p32
I51
sS'[[Cotton Shirt]]'
p33
I4
sS'[[Cream]]'
p34
I47
sS'[[Raspberry Jam]]'
p35
I48
sS'[[Cherry]]'
p36
I13
sS'[[Bread]]'
p37
I62
sS'[[Wheat]]'
p38
I44
sS'[[Casserole]]'
p39
I81
sS'[[Chili Pepper]]'
p40
I11
sS'[[Honey Popcorn]]'
p41
I71
sS'[[Honeycomb]]'
p42
I23
sS'[[Indigo]]'
p43
I32
sS'[[Raspberry]]'
p44
I12
sS'[[Chocolate Cake]]'
p45
I77
sS'[[Spicy Pizza]]'
p46
I78
sS'[[Cacao]]'
p47
I83
sS'[[Woolly Chaps]]'
p48
I86
sS'[[Honey]]'
p49
I20
sS'[[Egg]]'
p50
I37
sS'[[Strawberry Cake]]'
p51
I41
sS'[[Potato]]'
p52
I28
sS'[[Fish Burger]]'
p53
I14
sS'[[White Sugar]]'
p54
I25
sS'[[Buttered Popcorn]]'
p55
I30
sS'[[Cream Cake]]'
p56
I70
sS'[[Soybean]]'
p57
I61
sS'[[Apple]]'
p58
I6
sS'[[Blue Woolly Hat]]'
p59
I0
sS'[[Goat Milk]]'
p60
I54
sS'[[Hamburger]]'
p61
I76
sS'[[Cherry Jam]]'
p62
I26
sS"[[Shepherd's Pie]]"
p63
I34
sS'[[Brown Sugar]]'
p64
I36
sS'[[Butter]]'
p65
I31
sS'[[Bacon Pie]]'
p66
I63
sS'[[Strawberry]]'
p67
I19
sS'[[Pumpkin Pie]]'
p68
I66
sS'[[Corn]]'
p69
I1
sS'[[Fish Fillet]]'
p70
I27
sS'[[Chili Popcorn]]'
p71
I52
sS'[[Sugarcane]]'
p72
I39
sS'[[Cotton Fabric]]'
p73
I90
sS'[[Blue Sweater]]'
p74
I89
sS'[[Potato Feta Cake]]'
p75
I68
sS'[[Cookie]]'
p76
I21
sS'[[Apple Juice]]'
p77
I29
sS'[[Pig Feed]]'
p78
I50
sS'[[Cotton]]'
p79
I18
sS'[[Feta Pie]]'
p80
I24
sS'[[Cheese]]'
p81
I45
sS'[[Chocolate Ice Cream]]'
p82
I69
sS'[[Bacon]]'
p83
I38
sS'[[Chicken Feed]]'
p84
I49
sS'[[Corn Bread]]'
p85
I8
sS'[[Wool]]'
p86
I43
sS'[[Roasted Tomatoes]]'
p87
I73
sS'[[Berry Juice]]'
p88
I42
sS'[[Sweater]]'
p89
I17
sS'[[Blackberry Muffin]]'
p90
I60
sS'[[Cow Feed]]'
p91
I87
s.(dp0
S'[[Pumpkin Pie]]'
p1
I5
sS'[[Chicken Feed]]'
p2
I5
sS'[[Strawberry Ice Cream]]'
p3
I1
sS'[[Roasted Tomatoes]]'
p4
I4
sS'[[Carrot Cake]]'
p5
I1
sS'[[Blue Woolly Hat]]'
p6
I5
sS'[[Honey Popcorn]]'
p7
I4
sS'[[Feta Pie]]'
p8
I5
sS'[[Chili Popcorn]]'
p9
I4
sS'[[Vanilla Ice Cream]]'
p10
I4
sS'[[Buttered Popcorn]]'
p11
I1
sS'[[Popcorn]]'
p12
I4
sS'[[Potato Bread]]'
p13
I2
s.