(dp0
S'[[Pumpkin]]'
p1
I57
sS'[[Blackberry Jam]]'
p2
I50
sS'[[Violet Dress]]'
p3
I9
sS'[[Strawberry Ice Cream]]'
p4
I72
sS'[[Raspberry Muffin]]'
p5
I21
sS'[[Apple Pie]]'
p6
I19
sS'[[Tomato Juice]]'
p7
I59
sS'[[Carrot Cake]]'
p8
I25
sS'[[Vanilla Ice Cream]]'
p9
I18
sS'[[Lure]]'
p10
I12
sS'[[Carrot Pie]]'
p11
I52
sS'[[Tomato]]'
p12
I2
sS'[[Cherry Juice]]'
p13
I73
sS'[[Cheesecake]]'
p14
I76
sS'[[Fish Pie]]'
p15
I29
sS'[[Pancake]]'
p16
I80
sS'[[Popcorn]]'
p17
I5
sS'[[Goat Cheese]]'
p18
I22
sS'[[Potato Bread]]'
p19
I15
sS'[[Goat Feed]]'
p20
I6
sS'[[Red Berry Cake]]'
p21
I63
sS'[[Pizza]]'
p22
I90
sS'[[Syrup]]'
p23
I77
sS'[[Sheep Feed]]'
p24
I53
sS'[[Cherry Popsicle]]'
p25
I64
sS'[[Bacon and Eggs]]'
p26
I88
sS'[[Carrot Juice]]'
p27
I35
sS'[[Baked Potato]]'
p28
I37
sS'[[Milk]]'
p29
I61
sS'[[Apple Jam]]'
p30
I41
sS'[[Carrot]]'
p31
I20
sS'[[Blackberry]]'
p32
I79
sS'[[Cotton Shirt]]'
p33
I60
sS'[[Cream]]'
p34
I1
sS'[[Raspberry Jam]]'
p35
I30
sS'[[Cherry]]'
p36
I55
sS'[[Bread]]'
p37
I82
sS'[[Wheat]]'
p38
I38
sS'[[Casserole]]'
p39
I39
sS'[[Chili Pepper]]'
p40
I17
sS'[[Honey Popcorn]]'
p41
I34
sS'[[Honeycomb]]'
p42
I89
sS'[[Indigo]]'
p43
I27
sS'[[Raspberry]]'
p44
I11
sS'[[Chocolate Cake]]'
p45
I8
sS'[[Spicy Pizza]]'
p46
I16
sS'[[Cacao]]'
p47
I78
sS'[[Woolly Chaps]]'
p48
I0
sS'[[Honey]]'
p49
I33
sS'[[Egg]]'
p50
I70
sS'[[Strawberry Cake]]'
p51
I45
sS'[[Potato]]'
p52
I62
sS'[[Fish Burger]]'
p53
I13
sS'[[White Sugar]]'
p54
I54
sS'[[Buttered Popcorn]]'
p55
I40
sS'[[Cream Cake]]'
p56
I31
sS'[[Soybean]]'
p57
I49
sS'[[Apple]]'
p58
I74
sS'[[Blue Woolly Hat]]'
p59
I87
sS'[[Goat Milk]]'
p60
I75
sS'[[Hamburger]]'
p61
I81
sS'[[Cherry Jam]]'
p62
I71
sS"[[Shepherd's Pie]]"
p63
I84
sS'[[Brown Sugar]]'
p64
I65
sS'[[Butter]]'
p65
I83
sS'[[Bacon Pie]]'
p66
I51
sS'[[Strawberry]]'
p67
I56
sS'[[Pumpkin Pie]]'
p68
I58
sS'[[Corn]]'
p69
I26
sS'[[Fish Fillet]]'
p70
I32
sS'[[Chili Popcorn]]'
p71
I68
sS'[[Sugarcane]]'
p72
I46
sS'[[Cotton Fabric]]'
p73
I7
sS'[[Blue Sweater]]'
p74
I86
sS'[[Potato Feta Cake]]'
p75
I36
sS'[[Cookie]]'
p76
I14
sS'[[Apple Juice]]'
p77
I24
sS'[[Pig Feed]]'
p78
I44
sS'[[Cotton]]'
p79
I85
sS'[[Feta Pie]]'
p80
I43
sS'[[Cheese]]'
p81
I10
sS'[[Chocolate Ice Cream]]'
p82
I66
sS'[[Bacon]]'
p83
I28
sS'[[Chicken Feed]]'
p84
I3
sS'[[Corn Bread]]'
p85
I69
sS'[[Wool]]'
p86
I23
sS'[[Roasted Tomatoes]]'
p87
I42
sS'[[Berry Juice]]'
p88
I48
sS'[[Sweater]]'
p89
I67
sS'[[Blackberry Muffin]]'
p90
I47
sS'[[Cow Feed]]'
p91
I4
s.(dp0
S'[[Lure]]'
p1
I0
sS'[[Roasted Tomatoes]]'
p2
I2
sS'[[Woolly Chaps]]'
p3
I5
sS'[[Carrot Cake]]'
p4
I5
sS'[[Blackberry]]'
p5
I4
sS'[[Blue Woolly Hat]]'
p6
I0
sS'[[Fish Pie]]'
p7
I0
sS'[[Chili Popcorn]]'
p8
I3
sS'[[Honeycomb]]'
p9
I5
sS'[[Chocolate Ice Cream]]'
p10
I5
sS'[[Bacon Pie]]'
p11
I4
sS'[[Violet Dress]]'
p12
I0
sS'[[Strawberry Cake]]'
p13
I2
s.