(dp0
S'[[Pumpkin]]'
p1
I31
sS'[[Carrot Pie]]'
p2
I57
sS'[[Violet Dress]]'
p3
I18
sS'[[Strawberry Ice Cream]]'
p4
I84
sS'[[Raspberry Muffin]]'
p5
I37
sS'[[Woolly Chaps]]'
p6
I72
sS'[[Tomato Juice]]'
p7
I59
sS'[[Honey]]'
p8
I58
sS'[[Vanilla Ice Cream]]'
p9
I66
sS'[[Lure]]'
p10
I64
sS'[[Blackberry Jam]]'
p11
I7
sS'[[Tomato]]'
p12
I29
sS'[[Potato]]'
p13
I52
sS'[[Cheesecake]]'
p14
I8
sS'[[Fish Pie]]'
p15
I10
sS'[[Pancake]]'
p16
I6
sS'[[Popcorn]]'
p17
I34
sS'[[Goat Cheese]]'
p18
I65
sS'[[Potato Bread]]'
p19
I0
sS'[[Goat Feed]]'
p20
I79
sS'[[Red Berry Cake]]'
p21
I62
sS'[[Pizza]]'
p22
I16
sS'[[Syrup]]'
p23
I54
sS'[[Sheep Feed]]'
p24
I42
sS'[[Cherry Popsicle]]'
p25
I48
sS'[[Bacon and Eggs]]'
p26
I41
sS'[[Carrot Juice]]'
p27
I88
sS'[[Baked Potato]]'
p28
I36
sS'[[Milk]]'
p29
I23
sS'[[Apple Jam]]'
p30
I15
sS'[[Carrot]]'
p31
I61
sS'[[Blackberry]]'
p32
I49
sS'[[Cotton Shirt]]'
p33
I67
sS'[[Cream]]'
p34
I24
sS'[[Raspberry Jam]]'
p35
I4
sS'[[Cherry]]'
p36
I32
sS'[[Bread]]'
p37
I75
sS'[[Wheat]]'
p38
I17
sS'[[Casserole]]'
p39
I78
sS'[[Strawberry]]'
p40
I68
sS'[[Potato Feta Cake]]'
p41
I40
sS'[[Spicy Pizza]]'
p42
I89
sS'[[Indigo]]'
p43
I77
sS'[[Raspberry]]'
p44
I90
sS'[[Chocolate Cake]]'
p45
I69
sS'[[Apple Pie]]'
p46
I81
sS'[[Cacao]]'
p47
I47
sS'[[Blue Sweater]]'
p48
I21
sS'[[Carrot Cake]]'
p49
I12
sS'[[Egg]]'
p50
I19
sS'[[Strawberry Cake]]'
p51
I45
sS'[[Cherry Juice]]'
p52
I55
sS'[[Fish Burger]]'
p53
I3
sS'[[White Sugar]]'
p54
I43
sS'[[Buttered Popcorn]]'
p55
I73
sS'[[Cream Cake]]'
p56
I9
sS'[[Soybean]]'
p57
I60
sS'[[Brown Sugar]]'
p58
I35
sS'[[Blue Woolly Hat]]'
p59
I13
sS'[[Goat Milk]]'
p60
I2
sS'[[Hamburger]]'
p61
I63
sS'[[Cherry Jam]]'
p62
I26
sS"[[Shepherd's Pie]]"
p63
I56
sS'[[Apple]]'
p64
I80
sS'[[Butter]]'
p65
I71
sS'[[Bacon Pie]]'
p66
I20
sS'[[Chili Pepper]]'
p67
I85
sS'[[Corn]]'
p68
I87
sS'[[Fish Fillet]]'
p69
I11
sS'[[Chili Popcorn]]'
p70
I1
sS'[[Bacon]]'
p71
I27
sS'[[Cotton Fabric]]'
p72
I86
sS'[[Pumpkin Pie]]'
p73
I83
sS'[[Honey Popcorn]]'
p74
I53
sS'[[Sugarcane]]'
p75
I39
sS'[[Cookie]]'
p76
I51
sS'[[Apple Juice]]'
p77
I74
sS'[[Pig Feed]]'
p78
I82
sS'[[Cotton]]'
p79
I70
sS'[[Feta Pie]]'
p80
I46
sS'[[Cheese]]'
p81
I25
sS'[[Chocolate Ice Cream]]'
p82
I5
sS'[[Chicken Feed]]'
p83
I22
sS'[[Corn Bread]]'
p84
I50
sS'[[Honeycomb]]'
p85
I14
sS'[[Wool]]'
p86
I76
sS'[[Roasted Tomatoes]]'
p87
I33
sS'[[Berry Juice]]'
p88
I30
sS'[[Sweater]]'
p89
I44
sS'[[Blackberry Muffin]]'
p90
I38
sS'[[Cow Feed]]'
p91
I28
s.(dp0
S'[[Pumpkin Pie]]'
p1
I5
sS'[[Casserole]]'
p2
I2
sS'[[Apple Pie]]'
p3
I5
sS'[[Cheesecake]]'
p4
I0
sS'[[Cherry Popsicle]]'
p5
I3
sS'[[Potato Feta Cake]]'
p6
I4
sS'[[Cookie]]'
p7
I5
sS'[[Baked Potato]]'
p8
I4
sS'[[Cherry]]'
p9
I4
sS'[[Bread]]'
p10
I2
s.