(dp0
S'[[Pumpkin]]'
p1
I34
sS'[[Blackberry Jam]]'
p2
I27
sS'[[Violet Dress]]'
p3
I49
sS'[[Strawberry Ice Cream]]'
p4
I64
sS'[[Raspberry Muffin]]'
p5
I8
sS'[[Apple Pie]]'
p6
I22
sS'[[Tomato Juice]]'
p7
I12
sS'[[Blue Sweater]]'
p8
I66
sS'[[Honey]]'
p9
I39
sS'[[Vanilla Ice Cream]]'
p10
I61
sS'[[Lure]]'
p11
I60
sS'[[Carrot Pie]]'
p12
I78
sS'[[Tomato]]'
p13
I88
sS'[[Potato]]'
p14
I72
sS'[[Cheesecake]]'
p15
I17
sS'[[Fish Pie]]'
p16
I65
sS'[[Pancake]]'
p17
I36
sS'[[Popcorn]]'
p18
I86
sS'[[Goat Cheese]]'
p19
I84
sS'[[Potato Bread]]'
p20
I56
sS'[[Goat Feed]]'
p21
I58
sS'[[Red Berry Cake]]'
p22
I52
sS'[[Pizza]]'
p23
I82
sS'[[Syrup]]'
p24
I7
sS'[[Sheep Feed]]'
p25
I53
sS'[[Cherry Popsicle]]'
p26
I11
sS'[[Bacon and Eggs]]'
p27
I32
sS'[[Carrot]]'
p28
I74
sS'[[Carrot Juice]]'
p29
I42
sS'[[Baked Potato]]'
p30
I21
sS'[[Milk]]'
p31
I77
sS'[[Apple Jam]]'
p32
I31
sS'[[Apple]]'
p33
I68
sS'[[Blackberry]]'
p34
I50
sS'[[Cotton Shirt]]'
p35
I70
sS'[[Cream]]'
p36
I47
sS'[[Raspberry Jam]]'
p37
I90
sS'[[Cherry]]'
p38
I24
sS'[[Bread]]'
p39
I28
sS'[[Wheat]]'
p40
I76
sS'[[Casserole]]'
p41
I30
sS'[[Strawberry]]'
p42
I83
sS'[[Honey Popcorn]]'
p43
I73
sS'[[Honeycomb]]'
p44
I79
sS'[[Indigo]]'
p45
I25
sS'[[Raspberry]]'
p46
I16
sS'[[Chocolate Cake]]'
p47
I40
sS'[[Spicy Pizza]]'
p48
I19
sS'[[Cacao]]'
p49
I59
sS'[[Woolly Chaps]]'
p50
I29
sS'[[Carrot Cake]]'
p51
I35
sS'[[Egg]]'
p52
I23
sS'[[Strawberry Cake]]'
p53
I44
sS'[[Cherry Juice]]'
p54
I55
sS'[[Fish Burger]]'
p55
I26
sS'[[White Sugar]]'
p56
I4
sS'[[Buttered Popcorn]]'
p57
I81
sS'[[Cream Cake]]'
p58
I3
sS'[[Soybean]]'
p59
I10
sS'[[Brown Sugar]]'
p60
I62
sS'[[Blue Woolly Hat]]'
p61
I45
sS'[[Goat Milk]]'
p62
I2
sS'[[Hamburger]]'
p63
I33
sS'[[Cherry Jam]]'
p64
I0
sS"[[Shepherd's Pie]]"
p65
I51
sS'[[Butter]]'
p66
I80
sS'[[Bacon Pie]]'
p67
I57
sS'[[Chili Pepper]]'
p68
I63
sS'[[Corn]]'
p69
I85
sS'[[Fish Fillet]]'
p70
I6
sS'[[Chili Popcorn]]'
p71
I87
sS'[[Bacon]]'
p72
I41
sS'[[Cotton Fabric]]'
p73
I5
sS'[[Pumpkin Pie]]'
p74
I9
sS'[[Potato Feta Cake]]'
p75
I71
sS'[[Sugarcane]]'
p76
I75
sS'[[Cookie]]'
p77
I37
sS'[[Apple Juice]]'
p78
I15
sS'[[Pig Feed]]'
p79
I48
sS'[[Cotton]]'
p80
I67
sS'[[Feta Pie]]'
p81
I20
sS'[[Cheese]]'
p82
I1
sS'[[Chocolate Ice Cream]]'
p83
I18
sS'[[Chicken Feed]]'
p84
I43
sS'[[Corn Bread]]'
p85
I69
sS'[[Wool]]'
p86
I46
sS'[[Roasted Tomatoes]]'
p87
I14
sS'[[Berry Juice]]'
p88
I13
sS'[[Sweater]]'
p89
I54
sS'[[Blackberry Muffin]]'
p90
I89
sS'[[Cow Feed]]'
p91
I38
s.(dp0
S'[[Corn]]'
p1
I1
sS'[[Potato Bread]]'
p2
I5
sS'[[Fish Fillet]]'
p3
I3
sS'[[Roasted Tomatoes]]'
p4
I5
sS'[[Honey]]'
p5
I1
sS'[[Blackberry]]'
p6
I5
sS'[[Bacon and Eggs]]'
p7
I5
sS'[[Potato]]'
p8
I5
sS'[[Cotton Shirt]]'
p9
I5
sS'[[Honeycomb]]'
p10
I0
sS'[[Goat Cheese]]'
p11
I4
sS'[[Lure]]'
p12
I5
sS'[[Chocolate Cake]]'
p13
I2
sS'[[Cherry]]'
p14
I1
sS"[[Shepherd's Pie]]"
p15
I3
s.