(dp0
S'[[Pumpkin]]'
p1
I56
sS'[[Blackberry Jam]]'
p2
I9
sS'[[Violet Dress]]'
p3
I50
sS'[[Strawberry Ice Cream]]'
p4
I26
sS'[[Raspberry Muffin]]'
p5
I55
sS'[[Apple Pie]]'
p6
I27
sS'[[Tomato Juice]]'
p7
I62
sS'[[Carrot Cake]]'
p8
I24
sS'[[Vanilla Ice Cream]]'
p9
I23
sS'[[Lure]]'
p10
I85
sS'[[Carrot Pie]]'
p11
I36
sS'[[Tomato]]'
p12
I11
sS'[[Cherry Juice]]'
p13
I83
sS'[[Cheesecake]]'
p14
I4
sS'[[Fish Pie]]'
p15
I0
sS'[[Pancake]]'
p16
I15
sS'[[Popcorn]]'
p17
I65
sS'[[Goat Cheese]]'
p18
I67
sS'[[Potato Bread]]'
p19
I89
sS'[[Goat Feed]]'
p20
I49
sS'[[Red Berry Cake]]'
p21
I29
sS'[[Pizza]]'
p22
I41
sS'[[Syrup]]'
p23
I63
sS'[[Sheep Feed]]'
p24
I45
sS'[[Cherry Popsicle]]'
p25
I71
sS'[[Bacon and Eggs]]'
p26
I80
sS'[[Carrot Juice]]'
p27
I21
sS'[[Baked Potato]]'
p28
I42
sS'[[Milk]]'
p29
I48
sS'[[Apple Jam]]'
p30
I20
sS'[[Carrot]]'
p31
I39
sS'[[Blackberry]]'
p32
I25
sS'[[Cotton Shirt]]'
p33
I57
sS'[[Cream]]'
p34
I28
sS'[[Raspberry Jam]]'
p35
I82
sS'[[Cherry]]'
p36
I16
sS'[[Bread]]'
p37
I46
sS'[[Wheat]]'
p38
I52
sS'[[Casserole]]'
p39
I73
sS'[[Chili Pepper]]'
p40
I33
sS'[[Honey Popcorn]]'
p41
I34
sS'[[Honeycomb]]'
p42
I79
sS'[[Indigo]]'
p43
I10
sS'[[Raspberry]]'
p44
I53
sS'[[Chocolate Cake]]'
p45
I72
sS'[[Spicy Pizza]]'
p46
I51
sS'[[Cacao]]'
p47
I86
sS'[[Woolly Chaps]]'
p48
I76
sS'[[Honey]]'
p49
I59
sS'[[Egg]]'
p50
I58
sS'[[Strawberry Cake]]'
p51
I35
sS'[[Potato]]'
p52
I2
sS'[[Fish Burger]]'
p53
I84
sS'[[White Sugar]]'
p54
I90
sS'[[Buttered Popcorn]]'
p55
I14
sS'[[Cream Cake]]'
p56
I60
sS'[[Soybean]]'
p57
I19
sS'[[Apple]]'
p58
I54
sS'[[Blue Woolly Hat]]'
p59
I81
sS'[[Goat Milk]]'
p60
I40
sS'[[Hamburger]]'
p61
I75
sS'[[Cherry Jam]]'
p62
I5
sS"[[Shepherd's Pie]]"
p63
I6
sS'[[Brown Sugar]]'
p64
I8
sS'[[Butter]]'
p65
I17
sS'[[Bacon Pie]]'
p66
I22
sS'[[Strawberry]]'
p67
I68
sS'[[Pumpkin Pie]]'
p68
I69
sS'[[Corn]]'
p69
I31
sS'[[Fish Fillet]]'
p70
I37
sS'[[Chili Popcorn]]'
p71
I1
sS'[[Bacon]]'
p72
I43
sS'[[Cotton Fabric]]'
p73
I18
sS'[[Blue Sweater]]'
p74
I13
sS'[[Potato Feta Cake]]'
p75
I87
sS'[[Sugarcane]]'
p76
I77
sS'[[Cookie]]'
p77
I30
sS'[[Apple Juice]]'
p78
I44
sS'[[Pig Feed]]'
p79
I78
sS'[[Cotton]]'
p80
I88
sS'[[Feta Pie]]'
p81
I38
sS'[[Cheese]]'
p82
I66
sS'[[Chocolate Ice Cream]]'
p83
I70
sS'[[Chicken Feed]]'
p84
I74
sS'[[Corn Bread]]'
p85
I61
sS'[[Wool]]'
p86
I3
sS'[[Roasted Tomatoes]]'
p87
I32
sS'[[Berry Juice]]'
p88
I47
sS'[[Sweater]]'
p89
I12
sS'[[Blackberry Muffin]]'
p90
I64
sS'[[Cow Feed]]'
p91
I7
s.(dp0
S'[[Blue Sweater]]'
p1
I5
sS'[[Bread]]'
p2
I2
sS'[[Cherry Popsicle]]'
p3
I4
sS'[[Blackberry Jam]]'
p4
I3
sS'[[Strawberry Cake]]'
p5
I1
sS'[[Honey Popcorn]]'
p6
I4
sS'[[Feta Pie]]'
p7
I4
sS'[[Cotton Shirt]]'
p8
I4
sS'[[Baked Potato]]'
p9
I1
sS'[[Cow Feed]]'
p10
I4
sS'[[Potato Bread]]'
p11
I2
sS'[[Sugarcane]]'
p12
I0
sS'[[Egg]]'
p13
I5
sS'[[Pizza]]'
p14
I1
sS'[[Violet Dress]]'
p15
I2
s.