(dp0
S'[[Pumpkin]]'
p1
I64
sS'[[Blackberry Jam]]'
p2
I81
sS'[[Violet Dress]]'
p3
I29
sS'[[Strawberry Ice Cream]]'
p4
I19
sS'[[Raspberry Muffin]]'
p5
I11
sS'[[Apple Pie]]'
p6
I41
sS'[[Tomato Juice]]'
p7
I63
sS'[[Blue Sweater]]'
p8
I16
sS'[[Honey]]'
p9
I21
sS'[[Vanilla Ice Cream]]'
p10
I5
sS'[[Lure]]'
p11
I78
sS'[[Carrot Pie]]'
p12
I20
sS'[[Tomato]]'
p13
I7
sS'[[Potato]]'
p14
I2
sS'[[Cheesecake]]'
p15
I72
sS'[[Fish Pie]]'
p16
I53
sS'[[Pancake]]'
p17
I43
sS'[[Popcorn]]'
p18
I70
sS'[[Goat Cheese]]'
p19
I75
sS'[[Potato Bread]]'
p20
I27
sS'[[Goat Feed]]'
p21
I59
sS'[[Red Berry Cake]]'
p22
I4
sS'[[Pizza]]'
p23
I57
sS'[[Syrup]]'
p24
I60
sS'[[Sheep Feed]]'
p25
I38
sS'[[Cherry Popsicle]]'
p26
I26
sS'[[Bacon and Eggs]]'
p27
I49
sS'[[Carrot]]'
p28
I35
sS'[[Carrot Juice]]'
p29
I51
sS'[[Baked Potato]]'
p30
I84
sS'[[Milk]]'
p31
I22
sS'[[Apple Jam]]'
p32
I69
sS'[[Apple]]'
p33
I80
sS'[[Blackberry]]'
p34
I65
sS'[[Cotton Shirt]]'
p35
I34
sS'[[Cream]]'
p36
I50
sS'[[Raspberry Jam]]'
p37
I76
sS'[[Cherry]]'
p38
I67
sS'[[Bread]]'
p39
I61
sS'[[Wheat]]'
p40
I42
sS'[[Casserole]]'
p41
I45
sS'[[Strawberry]]'
p42
I15
sS'[[Honey Popcorn]]'
p43
I52
sS'[[Honeycomb]]'
p44
I56
sS'[[Indigo]]'
p45
I90
sS'[[Raspberry]]'
p46
I71
sS'[[Chocolate Cake]]'
p47
I24
sS'[[Spicy Pizza]]'
p48
I73
sS'[[Cacao]]'
p49
I13
sS'[[Woolly Chaps]]'
p50
I47
sS'[[Carrot Cake]]'
p51
I89
sS'[[Egg]]'
p52
I1
sS'[[Strawberry Cake]]'
p53
I10
sS'[[Cherry Juice]]'
p54
I12
sS'[[Fish Burger]]'
p55
I36
sS'[[White Sugar]]'
p56
I32
sS'[[Buttered Popcorn]]'
p57
I37
sS'[[Cream Cake]]'
p58
I58
sS'[[Soybean]]'
p59
I0
sS'[[Brown Sugar]]'
p60
I28
sS'[[Blue Woolly Hat]]'
p61
I33
sS'[[Goat Milk]]'
p62
I55
sS'[[Hamburger]]'
p63
I39
sS'[[Cherry Jam]]'
p64
I77
sS"[[Shepherd's Pie]]"
p65
I62
sS'[[Butter]]'
p66
I30
sS'[[Bacon Pie]]'
p67
I79
sS'[[Chili Pepper]]'
p68
I23
sS'[[Corn]]'
p69
I74
sS'[[Fish Fillet]]'
p70
I40
sS'[[Chili Popcorn]]'
p71
I87
sS'[[Bacon]]'
p72
I18
sS'[[Cotton Fabric]]'
p73
I14
sS'[[Pumpkin Pie]]'
p74
I88
sS'[[Potato Feta Cake]]'
p75
I66
sS'[[Sugarcane]]'
p76
I82
sS'[[Cookie]]'
p77
I44
sS'[[Apple Juice]]'
p78
I83
sS'[[Pig Feed]]'
p79
I6
sS'[[Cotton]]'
p80
I46
sS'[[Feta Pie]]'
p81
I31
sS'[[Cheese]]'
p82
I9
sS'[[Chocolate Ice Cream]]'
p83
I25
sS'[[Chicken Feed]]'
p84
I68
sS'[[Corn Bread]]'
p85
I3
sS'[[Wool]]'
p86
I85
sS'[[Roasted Tomatoes]]'
p87
I54
sS'[[Berry Juice]]'
p88
I17
sS'[[Sweater]]'
p89
I86
sS'[[Blackberry Muffin]]'
p90
I8
sS'[[Cow Feed]]'
p91
I48
s.(dp0
S'[[Tomato]]'
p1
I2
sS'[[Corn]]'
p2
I5
sS'[[Strawberry Ice Cream]]'
p3
I5
sS'[[Strawberry]]'
p4
I3
sS'[[Woolly Chaps]]'
p5
I5
sS'[[Carrot Cake]]'
p6
I3
sS'[[Bacon and Eggs]]'
p7
I3
sS'[[Honey Popcorn]]'
p8
I4
sS'[[Cookie]]'
p9
I4
sS'[[Casserole]]'
p10
I2
sS'[[Carrot]]'
p11
I3
sS'[[Apple Jam]]'
p12
I4
s.