(dp0
S'[[Pumpkin]]'
p1
I88
sS'[[Blackberry Jam]]'
p2
I68
sS'[[Violet Dress]]'
p3
I57
sS'[[Strawberry Ice Cream]]'
p4
I82
sS'[[Raspberry Muffin]]'
p5
I2
sS'[[Apple Pie]]'
p6
I69
sS'[[Tomato Juice]]'
p7
I16
sS'[[Carrot Cake]]'
p8
I49
sS'[[Vanilla Ice Cream]]'
p9
I29
sS'[[Lure]]'
p10
I51
sS'[[Carrot Pie]]'
p11
I63
sS'[[Tomato]]'
p12
I67
sS'[[Cherry Juice]]'
p13
I20
sS'[[Cheesecake]]'
p14
I81
sS'[[Fish Pie]]'
p15
I83
sS'[[Pancake]]'
p16
I25
sS'[[Popcorn]]'
p17
I75
sS'[[Goat Cheese]]'
p18
I46
sS'[[Potato Bread]]'
p19
I3
sS'[[Goat Feed]]'
p20
I7
sS'[[Red Berry Cake]]'
p21
I34
sS'[[Pizza]]'
p22
I64
sS'[[Syrup]]'
p23
I15
sS'[[Sheep Feed]]'
p24
I32
sS'[[Cherry Popsicle]]'
p25
I11
sS'[[Bacon and Eggs]]'
p26
I86
sS'[[Carrot Juice]]'
p27
I35
sS'[[Baked Potato]]'
p28
I90
sS'[[Milk]]'
p29
I39
sS'[[Apple Jam]]'
p30
I28
sS'[[Carrot]]'
p31
I45
sS'[[Blackberry]]'
p32
I41
sS'[[Cotton Shirt]]'
p33
I27
sS'[[Cream]]'
p34
I30
sS'[[Raspberry Jam]]'
p35
I48
sS'[[Cherry]]'
p36
I9
sS'[[Bread]]'
p37
I56
sS'[[Wheat]]'
p38
I59
sS'[[Casserole]]'
p39
I74
sS'[[Chili Pepper]]'
p40
I23
sS'[[Honey Popcorn]]'
p41
I10
sS'[[Honeycomb]]'
p42
I40
sS'[[Indigo]]'
p43
I84
sS'[[Raspberry]]'
p44
I24
sS'[[Chocolate Cake]]'
p45
I58
sS'[[Spicy Pizza]]'
p46
I55
sS'[[Cacao]]'
p47
I79
sS'[[Woolly Chaps]]'
p48
I80
sS'[[Honey]]'
p49
I12
sS'[[Egg]]'
p50
I70
sS'[[Strawberry Cake]]'
p51
I17
sS'[[Potato]]'
p52
I50
sS'[[Fish Burger]]'
p53
I61
sS'[[White Sugar]]'
p54
I76
sS'[[Buttered Popcorn]]'
p55
I21
sS'[[Cream Cake]]'
p56
I89
sS'[[Soybean]]'
p57
I26
sS'[[Apple]]'
p58
I78
sS'[[Blue Woolly Hat]]'
p59
I53
sS'[[Goat Milk]]'
p60
I18
sS'[[Hamburger]]'
p61
I72
sS'[[Cherry Jam]]'
p62
I87
sS"[[Shepherd's Pie]]"
p63
I31
sS'[[Brown Sugar]]'
p64
I13
sS'[[Butter]]'
p65
I47
sS'[[Bacon Pie]]'
p66
I60
sS'[[Strawberry]]'
p67
I8
sS'[[Pumpkin Pie]]'
p68
I62
sS'[[Corn]]'
p69
I65
sS'[[Fish Fillet]]'
p70
I14
sS'[[Chili Popcorn]]'
p71
I77
sS'[[Sugarcane]]'
p72
I4
sS'[[Cotton Fabric]]'
p73
I22
sS'[[Blue Sweater]]'
p74
I36
sS'[[Potato Feta Cake]]'
p75
I33
sS'[[Cookie]]'
p76
I42
sS'[[Apple Juice]]'
p77
I37
sS'[[Pig Feed]]'
p78
I66
sS'[[Cotton]]'
p79
I73
sS'[[Feta Pie]]'
p80
I71
sS'[[Cheese]]'
p81
I85
sS'[[Chocolate Ice Cream]]'
p82
I5
sS'[[Bacon]]'
p83
I6
sS'[[Chicken Feed]]'
p84
I54
sS'[[Corn Bread]]'
p85
I44
sS'[[Wool]]'
p86
I38
sS'[[Roasted Tomatoes]]'
p87
I43
sS'[[Berry Juice]]'
p88
I0
sS'[[Sweater]]'
p89
I1
sS'[[Blackberry Muffin]]'
p90
I19
sS'[[Cow Feed]]'
p91
I52
s.(dp0
S'[[Corn]]'
p1
I5
sS'[[Chicken Feed]]'
p2
I5
sS'[[Woolly Chaps]]'
p3
I3
sS'[[Carrot Cake]]'
p4
I1
sS'[[Honey Popcorn]]'
p5
I4
sS'[[Feta Pie]]'
p6
I5
sS'[[Cotton Shirt]]'
p7
I2
sS'[[Chili Popcorn]]'
p8
I4
sS'[[Pancake]]'
p9
I2
sS'[[Potato Bread]]'
p10
I2
sS'[[Syrup]]'
p11
I3
sS'[[Cotton]]'
p12
I3
s.