(dp0
S'[[Goat Milk]]'
p1
I89
sS'[[Cacao]]'
p2
I39
sS'[[Woolly Chaps]]'
p3
I81
sS'[[Carrot Cake]]'
p4
I41
sS'[[Blackberry Jam]]'
p5
I56
sS'[[Strawberry Cake]]'
p6
I29
sS'[[Cherry Juice]]'
p7
I82
sS'[[Fish Burger]]'
p8
I45
sS'[[White Sugar]]'
p9
I1
sS'[[Buttered Popcorn]]'
p10
I51
sS'[[Cream Cake]]'
p11
I2
sS'[[Violet Dress]]'
p12
I80
sS'[[Soybean]]'
p13
I18
sS'[[Apple]]'
p14
I63
sS'[[Strawberry Ice Cream]]'
p15
I21
sS'[[Raspberry Muffin]]'
p16
I27
sS'[[Blue Woolly Hat]]'
p17
I36
sS'[[Apple Pie]]'
p18
I37
sS'[[Hamburger]]'
p19
I23
sS'[[Tomato Juice]]'
p20
I35
sS'[[Blue Sweater]]'
p21
I4
sS'[[Cherry Jam]]'
p22
I32
sS'[[Vanilla Ice Cream]]'
p23
I50
sS'[[Lure]]'
p24
I19
sS'[[Carrot Pie]]'
p25
I72
sS"[[Shepherd's Pie]]"
p26
I60
sS'[[Cheese]]'
p27
I26
sS'[[Tomato]]'
p28
I66
sS'[[Potato]]'
p29
I7
sS'[[Cheesecake]]'
p30
I69
sS'[[Fish Pie]]'
p31
I6
sS'[[Brown Sugar]]'
p32
I25
sS'[[Butter]]'
p33
I54
sS'[[Pancake]]'
p34
I87
sS'[[Bacon Pie]]'
p35
I42
sS'[[Strawberry]]'
p36
I28
sS'[[Corn]]'
p37
I10
sS'[[Popcorn]]'
p38
I57
sS'[[Fish Fillet]]'
p39
I5
sS'[[Egg]]'
p40
I88
sS'[[Chili Popcorn]]'
p41
I74
sS'[[Honey]]'
p42
I64
sS'[[Goat Cheese]]'
p43
I77
sS'[[Sugarcane]]'
p44
I83
sS'[[Cotton Fabric]]'
p45
I71
sS'[[Potato Bread]]'
p46
I67
sS'[[Goat Feed]]'
p47
I8
sS'[[Pumpkin Pie]]'
p48
I79
sS'[[Potato Feta Cake]]'
p49
I53
sS'[[Red Berry Cake]]'
p50
I58
sS'[[Cookie]]'
p51
I20
sS'[[Cream]]'
p52
I59
sS'[[Pizza]]'
p53
I62
sS'[[Syrup]]'
p54
I65
sS'[[Bacon]]'
p55
I16
sS'[[Pig Feed]]'
p56
I3
sS'[[Sheep Feed]]'
p57
I22
sS'[[Apple Juice]]'
p58
I49
sS'[[Cherry Popsicle]]'
p59
I70
sS'[[Bacon and Eggs]]'
p60
I34
sS'[[Cotton]]'
p61
I46
sS'[[Feta Pie]]'
p62
I33
sS'[[Carrot Juice]]'
p63
I9
sS'[[Baked Potato]]'
p64
I48
sS'[[Milk]]'
p65
I75
sS'[[Chocolate Ice Cream]]'
p66
I85
sS'[[Berry Juice]]'
p67
I31
sS'[[Apple Jam]]'
p68
I78
sS'[[Chicken Feed]]'
p69
I14
sS'[[Pumpkin]]'
p70
I17
sS'[[Carrot]]'
p71
I73
sS'[[Blackberry]]'
p72
I52
sS'[[Corn Bread]]'
p73
I61
sS'[[Cotton Shirt]]'
p74
I12
sS'[[Wool]]'
p75
I44
sS'[[Raspberry Jam]]'
p76
I24
sS'[[Cherry]]'
p77
I15
sS'[[Bread]]'
p78
I90
sS'[[Wheat]]'
p79
I43
sS'[[Casserole]]'
p80
I30
sS'[[Chili Pepper]]'
p81
I86
sS'[[Roasted Tomatoes]]'
p82
I11
sS'[[Honey Popcorn]]'
p83
I38
sS'[[Honeycomb]]'
p84
I13
sS'[[Indigo]]'
p85
I68
sS'[[Raspberry]]'
p86
I40
sS'[[Sweater]]'
p87
I76
sS'[[Blackberry Muffin]]'
p88
I55
sS'[[Chocolate Cake]]'
p89
I84
sS'[[Cow Feed]]'
p90
I47
sS'[[Spicy Pizza]]'
p91
I0
s.(dp0
S'[[Apple]]'
p1
I0
sS'[[Chili Pepper]]'
p2
I1
sS'[[Feta Pie]]'
p3
I5
sS'[[Fish Pie]]'
p4
I5
sS'[[Cotton Shirt]]'
p5
I5
sS'[[Butter]]'
p6
I4
sS'[[Fish Burger]]'
p7
I1
sS'[[Vanilla Ice Cream]]'
p8
I1
sS'[[Chocolate Ice Cream]]'
p9
I5
sS'[[Cotton Fabric]]'
p10
I1
s.