(dp0
S'[[Pumpkin]]'
p1
I16
sS'[[Blackberry Jam]]'
p2
I65
sS'[[Violet Dress]]'
p3
I58
sS'[[Strawberry Ice Cream]]'
p4
I79
sS'[[Raspberry Muffin]]'
p5
I1
sS'[[Apple Pie]]'
p6
I9
sS'[[Tomato Juice]]'
p7
I22
sS'[[Carrot Cake]]'
p8
I77
sS'[[Vanilla Ice Cream]]'
p9
I19
sS'[[Lure]]'
p10
I10
sS'[[Carrot Pie]]'
p11
I86
sS'[[Tomato]]'
p12
I69
sS'[[Cherry Juice]]'
p13
I83
sS'[[Cheesecake]]'
p14
I36
sS'[[Fish Pie]]'
p15
I47
sS'[[Pancake]]'
p16
I6
sS'[[Popcorn]]'
p17
I30
sS'[[Goat Cheese]]'
p18
I2
sS'[[Potato Bread]]'
p19
I53
sS'[[Goat Feed]]'
p20
I63
sS'[[Red Berry Cake]]'
p21
I84
sS'[[Pizza]]'
p22
I15
sS'[[Syrup]]'
p23
I81
sS'[[Sheep Feed]]'
p24
I40
sS'[[Cherry Popsicle]]'
p25
I50
sS'[[Bacon and Eggs]]'
p26
I51
sS'[[Carrot Juice]]'
p27
I14
sS'[[Baked Potato]]'
p28
I75
sS'[[Milk]]'
p29
I41
sS'[[Apple Jam]]'
p30
I35
sS'[[Carrot]]'
p31
I39
sS'[[Blackberry]]'
p32
I74
sS'[[Cotton Shirt]]'
p33
I48
sS'[[Cream]]'
p34
I31
sS'[[Raspberry Jam]]'
p35
I5
sS'[[Cherry]]'
p36
I17
sS'[[Bread]]'
p37
I20
sS'[[Wheat]]'
p38
I25
sS'[[Casserole]]'
p39
I45
sS'[[Chili Pepper]]'
p40
I11
sS'[[Honey Popcorn]]'
p41
I28
sS'[[Honeycomb]]'
p42
I49
sS'[[Indigo]]'
p43
I88
sS'[[Raspberry]]'
p44
I57
sS'[[Chocolate Cake]]'
p45
I76
sS'[[Spicy Pizza]]'
p46
I56
sS'[[Cacao]]'
p47
I26
sS'[[Woolly Chaps]]'
p48
I32
sS'[[Honey]]'
p49
I29
sS'[[Egg]]'
p50
I52
sS'[[Strawberry Cake]]'
p51
I61
sS'[[Potato]]'
p52
I4
sS'[[Fish Burger]]'
p53
I44
sS'[[White Sugar]]'
p54
I34
sS'[[Buttered Popcorn]]'
p55
I70
sS'[[Cream Cake]]'
p56
I38
sS'[[Soybean]]'
p57
I64
sS'[[Apple]]'
p58
I33
sS'[[Blue Woolly Hat]]'
p59
I73
sS'[[Goat Milk]]'
p60
I85
sS'[[Hamburger]]'
p61
I27
sS'[[Cherry Jam]]'
p62
I80
sS"[[Shepherd's Pie]]"
p63
I12
sS'[[Brown Sugar]]'
p64
I42
sS'[[Butter]]'
p65
I68
sS'[[Bacon Pie]]'
p66
I23
sS'[[Strawberry]]'
p67
I87
sS'[[Pumpkin Pie]]'
p68
I7
sS'[[Corn]]'
p69
I89
sS'[[Fish Fillet]]'
p70
I72
sS'[[Chili Popcorn]]'
p71
I37
sS'[[Sugarcane]]'
p72
I8
sS'[[Cotton Fabric]]'
p73
I60
sS'[[Blue Sweater]]'
p74
I3
sS'[[Potato Feta Cake]]'
p75
I18
sS'[[Cookie]]'
p76
I43
sS'[[Apple Juice]]'
p77
I62
sS'[[Pig Feed]]'
p78
I55
sS'[[Cotton]]'
p79
I46
sS'[[Feta Pie]]'
p80
I59
sS'[[Cheese]]'
p81
I13
sS'[[Chocolate Ice Cream]]'
p82
I67
sS'[[Bacon]]'
p83
I54
sS'[[Chicken Feed]]'
p84
I90
sS'[[Corn Bread]]'
p85
I24
sS'[[Wool]]'
p86
I78
sS'[[Roasted Tomatoes]]'
p87
I71
sS'[[Berry Juice]]'
p88
I66
sS'[[Sweater]]'
p89
I0
sS'[[Blackberry Muffin]]'
p90
I21
sS'[[Cow Feed]]'
p91
I82
s.(dp0
S'[[Wheat]]'
p1
I0
sS'[[Apple]]'
p2
I0
sS'[[Apple Pie]]'
p3
I5
sS'[[Raspberry Muffin]]'
p4
I2
sS'[[Woolly Chaps]]'
p5
I1
sS'[[Carrot Cake]]'
p6
I0
sS'[[Corn Bread]]'
p7
I0
sS'[[Potato Feta Cake]]'
p8
I1
sS'[[Fish Pie]]'
p9
I4
sS'[[Spicy Pizza]]'
p10
I5
sS'[[Cream]]'
p11
I5
sS'[[Strawberry Cake]]'
p12
I3
sS'[[Cheesecake]]'
p13
I2
s.