(dp0
S'[[Pumpkin]]'
p1
I6
sS'[[Blackberry Jam]]'
p2
I87
sS'[[Violet Dress]]'
p3
I29
sS'[[Strawberry Ice Cream]]'
p4
I90
sS'[[Raspberry Muffin]]'
p5
I53
sS'[[Apple Pie]]'
p6
I2
sS'[[Tomato Juice]]'
p7
I49
sS'[[Carrot Cake]]'
p8
I48
sS'[[Vanilla Ice Cream]]'
p9
I39
sS'[[Lure]]'
p10
I4
sS'[[Carrot Pie]]'
p11
I78
sS'[[Tomato]]'
p12
I67
sS'[[Cherry Juice]]'
p13
I24
sS'[[Cheesecake]]'
p14
I35
sS'[[Fish Pie]]'
p15
I32
sS'[[Pancake]]'
p16
I12
sS'[[Popcorn]]'
p17
I5
sS'[[Goat Cheese]]'
p18
I69
sS'[[Potato Bread]]'
p19
I50
sS'[[Goat Feed]]'
p20
I70
sS'[[Red Berry Cake]]'
p21
I82
sS'[[Pizza]]'
p22
I15
sS'[[Syrup]]'
p23
I45
sS'[[Sheep Feed]]'
p24
I68
sS'[[Cherry Popsicle]]'
p25
I77
sS'[[Bacon and Eggs]]'
p26
I81
sS'[[Carrot Juice]]'
p27
I52
sS'[[Baked Potato]]'
p28
I19
sS'[[Milk]]'
p29
I86
sS'[[Apple Jam]]'
p30
I11
sS'[[Carrot]]'
p31
I59
sS'[[Blackberry]]'
p32
I27
sS'[[Cotton Shirt]]'
p33
I62
sS'[[Cream]]'
p34
I84
sS'[[Raspberry Jam]]'
p35
I66
sS'[[Cherry]]'
p36
I73
sS'[[Bread]]'
p37
I80
sS'[[Wheat]]'
p38
I21
sS'[[Casserole]]'
p39
I14
sS'[[Chili Pepper]]'
p40
I55
sS'[[Honey Popcorn]]'
p41
I16
sS'[[Honeycomb]]'
p42
I65
sS'[[Indigo]]'
p43
I8
sS'[[Raspberry]]'
p44
I22
sS'[[Chocolate Cake]]'
p45
I76
sS'[[Spicy Pizza]]'
p46
I13
sS'[[Cacao]]'
p47
I36
sS'[[Woolly Chaps]]'
p48
I23
sS'[[Honey]]'
p49
I72
sS'[[Egg]]'
p50
I44
sS'[[Strawberry Cake]]'
p51
I40
sS'[[Potato]]'
p52
I61
sS'[[Fish Burger]]'
p53
I1
sS'[[White Sugar]]'
p54
I28
sS'[[Buttered Popcorn]]'
p55
I74
sS'[[Cream Cake]]'
p56
I10
sS'[[Soybean]]'
p57
I17
sS'[[Apple]]'
p58
I33
sS'[[Blue Woolly Hat]]'
p59
I9
sS'[[Goat Milk]]'
p60
I30
sS'[[Hamburger]]'
p61
I0
sS'[[Cherry Jam]]'
p62
I38
sS"[[Shepherd's Pie]]"
p63
I3
sS'[[Brown Sugar]]'
p64
I20
sS'[[Butter]]'
p65
I83
sS'[[Bacon Pie]]'
p66
I71
sS'[[Strawberry]]'
p67
I51
sS'[[Pumpkin Pie]]'
p68
I79
sS'[[Corn]]'
p69
I31
sS'[[Fish Fillet]]'
p70
I60
sS'[[Chili Popcorn]]'
p71
I37
sS'[[Bacon]]'
p72
I42
sS'[[Cotton Fabric]]'
p73
I34
sS'[[Blue Sweater]]'
p74
I47
sS'[[Potato Feta Cake]]'
p75
I54
sS'[[Sugarcane]]'
p76
I56
sS'[[Cookie]]'
p77
I43
sS'[[Apple Juice]]'
p78
I41
sS'[[Pig Feed]]'
p79
I63
sS'[[Cotton]]'
p80
I64
sS'[[Feta Pie]]'
p81
I25
sS'[[Cheese]]'
p82
I89
sS'[[Chocolate Ice Cream]]'
p83
I46
sS'[[Chicken Feed]]'
p84
I88
sS'[[Corn Bread]]'
p85
I7
sS'[[Wool]]'
p86
I58
sS'[[Roasted Tomatoes]]'
p87
I85
sS'[[Berry Juice]]'
p88
I75
sS'[[Sweater]]'
p89
I18
sS'[[Blackberry Muffin]]'
p90
I57
sS'[[Cow Feed]]'
p91
I26
s.(dp0
S'[[Bread]]'
p1
I2
sS'[[Popcorn]]'
p2
I2
sS'[[Roasted Tomatoes]]'
p3
I4
sS'[[Honey Popcorn]]'
p4
I4
sS'[[Blue Woolly Hat]]'
p5
I3
sS'[[Potato Feta Cake]]'
p6
I3
sS'[[Cookie]]'
p7
I5
sS'[[Berry Juice]]'
p8
I0
sS'[[Pancake]]'
p9
I3
sS'[[Vanilla Ice Cream]]'
p10
I4
sS'[[Potato]]'
p11
I3
sS'[[Pizza]]'
p12
I4
sS'[[Syrup]]'
p13
I1
s.