(dp0
S'[[Pumpkin]]'
p1
I20
sS'[[Blackberry Jam]]'
p2
I16
sS'[[Violet Dress]]'
p3
I79
sS'[[Strawberry Ice Cream]]'
p4
I33
sS'[[Raspberry Muffin]]'
p5
I21
sS'[[Apple Pie]]'
p6
I74
sS'[[Tomato Juice]]'
p7
I44
sS'[[Carrot Cake]]'
p8
I75
sS'[[Vanilla Ice Cream]]'
p9
I41
sS'[[Lure]]'
p10
I48
sS'[[Carrot Pie]]'
p11
I83
sS'[[Tomato]]'
p12
I88
sS'[[Cherry Juice]]'
p13
I86
sS'[[Cheesecake]]'
p14
I8
sS'[[Fish Pie]]'
p15
I27
sS'[[Pancake]]'
p16
I32
sS'[[Popcorn]]'
p17
I1
sS'[[Goat Cheese]]'
p18
I6
sS'[[Potato Bread]]'
p19
I42
sS'[[Goat Feed]]'
p20
I58
sS'[[Red Berry Cake]]'
p21
I54
sS'[[Pizza]]'
p22
I30
sS'[[Syrup]]'
p23
I45
sS'[[Sheep Feed]]'
p24
I17
sS'[[Cherry Popsicle]]'
p25
I35
sS'[[Bacon and Eggs]]'
p26
I76
sS'[[Carrot Juice]]'
p27
I66
sS'[[Baked Potato]]'
p28
I34
sS'[[Milk]]'
p29
I36
sS'[[Apple Jam]]'
p30
I80
sS'[[Carrot]]'
p31
I25
sS'[[Blackberry]]'
p32
I55
sS'[[Cotton Shirt]]'
p33
I67
sS'[[Cream]]'
p34
I85
sS'[[Raspberry Jam]]'
p35
I22
sS'[[Cherry]]'
p36
I39
sS'[[Bread]]'
p37
I47
sS'[[Wheat]]'
p38
I14
sS'[[Casserole]]'
p39
I5
sS'[[Chili Pepper]]'
p40
I60
sS'[[Honey Popcorn]]'
p41
I9
sS'[[Honeycomb]]'
p42
I49
sS'[[Indigo]]'
p43
I57
sS'[[Raspberry]]'
p44
I72
sS'[[Chocolate Cake]]'
p45
I12
sS'[[Spicy Pizza]]'
p46
I29
sS'[[Cacao]]'
p47
I31
sS'[[Woolly Chaps]]'
p48
I61
sS'[[Honey]]'
p49
I77
sS'[[Egg]]'
p50
I40
sS'[[Strawberry Cake]]'
p51
I81
sS'[[Potato]]'
p52
I38
sS'[[Fish Burger]]'
p53
I13
sS'[[White Sugar]]'
p54
I26
sS'[[Buttered Popcorn]]'
p55
I90
sS'[[Cream Cake]]'
p56
I0
sS'[[Soybean]]'
p57
I87
sS'[[Apple]]'
p58
I3
sS'[[Blue Woolly Hat]]'
p59
I15
sS'[[Goat Milk]]'
p60
I56
sS'[[Hamburger]]'
p61
I7
sS'[[Cherry Jam]]'
p62
I65
sS"[[Shepherd's Pie]]"
p63
I84
sS'[[Brown Sugar]]'
p64
I62
sS'[[Butter]]'
p65
I4
sS'[[Bacon Pie]]'
p66
I68
sS'[[Strawberry]]'
p67
I43
sS'[[Pumpkin Pie]]'
p68
I70
sS'[[Corn]]'
p69
I64
sS'[[Fish Fillet]]'
p70
I46
sS'[[Chili Popcorn]]'
p71
I37
sS'[[Bacon]]'
p72
I11
sS'[[Cotton Fabric]]'
p73
I50
sS'[[Blue Sweater]]'
p74
I28
sS'[[Potato Feta Cake]]'
p75
I18
sS'[[Sugarcane]]'
p76
I69
sS'[[Cookie]]'
p77
I2
sS'[[Apple Juice]]'
p78
I71
sS'[[Pig Feed]]'
p79
I89
sS'[[Cotton]]'
p80
I59
sS'[[Feta Pie]]'
p81
I19
sS'[[Cheese]]'
p82
I10
sS'[[Chocolate Ice Cream]]'
p83
I23
sS'[[Chicken Feed]]'
p84
I52
sS'[[Corn Bread]]'
p85
I53
sS'[[Wool]]'
p86
I78
sS'[[Roasted Tomatoes]]'
p87
I51
sS'[[Berry Juice]]'
p88
I63
sS'[[Sweater]]'
p89
I73
sS'[[Blackberry Muffin]]'
p90
I82
sS'[[Cow Feed]]'
p91
I24
s.(dp0
S'[[Sheep Feed]]'
p1
I4
sS'[[Woolly Chaps]]'
p2
I5
sS'[[Strawberry Cake]]'
p3
I2
sS'[[Honey Popcorn]]'
p4
I5
sS'[[Hamburger]]'
p5
I3
sS'[[Cotton Shirt]]'
p6
I1
sS'[[Cheese]]'
p7
I3
sS'[[Chocolate Ice Cream]]'
p8
I4
sS'[[Potato Bread]]'
p9
I3
sS'[[Violet Dress]]'
p10
I4
s.