(dp0
S'[[Pumpkin]]'
p1
I18
sS'[[Blackberry Jam]]'
p2
I58
sS'[[Violet Dress]]'
p3
I87
sS'[[Strawberry Ice Cream]]'
p4
I43
sS'[[Raspberry Muffin]]'
p5
I81
sS'[[Apple Pie]]'
p6
I60
sS'[[Tomato Juice]]'
p7
I27
sS'[[Carrot Cake]]'
p8
I1
sS'[[Vanilla Ice Cream]]'
p9
I29
sS'[[Lure]]'
p10
I57
sS'[[Carrot Pie]]'
p11
I76
sS'[[Tomato]]'
p12
I10
sS'[[Cherry Juice]]'
p13
I34
sS'[[Cheesecake]]'
p14
I86
sS'[[Fish Pie]]'
p15
I65
sS'[[Pancake]]'
p16
I90
sS'[[Popcorn]]'
p17
I13
sS'[[Goat Cheese]]'
p18
I48
sS'[[Potato Bread]]'
p19
I85
sS'[[Goat Feed]]'
p20
I25
sS'[[Red Berry Cake]]'
p21
I52
sS'[[Pizza]]'
p22
I24
sS'[[Syrup]]'
p23
I19
sS'[[Sheep Feed]]'
p24
I64
sS'[[Cherry Popsicle]]'
p25
I2
sS'[[Bacon and Eggs]]'
p26
I63
sS'[[Carrot Juice]]'
p27
I79
sS'[[Baked Potato]]'
p28
I3
sS'[[Milk]]'
p29
I74
sS'[[Apple Jam]]'
p30
I17
sS'[[Carrot]]'
p31
I49
sS'[[Blackberry]]'
p32
I38
sS'[[Cotton Shirt]]'
p33
I54
sS'[[Cream]]'
p34
I71
sS'[[Raspberry Jam]]'
p35
I0
sS'[[Cherry]]'
p36
I30
sS'[[Bread]]'
p37
I45
sS'[[Wheat]]'
p38
I84
sS'[[Casserole]]'
p39
I82
sS'[[Chili Pepper]]'
p40
I73
sS'[[Honey Popcorn]]'
p41
I56
sS'[[Honeycomb]]'
p42
I88
sS'[[Indigo]]'
p43
I50
sS'[[Raspberry]]'
p44
I68
sS'[[Chocolate Cake]]'
p45
I12
sS'[[Spicy Pizza]]'
p46
I32
sS'[[Cacao]]'
p47
I66
sS'[[Woolly Chaps]]'
p48
I11
sS'[[Honey]]'
p49
I70
sS'[[Egg]]'
p50
I5
sS'[[Strawberry Cake]]'
p51
I8
sS'[[Potato]]'
p52
I78
sS'[[Fish Burger]]'
p53
I26
sS'[[White Sugar]]'
p54
I14
sS'[[Buttered Popcorn]]'
p55
I83
sS'[[Cream Cake]]'
p56
I9
sS'[[Soybean]]'
p57
I59
sS'[[Apple]]'
p58
I42
sS'[[Blue Woolly Hat]]'
p59
I23
sS'[[Goat Milk]]'
p60
I41
sS'[[Hamburger]]'
p61
I46
sS'[[Cherry Jam]]'
p62
I21
sS"[[Shepherd's Pie]]"
p63
I75
sS'[[Brown Sugar]]'
p64
I20
sS'[[Butter]]'
p65
I7
sS'[[Bacon Pie]]'
p66
I16
sS'[[Strawberry]]'
p67
I80
sS'[[Pumpkin Pie]]'
p68
I53
sS'[[Corn]]'
p69
I62
sS'[[Fish Fillet]]'
p70
I69
sS'[[Chili Popcorn]]'
p71
I51
sS'[[Sugarcane]]'
p72
I72
sS'[[Cotton Fabric]]'
p73
I22
sS'[[Blue Sweater]]'
p74
I39
sS'[[Potato Feta Cake]]'
p75
I47
sS'[[Cookie]]'
p76
I89
sS'[[Apple Juice]]'
p77
I33
sS'[[Pig Feed]]'
p78
I44
sS'[[Cotton]]'
p79
I15
sS'[[Feta Pie]]'
p80
I28
sS'[[Cheese]]'
p81
I61
sS'[[Chocolate Ice Cream]]'
p82
I40
sS'[[Bacon]]'
p83
I6
sS'[[Chicken Feed]]'
p84
I31
sS'[[Corn Bread]]'
p85
I4
sS'[[Wool]]'
p86
I35
sS'[[Roasted Tomatoes]]'
p87
I55
sS'[[Berry Juice]]'
p88
I67
sS'[[Sweater]]'
p89
I37
sS'[[Blackberry Muffin]]'
p90
I77
sS'[[Cow Feed]]'
p91
I36
s.(dp0
S"[[Shepherd's Pie]]"
p1
I3
sS'[[Fish Fillet]]'
p2
I4
sS'[[Honey]]'
p3
I5
sS'[[Blackberry]]'
p4
I5
sS'[[Bacon and Eggs]]'
p5
I5
sS'[[Honeycomb]]'
p6
I0
sS'[[Goat Cheese]]'
p7
I4
sS'[[Chocolate Ice Cream]]'
p8
I1
sS'[[Berry Juice]]'
p9
I5
sS'[[Chocolate Cake]]'
p10
I2
sS'[[Cherry]]'
p11
I1
sS'[[Potato Bread]]'
p12
I5
s.