(dp0
S'[[Pumpkin]]'
p1
I63
sS'[[Blackberry Jam]]'
p2
I39
sS'[[Violet Dress]]'
p3
I70
sS'[[Strawberry Ice Cream]]'
p4
I41
sS'[[Raspberry Muffin]]'
p5
I64
sS'[[Apple Pie]]'
p6
I0
sS'[[Tomato Juice]]'
p7
I19
sS'[[Blue Sweater]]'
p8
I86
sS'[[Honey]]'
p9
I84
sS'[[Vanilla Ice Cream]]'
p10
I7
sS'[[Lure]]'
p11
I10
sS'[[Carrot Pie]]'
p12
I24
sS'[[Tomato]]'
p13
I46
sS'[[Potato]]'
p14
I20
sS'[[Cheesecake]]'
p15
I59
sS'[[Fish Pie]]'
p16
I1
sS'[[Pancake]]'
p17
I13
sS'[[Popcorn]]'
p18
I21
sS'[[Goat Cheese]]'
p19
I82
sS'[[Potato Bread]]'
p20
I12
sS'[[Goat Feed]]'
p21
I88
sS'[[Red Berry Cake]]'
p22
I65
sS'[[Pizza]]'
p23
I53
sS'[[Syrup]]'
p24
I87
sS'[[Sheep Feed]]'
p25
I83
sS'[[Cherry Popsicle]]'
p26
I52
sS'[[Bacon and Eggs]]'
p27
I44
sS'[[Carrot]]'
p28
I43
sS'[[Carrot Juice]]'
p29
I58
sS'[[Baked Potato]]'
p30
I56
sS'[[Milk]]'
p31
I26
sS'[[Apple Jam]]'
p32
I37
sS'[[Apple]]'
p33
I85
sS'[[Blackberry]]'
p34
I55
sS'[[Cotton Shirt]]'
p35
I45
sS'[[Cream]]'
p36
I22
sS'[[Raspberry Jam]]'
p37
I25
sS'[[Cherry]]'
p38
I36
sS'[[Bread]]'
p39
I49
sS'[[Wheat]]'
p40
I2
sS'[[Casserole]]'
p41
I54
sS'[[Strawberry]]'
p42
I51
sS'[[Honey Popcorn]]'
p43
I67
sS'[[Honeycomb]]'
p44
I16
sS'[[Indigo]]'
p45
I17
sS'[[Raspberry]]'
p46
I75
sS'[[Chocolate Cake]]'
p47
I9
sS'[[Spicy Pizza]]'
p48
I78
sS'[[Cacao]]'
p49
I5
sS'[[Woolly Chaps]]'
p50
I30
sS'[[Carrot Cake]]'
p51
I71
sS'[[Egg]]'
p52
I73
sS'[[Strawberry Cake]]'
p53
I28
sS'[[Cherry Juice]]'
p54
I81
sS'[[Fish Burger]]'
p55
I74
sS'[[White Sugar]]'
p56
I8
sS'[[Buttered Popcorn]]'
p57
I69
sS'[[Cream Cake]]'
p58
I23
sS'[[Soybean]]'
p59
I76
sS'[[Brown Sugar]]'
p60
I27
sS'[[Blue Woolly Hat]]'
p61
I77
sS'[[Goat Milk]]'
p62
I15
sS'[[Hamburger]]'
p63
I11
sS'[[Cherry Jam]]'
p64
I47
sS"[[Shepherd's Pie]]"
p65
I80
sS'[[Butter]]'
p66
I60
sS'[[Bacon Pie]]'
p67
I29
sS'[[Chili Pepper]]'
p68
I62
sS'[[Corn]]'
p69
I40
sS'[[Fish Fillet]]'
p70
I6
sS'[[Chili Popcorn]]'
p71
I33
sS'[[Bacon]]'
p72
I42
sS'[[Cotton Fabric]]'
p73
I18
sS'[[Pumpkin Pie]]'
p74
I79
sS'[[Potato Feta Cake]]'
p75
I72
sS'[[Sugarcane]]'
p76
I31
sS'[[Cookie]]'
p77
I32
sS'[[Apple Juice]]'
p78
I61
sS'[[Pig Feed]]'
p79
I14
sS'[[Cotton]]'
p80
I90
sS'[[Feta Pie]]'
p81
I50
sS'[[Cheese]]'
p82
I89
sS'[[Chocolate Ice Cream]]'
p83
I48
sS'[[Chicken Feed]]'
p84
I3
sS'[[Corn Bread]]'
p85
I57
sS'[[Wool]]'
p86
I34
sS'[[Roasted Tomatoes]]'
p87
I68
sS'[[Berry Juice]]'
p88
I4
sS'[[Sweater]]'
p89
I38
sS'[[Blackberry Muffin]]'
p90
I66
sS'[[Cow Feed]]'
p91
I35
s.(dp0
S'[[Lure]]'
p1
I3
sS'[[Fish Pie]]'
p2
I3
sS'[[Woolly Chaps]]'
p3
I3
sS'[[Carrot Cake]]'
p4
I1
sS'[[Blackberry]]'
p5
I0
sS'[[Cookie]]'
p6
I5
sS'[[Baked Potato]]'
p7
I5
sS'[[Indigo]]'
p8
I3
sS'[[Pancake]]'
p9
I5
sS'[[Chocolate Ice Cream]]'
p10
I1
sS"[[Shepherd's Pie]]"
p11
I1
sS'[[Violet Dress]]'
p12
I3
s.