(dp0
S'[[Pumpkin]]'
p1
I27
sS'[[Blackberry Jam]]'
p2
I85
sS'[[Violet Dress]]'
p3
I39
sS'[[Strawberry Ice Cream]]'
p4
I11
sS'[[Raspberry Muffin]]'
p5
I74
sS'[[Apple Pie]]'
p6
I90
sS'[[Tomato Juice]]'
p7
I6
sS'[[Carrot Cake]]'
p8
I0
sS'[[Vanilla Ice Cream]]'
p9
I15
sS'[[Lure]]'
p10
I17
sS'[[Carrot Pie]]'
p11
I57
sS'[[Tomato]]'
p12
I10
sS'[[Cherry Juice]]'
p13
I19
sS'[[Cheesecake]]'
p14
I42
sS'[[Fish Pie]]'
p15
I51
sS'[[Pancake]]'
p16
I49
sS'[[Popcorn]]'
p17
I60
sS'[[Goat Cheese]]'
p18
I78
sS'[[Potato Bread]]'
p19
I4
sS'[[Goat Feed]]'
p20
I40
sS'[[Red Berry Cake]]'
p21
I83
sS'[[Pizza]]'
p22
I68
sS'[[Syrup]]'
p23
I23
sS'[[Sheep Feed]]'
p24
I2
sS'[[Cherry Popsicle]]'
p25
I73
sS'[[Bacon and Eggs]]'
p26
I59
sS'[[Carrot Juice]]'
p27
I71
sS'[[Baked Potato]]'
p28
I33
sS'[[Milk]]'
p29
I87
sS'[[Apple Jam]]'
p30
I26
sS'[[Carrot]]'
p31
I30
sS'[[Blackberry]]'
p32
I31
sS'[[Cotton Shirt]]'
p33
I77
sS'[[Cream]]'
p34
I20
sS'[[Raspberry Jam]]'
p35
I25
sS'[[Cherry]]'
p36
I18
sS'[[Bread]]'
p37
I50
sS'[[Wheat]]'
p38
I62
sS'[[Casserole]]'
p39
I5
sS'[[Chili Pepper]]'
p40
I1
sS'[[Honey Popcorn]]'
p41
I12
sS'[[Honeycomb]]'
p42
I56
sS'[[Indigo]]'
p43
I65
sS'[[Raspberry]]'
p44
I86
sS'[[Chocolate Cake]]'
p45
I66
sS'[[Spicy Pizza]]'
p46
I21
sS'[[Cacao]]'
p47
I75
sS'[[Woolly Chaps]]'
p48
I22
sS'[[Honey]]'
p49
I47
sS'[[Egg]]'
p50
I48
sS'[[Strawberry Cake]]'
p51
I3
sS'[[Potato]]'
p52
I70
sS'[[Fish Burger]]'
p53
I80
sS'[[White Sugar]]'
p54
I35
sS'[[Buttered Popcorn]]'
p55
I52
sS'[[Cream Cake]]'
p56
I88
sS'[[Soybean]]'
p57
I32
sS'[[Apple]]'
p58
I43
sS'[[Blue Woolly Hat]]'
p59
I53
sS'[[Goat Milk]]'
p60
I16
sS'[[Hamburger]]'
p61
I8
sS'[[Cherry Jam]]'
p62
I76
sS"[[Shepherd's Pie]]"
p63
I36
sS'[[Brown Sugar]]'
p64
I81
sS'[[Butter]]'
p65
I29
sS'[[Bacon Pie]]'
p66
I7
sS'[[Strawberry]]'
p67
I37
sS'[[Pumpkin Pie]]'
p68
I89
sS'[[Corn]]'
p69
I63
sS'[[Fish Fillet]]'
p70
I58
sS'[[Chili Popcorn]]'
p71
I67
sS'[[Sugarcane]]'
p72
I9
sS'[[Cotton Fabric]]'
p73
I28
sS'[[Blue Sweater]]'
p74
I24
sS'[[Potato Feta Cake]]'
p75
I64
sS'[[Cookie]]'
p76
I55
sS'[[Apple Juice]]'
p77
I84
sS'[[Pig Feed]]'
p78
I14
sS'[[Cotton]]'
p79
I69
sS'[[Feta Pie]]'
p80
I82
sS'[[Cheese]]'
p81
I38
sS'[[Chocolate Ice Cream]]'
p82
I61
sS'[[Bacon]]'
p83
I34
sS'[[Chicken Feed]]'
p84
I44
sS'[[Corn Bread]]'
p85
I79
sS'[[Wool]]'
p86
I46
sS'[[Roasted Tomatoes]]'
p87
I72
sS'[[Berry Juice]]'
p88
I45
sS'[[Sweater]]'
p89
I54
sS'[[Blackberry Muffin]]'
p90
I41
sS'[[Cow Feed]]'
p91
I13
s.(dp0
S'[[Tomato]]'
p1
I3
sS'[[Cheesecake]]'
p2
I3
sS'[[Carrot Pie]]'
p3
I1
sS'[[Hamburger]]'
p4
I4
sS'[[Cotton Shirt]]'
p5
I4
sS'[[Vanilla Ice Cream]]'
p6
I4
sS'[[Potato Bread]]'
p7
I0
sS'[[Violet Dress]]'
p8
I5
s.