(dp0
S'[[Pumpkin]]'
p1
I5
sS'[[Blackberry Jam]]'
p2
I68
sS'[[Violet Dress]]'
p3
I25
sS'[[Strawberry Ice Cream]]'
p4
I36
sS'[[Raspberry Muffin]]'
p5
I24
sS'[[Apple Pie]]'
p6
I52
sS'[[Tomato Juice]]'
p7
I11
sS'[[Carrot Cake]]'
p8
I15
sS'[[Vanilla Ice Cream]]'
p9
I14
sS'[[Lure]]'
p10
I34
sS'[[Carrot Pie]]'
p11
I35
sS'[[Tomato]]'
p12
I43
sS'[[Cherry Juice]]'
p13
I39
sS'[[Cheesecake]]'
p14
I57
sS'[[Fish Pie]]'
p15
I75
sS'[[Pancake]]'
p16
I9
sS'[[Popcorn]]'
p17
I13
sS'[[Goat Cheese]]'
p18
I38
sS'[[Potato Bread]]'
p19
I77
sS'[[Goat Feed]]'
p20
I37
sS'[[Red Berry Cake]]'
p21
I18
sS'[[Pizza]]'
p22
I48
sS'[[Syrup]]'
p23
I17
sS'[[Sheep Feed]]'
p24
I65
sS'[[Cherry Popsicle]]'
p25
I7
sS'[[Bacon and Eggs]]'
p26
I1
sS'[[Carrot Juice]]'
p27
I8
sS'[[Baked Potato]]'
p28
I47
sS'[[Milk]]'
p29
I46
sS'[[Apple Jam]]'
p30
I27
sS'[[Carrot]]'
p31
I69
sS'[[Blackberry]]'
p32
I73
sS'[[Cotton Shirt]]'
p33
I21
sS'[[Cream]]'
p34
I67
sS'[[Raspberry Jam]]'
p35
I33
sS'[[Cherry]]'
p36
I76
sS'[[Bread]]'
p37
I74
sS'[[Wheat]]'
p38
I40
sS'[[Casserole]]'
p39
I2
sS'[[Chili Pepper]]'
p40
I10
sS'[[Honey Popcorn]]'
p41
I22
sS'[[Honeycomb]]'
p42
I58
sS'[[Indigo]]'
p43
I60
sS'[[Raspberry]]'
p44
I59
sS'[[Chocolate Cake]]'
p45
I83
sS'[[Spicy Pizza]]'
p46
I66
sS'[[Cacao]]'
p47
I84
sS'[[Woolly Chaps]]'
p48
I85
sS'[[Honey]]'
p49
I45
sS'[[Egg]]'
p50
I80
sS'[[Strawberry Cake]]'
p51
I28
sS'[[Potato]]'
p52
I16
sS'[[Fish Burger]]'
p53
I88
sS'[[White Sugar]]'
p54
I54
sS'[[Buttered Popcorn]]'
p55
I26
sS'[[Cream Cake]]'
p56
I20
sS'[[Soybean]]'
p57
I82
sS'[[Apple]]'
p58
I50
sS'[[Blue Woolly Hat]]'
p59
I49
sS'[[Goat Milk]]'
p60
I29
sS'[[Hamburger]]'
p61
I3
sS'[[Cherry Jam]]'
p62
I12
sS"[[Shepherd's Pie]]"
p63
I87
sS'[[Brown Sugar]]'
p64
I42
sS'[[Butter]]'
p65
I89
sS'[[Bacon Pie]]'
p66
I23
sS'[[Strawberry]]'
p67
I19
sS'[[Pumpkin Pie]]'
p68
I55
sS'[[Corn]]'
p69
I41
sS'[[Fish Fillet]]'
p70
I0
sS'[[Chili Popcorn]]'
p71
I53
sS'[[Bacon]]'
p72
I44
sS'[[Cotton Fabric]]'
p73
I4
sS'[[Blue Sweater]]'
p74
I71
sS'[[Potato Feta Cake]]'
p75
I72
sS'[[Sugarcane]]'
p76
I81
sS'[[Cookie]]'
p77
I62
sS'[[Apple Juice]]'
p78
I70
sS'[[Pig Feed]]'
p79
I78
sS'[[Cotton]]'
p80
I86
sS'[[Feta Pie]]'
p81
I6
sS'[[Cheese]]'
p82
I90
sS'[[Chocolate Ice Cream]]'
p83
I61
sS'[[Chicken Feed]]'
p84
I32
sS'[[Corn Bread]]'
p85
I63
sS'[[Wool]]'
p86
I79
sS'[[Roasted Tomatoes]]'
p87
I31
sS'[[Berry Juice]]'
p88
I56
sS'[[Sweater]]'
p89
I64
sS'[[Blackberry Muffin]]'
p90
I51
sS'[[Cow Feed]]'
p91
I30
s.(dp0
S'[[Brown Sugar]]'
p1
I4
sS'[[Honey Popcorn]]'
p2
I5
sS'[[Roasted Tomatoes]]'
p3
I2
sS'[[Carrot Cake]]'
p4
I3
sS'[[Bacon and Eggs]]'
p5
I5
sS'[[Cotton]]'
p6
I5
sS'[[Egg]]'
p7
I1
sS'[[Cotton Shirt]]'
p8
I5
sS'[[White Sugar]]'
p9
I5
sS'[[Vanilla Ice Cream]]'
p10
I5
sS'[[Cream]]'
p11
I7
sS'[[Goat Cheese]]'
p12
I2
sS'[[Cherry]]'
p13
I4
sS'[[Bacon Pie]]'
p14
I5
sS'[[Apple Juice]]'
p15
I5
sS'[[Syrup]]'
p16
I5
s.