(dp0
S'[[Pumpkin]]'
p1
I19
sS'[[Carrot Pie]]'
p2
I36
sS'[[Violet Dress]]'
p3
I21
sS'[[Strawberry Ice Cream]]'
p4
I24
sS'[[Raspberry Muffin]]'
p5
I75
sS'[[Apple Pie]]'
p6
I68
sS'[[Tomato Juice]]'
p7
I89
sS'[[Blue Sweater]]'
p8
I0
sS'[[Carrot Cake]]'
p9
I82
sS'[[Vanilla Ice Cream]]'
p10
I38
sS'[[Lure]]'
p11
I87
sS'[[Blackberry Jam]]'
p12
I26
sS'[[Tomato]]'
p13
I57
sS'[[Cherry Juice]]'
p14
I50
sS'[[Cheesecake]]'
p15
I2
sS'[[Fish Pie]]'
p16
I56
sS'[[Pancake]]'
p17
I83
sS'[[Popcorn]]'
p18
I86
sS'[[Goat Cheese]]'
p19
I33
sS'[[Potato Bread]]'
p20
I16
sS'[[Goat Feed]]'
p21
I69
sS'[[Red Berry Cake]]'
p22
I18
sS'[[Pizza]]'
p23
I22
sS'[[Syrup]]'
p24
I49
sS'[[Sheep Feed]]'
p25
I29
sS'[[Cherry Popsicle]]'
p26
I73
sS'[[Bacon and Eggs]]'
p27
I81
sS'[[Carrot]]'
p28
I45
sS'[[Carrot Juice]]'
p29
I31
sS'[[Baked Potato]]'
p30
I15
sS'[[Milk]]'
p31
I25
sS'[[Apple Jam]]'
p32
I6
sS'[[Apple]]'
p33
I88
sS'[[Blackberry]]'
p34
I8
sS'[[Cotton Shirt]]'
p35
I51
sS'[[Cream]]'
p36
I43
sS'[[Raspberry Jam]]'
p37
I71
sS'[[Cherry]]'
p38
I62
sS'[[Bread]]'
p39
I74
sS'[[Wheat]]'
p40
I55
sS'[[Casserole]]'
p41
I37
sS'[[Strawberry]]'
p42
I48
sS'[[Honey Popcorn]]'
p43
I59
sS'[[Honeycomb]]'
p44
I84
sS'[[Indigo]]'
p45
I4
sS'[[Raspberry]]'
p46
I5
sS'[[Chocolate Cake]]'
p47
I1
sS'[[Spicy Pizza]]'
p48
I70
sS'[[Cacao]]'
p49
I60
sS'[[Woolly Chaps]]'
p50
I3
sS'[[Honey]]'
p51
I35
sS'[[Egg]]'
p52
I40
sS'[[Strawberry Cake]]'
p53
I30
sS'[[Potato]]'
p54
I12
sS'[[Fish Burger]]'
p55
I67
sS'[[White Sugar]]'
p56
I65
sS'[[Buttered Popcorn]]'
p57
I9
sS'[[Cream Cake]]'
p58
I52
sS'[[Soybean]]'
p59
I11
sS'[[Brown Sugar]]'
p60
I61
sS'[[Blue Woolly Hat]]'
p61
I44
sS'[[Goat Milk]]'
p62
I10
sS'[[Hamburger]]'
p63
I66
sS'[[Cherry Jam]]'
p64
I54
sS"[[Shepherd's Pie]]"
p65
I7
sS'[[Butter]]'
p66
I17
sS'[[Bacon Pie]]'
p67
I79
sS'[[Chili Pepper]]'
p68
I34
sS'[[Corn]]'
p69
I27
sS'[[Fish Fillet]]'
p70
I76
sS'[[Chili Popcorn]]'
p71
I85
sS'[[Bacon]]'
p72
I58
sS'[[Cotton Fabric]]'
p73
I14
sS'[[Pumpkin Pie]]'
p74
I72
sS'[[Potato Feta Cake]]'
p75
I20
sS'[[Sugarcane]]'
p76
I47
sS'[[Cookie]]'
p77
I63
sS'[[Apple Juice]]'
p78
I42
sS'[[Pig Feed]]'
p79
I90
sS'[[Cotton]]'
p80
I32
sS'[[Feta Pie]]'
p81
I80
sS'[[Cheese]]'
p82
I53
sS'[[Chocolate Ice Cream]]'
p83
I41
sS'[[Chicken Feed]]'
p84
I39
sS'[[Corn Bread]]'
p85
I78
sS'[[Wool]]'
p86
I13
sS'[[Roasted Tomatoes]]'
p87
I23
sS'[[Berry Juice]]'
p88
I64
sS'[[Sweater]]'
p89
I77
sS'[[Blackberry Muffin]]'
p90
I28
sS'[[Cow Feed]]'
p91
I46
s.(dp0
S'[[Chicken Feed]]'
p1
I4
sS'[[Strawberry Ice Cream]]'
p2
I3
sS'[[Carrot Pie]]'
p3
I3
sS'[[Honeycomb]]'
p4
I2
sS'[[Honey Popcorn]]'
p5
I4
sS'[[Berry Juice]]'
p6
I0
sS'[[Fish Burger]]'
p7
I2
sS'[[Goat Cheese]]'
p8
I5
sS'[[Lure]]'
p9
I1
sS'[[Blackberry Muffin]]'
p10
I1
sS"[[Shepherd's Pie]]"
p11
I5
sS'[[Violet Dress]]'
p12
I3
sS'[[Soybean]]'
p13
I1
s.