(dp0
S'[[Pumpkin]]'
p1
I67
sS'[[Blackberry Jam]]'
p2
I29
sS'[[Violet Dress]]'
p3
I30
sS'[[Strawberry Ice Cream]]'
p4
I85
sS'[[Raspberry Muffin]]'
p5
I9
sS'[[Apple Pie]]'
p6
I66
sS'[[Tomato Juice]]'
p7
I27
sS'[[Blue Sweater]]'
p8
I11
sS'[[Honey]]'
p9
I72
sS'[[Vanilla Ice Cream]]'
p10
I13
sS'[[Lure]]'
p11
I41
sS'[[Carrot Pie]]'
p12
I77
sS'[[Tomato]]'
p13
I6
sS'[[Potato]]'
p14
I57
sS'[[Cheesecake]]'
p15
I5
sS'[[Fish Pie]]'
p16
I61
sS'[[Pancake]]'
p17
I63
sS'[[Popcorn]]'
p18
I70
sS'[[Goat Cheese]]'
p19
I65
sS'[[Potato Bread]]'
p20
I64
sS'[[Goat Feed]]'
p21
I42
sS'[[Red Berry Cake]]'
p22
I47
sS'[[Pizza]]'
p23
I14
sS'[[Syrup]]'
p24
I16
sS'[[Sheep Feed]]'
p25
I69
sS'[[Cherry Popsicle]]'
p26
I31
sS'[[Bacon and Eggs]]'
p27
I71
sS'[[Carrot]]'
p28
I86
sS'[[Carrot Juice]]'
p29
I81
sS'[[Baked Potato]]'
p30
I37
sS'[[Milk]]'
p31
I48
sS'[[Apple Jam]]'
p32
I50
sS'[[Apple]]'
p33
I43
sS'[[Blackberry]]'
p34
I23
sS'[[Cotton Shirt]]'
p35
I33
sS'[[Cream]]'
p36
I10
sS'[[Raspberry Jam]]'
p37
I55
sS'[[Cherry]]'
p38
I40
sS'[[Bread]]'
p39
I76
sS'[[Wheat]]'
p40
I88
sS'[[Casserole]]'
p41
I7
sS'[[Strawberry]]'
p42
I90
sS'[[Honey Popcorn]]'
p43
I83
sS'[[Honeycomb]]'
p44
I44
sS'[[Indigo]]'
p45
I79
sS'[[Raspberry]]'
p46
I87
sS'[[Chocolate Cake]]'
p47
I60
sS'[[Spicy Pizza]]'
p48
I75
sS'[[Cacao]]'
p49
I15
sS'[[Woolly Chaps]]'
p50
I62
sS'[[Carrot Cake]]'
p51
I36
sS'[[Egg]]'
p52
I12
sS'[[Strawberry Cake]]'
p53
I24
sS'[[Cherry Juice]]'
p54
I56
sS'[[Fish Burger]]'
p55
I89
sS'[[White Sugar]]'
p56
I38
sS'[[Buttered Popcorn]]'
p57
I46
sS'[[Cream Cake]]'
p58
I1
sS'[[Soybean]]'
p59
I45
sS'[[Brown Sugar]]'
p60
I25
sS'[[Blue Woolly Hat]]'
p61
I28
sS'[[Goat Milk]]'
p62
I73
sS'[[Hamburger]]'
p63
I26
sS'[[Cherry Jam]]'
p64
I58
sS"[[Shepherd's Pie]]"
p65
I53
sS'[[Butter]]'
p66
I74
sS'[[Bacon Pie]]'
p67
I2
sS'[[Chili Pepper]]'
p68
I68
sS'[[Corn]]'
p69
I17
sS'[[Fish Fillet]]'
p70
I78
sS'[[Chili Popcorn]]'
p71
I34
sS'[[Bacon]]'
p72
I18
sS'[[Cotton Fabric]]'
p73
I4
sS'[[Pumpkin Pie]]'
p74
I32
sS'[[Potato Feta Cake]]'
p75
I19
sS'[[Sugarcane]]'
p76
I21
sS'[[Cookie]]'
p77
I20
sS'[[Apple Juice]]'
p78
I22
sS'[[Pig Feed]]'
p79
I80
sS'[[Cotton]]'
p80
I51
sS'[[Feta Pie]]'
p81
I35
sS'[[Cheese]]'
p82
I54
sS'[[Chocolate Ice Cream]]'
p83
I3
sS'[[Chicken Feed]]'
p84
I0
sS'[[Corn Bread]]'
p85
I52
sS'[[Wool]]'
p86
I8
sS'[[Roasted Tomatoes]]'
p87
I84
sS'[[Berry Juice]]'
p88
I39
sS'[[Sweater]]'
p89
I59
sS'[[Blackberry Muffin]]'
p90
I82
sS'[[Cow Feed]]'
p91
I49
s.(dp0
S'[[Sheep Feed]]'
p1
I4
sS'[[Corn]]'
p2
I4
sS'[[Woolly Chaps]]'
p3
I5
sS'[[Blackberry Jam]]'
p4
I1
sS'[[Strawberry Cake]]'
p5
I5
sS'[[Honey Popcorn]]'
p6
I5
sS'[[Spicy Pizza]]'
p7
I1
sS'[[Milk]]'
p8
I0
sS'[[Buttered Popcorn]]'
p9
I4
sS'[[Apple Juice]]'
p10
I0
s.