(dp0
S'[[Pumpkin]]'
p1
I13
sS'[[Blackberry Jam]]'
p2
I24
sS'[[Violet Dress]]'
p3
I72
sS'[[Strawberry Ice Cream]]'
p4
I70
sS'[[Raspberry Muffin]]'
p5
I77
sS'[[Apple Pie]]'
p6
I27
sS'[[Tomato Juice]]'
p7
I8
sS'[[Blue Sweater]]'
p8
I18
sS'[[Honey]]'
p9
I35
sS'[[Vanilla Ice Cream]]'
p10
I65
sS'[[Lure]]'
p11
I83
sS'[[Carrot Pie]]'
p12
I21
sS'[[Tomato]]'
p13
I23
sS'[[Potato]]'
p14
I87
sS'[[Cheesecake]]'
p15
I22
sS'[[Fish Pie]]'
p16
I69
sS'[[Pancake]]'
p17
I14
sS'[[Popcorn]]'
p18
I48
sS'[[Goat Cheese]]'
p19
I15
sS'[[Potato Bread]]'
p20
I32
sS'[[Goat Feed]]'
p21
I59
sS'[[Red Berry Cake]]'
p22
I66
sS'[[Pizza]]'
p23
I54
sS'[[Syrup]]'
p24
I3
sS'[[Sheep Feed]]'
p25
I43
sS'[[Cherry Popsicle]]'
p26
I45
sS'[[Bacon and Eggs]]'
p27
I50
sS'[[Carrot]]'
p28
I60
sS'[[Carrot Juice]]'
p29
I38
sS'[[Baked Potato]]'
p30
I56
sS'[[Milk]]'
p31
I68
sS'[[Apple Jam]]'
p32
I30
sS'[[Apple]]'
p33
I49
sS'[[Blackberry]]'
p34
I10
sS'[[Cotton Shirt]]'
p35
I36
sS'[[Cream]]'
p36
I73
sS'[[Raspberry Jam]]'
p37
I75
sS'[[Cherry]]'
p38
I78
sS'[[Bread]]'
p39
I28
sS'[[Wheat]]'
p40
I55
sS'[[Casserole]]'
p41
I40
sS'[[Strawberry]]'
p42
I88
sS'[[Honey Popcorn]]'
p43
I64
sS'[[Honeycomb]]'
p44
I52
sS'[[Indigo]]'
p45
I1
sS'[[Raspberry]]'
p46
I6
sS'[[Chocolate Cake]]'
p47
I29
sS'[[Spicy Pizza]]'
p48
I62
sS'[[Cacao]]'
p49
I58
sS'[[Woolly Chaps]]'
p50
I34
sS'[[Carrot Cake]]'
p51
I80
sS'[[Egg]]'
p52
I47
sS'[[Strawberry Cake]]'
p53
I25
sS'[[Cherry Juice]]'
p54
I74
sS'[[Fish Burger]]'
p55
I81
sS'[[White Sugar]]'
p56
I39
sS'[[Buttered Popcorn]]'
p57
I4
sS'[[Cream Cake]]'
p58
I67
sS'[[Soybean]]'
p59
I86
sS'[[Brown Sugar]]'
p60
I89
sS'[[Blue Woolly Hat]]'
p61
I9
sS'[[Goat Milk]]'
p62
I0
sS'[[Hamburger]]'
p63
I57
sS'[[Cherry Jam]]'
p64
I76
sS"[[Shepherd's Pie]]"
p65
I71
sS'[[Butter]]'
p66
I19
sS'[[Bacon Pie]]'
p67
I53
sS'[[Chili Pepper]]'
p68
I37
sS'[[Corn]]'
p69
I11
sS'[[Fish Fillet]]'
p70
I63
sS'[[Chili Popcorn]]'
p71
I26
sS'[[Bacon]]'
p72
I84
sS'[[Cotton Fabric]]'
p73
I7
sS'[[Pumpkin Pie]]'
p74
I90
sS'[[Potato Feta Cake]]'
p75
I31
sS'[[Sugarcane]]'
p76
I12
sS'[[Cookie]]'
p77
I17
sS'[[Apple Juice]]'
p78
I16
sS'[[Pig Feed]]'
p79
I5
sS'[[Cotton]]'
p80
I20
sS'[[Feta Pie]]'
p81
I79
sS'[[Cheese]]'
p82
I44
sS'[[Chocolate Ice Cream]]'
p83
I51
sS'[[Chicken Feed]]'
p84
I2
sS'[[Corn Bread]]'
p85
I41
sS'[[Wool]]'
p86
I33
sS'[[Roasted Tomatoes]]'
p87
I46
sS'[[Berry Juice]]'
p88
I61
sS'[[Sweater]]'
p89
I82
sS'[[Blackberry Muffin]]'
p90
I85
sS'[[Cow Feed]]'
p91
I42
s.(dp0
S'[[Tomato]]'
p1
I3
sS'[[Wheat]]'
p2
I2
sS'[[Casserole]]'
p3
I4
sS'[[Apple Pie]]'
p4
I5
sS'[[Cheesecake]]'
p5
I4
sS'[[Roasted Tomatoes]]'
p6
I1
sS'[[Woolly Chaps]]'
p7
I1
sS'[[Carrot Pie]]'
p8
I2
sS'[[Cotton]]'
p9
I2
sS'[[Corn]]'
p10
I1
sS'[[Goat Feed]]'
p11
I4
sS'[[Raspberry Jam]]'
p12
I0
sS'[[Cotton Fabric]]'
p13
I4
sS"[[Shepherd's Pie]]"
p14
I4
sS'[[Syrup]]'
p15
I2
sS'[[Violet Dress]]'
p16
I5
sS'[[Honey Popcorn]]'
p17
I5
s.