(dp0
S'[[Pumpkin]]'
p1
I60
sS'[[Blackberry Jam]]'
p2
I10
sS'[[Violet Dress]]'
p3
I9
sS'[[Strawberry Ice Cream]]'
p4
I48
sS'[[Raspberry Muffin]]'
p5
I29
sS'[[Apple Pie]]'
p6
I22
sS'[[Tomato Juice]]'
p7
I33
sS'[[Carrot Cake]]'
p8
I85
sS'[[Vanilla Ice Cream]]'
p9
I51
sS'[[Lure]]'
p10
I44
sS'[[Carrot Pie]]'
p11
I26
sS'[[Tomato]]'
p12
I76
sS'[[Cherry Juice]]'
p13
I87
sS'[[Cheesecake]]'
p14
I41
sS'[[Fish Pie]]'
p15
I84
sS'[[Pancake]]'
p16
I14
sS'[[Popcorn]]'
p17
I45
sS'[[Goat Cheese]]'
p18
I63
sS'[[Potato Bread]]'
p19
I28
sS'[[Goat Feed]]'
p20
I55
sS'[[Red Berry Cake]]'
p21
I31
sS'[[Pizza]]'
p22
I47
sS'[[Syrup]]'
p23
I18
sS'[[Sheep Feed]]'
p24
I58
sS'[[Cherry Popsicle]]'
p25
I37
sS'[[Bacon and Eggs]]'
p26
I61
sS'[[Carrot Juice]]'
p27
I15
sS'[[Baked Potato]]'
p28
I72
sS'[[Milk]]'
p29
I81
sS'[[Apple Jam]]'
p30
I50
sS'[[Carrot]]'
p31
I75
sS'[[Blackberry]]'
p32
I53
sS'[[Cotton Shirt]]'
p33
I65
sS'[[Cream]]'
p34
I78
sS'[[Raspberry Jam]]'
p35
I7
sS'[[Cherry]]'
p36
I25
sS'[[Bread]]'
p37
I56
sS'[[Wheat]]'
p38
I80
sS'[[Casserole]]'
p39
I77
sS'[[Chili Pepper]]'
p40
I49
sS'[[Honey Popcorn]]'
p41
I90
sS'[[Honeycomb]]'
p42
I68
sS'[[Indigo]]'
p43
I43
sS'[[Raspberry]]'
p44
I69
sS'[[Chocolate Cake]]'
p45
I70
sS'[[Spicy Pizza]]'
p46
I24
sS'[[Cacao]]'
p47
I19
sS'[[Woolly Chaps]]'
p48
I38
sS'[[Honey]]'
p49
I32
sS'[[Egg]]'
p50
I74
sS'[[Strawberry Cake]]'
p51
I39
sS'[[Potato]]'
p52
I35
sS'[[Fish Burger]]'
p53
I8
sS'[[White Sugar]]'
p54
I34
sS'[[Buttered Popcorn]]'
p55
I12
sS'[[Cream Cake]]'
p56
I42
sS'[[Soybean]]'
p57
I62
sS'[[Apple]]'
p58
I89
sS'[[Blue Woolly Hat]]'
p59
I27
sS'[[Goat Milk]]'
p60
I83
sS'[[Hamburger]]'
p61
I57
sS'[[Cherry Jam]]'
p62
I20
sS"[[Shepherd's Pie]]"
p63
I46
sS'[[Brown Sugar]]'
p64
I0
sS'[[Butter]]'
p65
I17
sS'[[Bacon Pie]]'
p66
I36
sS'[[Strawberry]]'
p67
I23
sS'[[Pumpkin Pie]]'
p68
I88
sS'[[Corn]]'
p69
I4
sS'[[Fish Fillet]]'
p70
I5
sS'[[Chili Popcorn]]'
p71
I16
sS'[[Sugarcane]]'
p72
I52
sS'[[Cotton Fabric]]'
p73
I6
sS'[[Blue Sweater]]'
p74
I73
sS'[[Potato Feta Cake]]'
p75
I13
sS'[[Cookie]]'
p76
I59
sS'[[Apple Juice]]'
p77
I86
sS'[[Pig Feed]]'
p78
I71
sS'[[Cotton]]'
p79
I66
sS'[[Feta Pie]]'
p80
I64
sS'[[Cheese]]'
p81
I82
sS'[[Chocolate Ice Cream]]'
p82
I11
sS'[[Bacon]]'
p83
I2
sS'[[Chicken Feed]]'
p84
I54
sS'[[Corn Bread]]'
p85
I3
sS'[[Wool]]'
p86
I21
sS'[[Roasted Tomatoes]]'
p87
I1
sS'[[Berry Juice]]'
p88
I79
sS'[[Sweater]]'
p89
I30
sS'[[Blackberry Muffin]]'
p90
I40
sS'[[Cow Feed]]'
p91
I67
s.(dp0
S'[[Brown Sugar]]'
p1
I3
sS'[[Corn]]'
p2
I1
sS'[[Honey Popcorn]]'
p3
I5
sS'[[Strawberry]]'
p4
I1
sS'[[Potato Feta Cake]]'
p5
I2
sS'[[Apple Pie]]'
p6
I1
sS'[[Fish Pie]]'
p7
I1
sS'[[Casserole]]'
p8
I2
sS'[[Butter]]'
p9
I3
sS'[[Chocolate Ice Cream]]'
p10
I1
sS'[[Chocolate Cake]]'
p11
I2
sS'[[Apple Jam]]'
p12
I1
sS'[[Syrup]]'
p13
I3
s.