(dp0
S'[[Pumpkin]]'
p1
I48
sS'[[Blackberry Jam]]'
p2
I83
sS'[[Violet Dress]]'
p3
I89
sS'[[Strawberry Ice Cream]]'
p4
I86
sS'[[Raspberry Muffin]]'
p5
I32
sS'[[Apple Pie]]'
p6
I85
sS'[[Tomato Juice]]'
p7
I12
sS'[[Carrot Cake]]'
p8
I44
sS'[[Vanilla Ice Cream]]'
p9
I17
sS'[[Lure]]'
p10
I25
sS'[[Carrot Pie]]'
p11
I26
sS'[[Tomato]]'
p12
I37
sS'[[Cherry Juice]]'
p13
I47
sS'[[Cheesecake]]'
p14
I10
sS'[[Fish Pie]]'
p15
I13
sS'[[Pancake]]'
p16
I19
sS'[[Popcorn]]'
p17
I0
sS'[[Goat Cheese]]'
p18
I57
sS'[[Potato Bread]]'
p19
I43
sS'[[Goat Feed]]'
p20
I68
sS'[[Red Berry Cake]]'
p21
I18
sS'[[Pizza]]'
p22
I22
sS'[[Syrup]]'
p23
I77
sS'[[Sheep Feed]]'
p24
I65
sS'[[Cherry Popsicle]]'
p25
I90
sS'[[Bacon and Eggs]]'
p26
I63
sS'[[Carrot Juice]]'
p27
I73
sS'[[Baked Potato]]'
p28
I41
sS'[[Milk]]'
p29
I7
sS'[[Apple Jam]]'
p30
I24
sS'[[Carrot]]'
p31
I70
sS'[[Blackberry]]'
p32
I23
sS'[[Cotton Shirt]]'
p33
I53
sS'[[Cream]]'
p34
I11
sS'[[Raspberry Jam]]'
p35
I54
sS'[[Cherry]]'
p36
I5
sS'[[Bread]]'
p37
I64
sS'[[Wheat]]'
p38
I75
sS'[[Casserole]]'
p39
I79
sS'[[Chili Pepper]]'
p40
I34
sS'[[Honey Popcorn]]'
p41
I14
sS'[[Honeycomb]]'
p42
I55
sS'[[Indigo]]'
p43
I45
sS'[[Raspberry]]'
p44
I58
sS'[[Chocolate Cake]]'
p45
I40
sS'[[Spicy Pizza]]'
p46
I61
sS'[[Cacao]]'
p47
I72
sS'[[Woolly Chaps]]'
p48
I76
sS'[[Honey]]'
p49
I84
sS'[[Egg]]'
p50
I69
sS'[[Strawberry Cake]]'
p51
I33
sS'[[Potato]]'
p52
I27
sS'[[Fish Burger]]'
p53
I82
sS'[[White Sugar]]'
p54
I56
sS'[[Buttered Popcorn]]'
p55
I46
sS'[[Cream Cake]]'
p56
I66
sS'[[Soybean]]'
p57
I80
sS'[[Apple]]'
p58
I1
sS'[[Blue Woolly Hat]]'
p59
I74
sS'[[Goat Milk]]'
p60
I42
sS'[[Hamburger]]'
p61
I81
sS'[[Cherry Jam]]'
p62
I28
sS"[[Shepherd's Pie]]"
p63
I15
sS'[[Brown Sugar]]'
p64
I38
sS'[[Butter]]'
p65
I8
sS'[[Bacon Pie]]'
p66
I30
sS'[[Strawberry]]'
p67
I9
sS'[[Pumpkin Pie]]'
p68
I3
sS'[[Corn]]'
p69
I62
sS'[[Fish Fillet]]'
p70
I6
sS'[[Chili Popcorn]]'
p71
I2
sS'[[Bacon]]'
p72
I29
sS'[[Cotton Fabric]]'
p73
I87
sS'[[Blue Sweater]]'
p74
I16
sS'[[Potato Feta Cake]]'
p75
I36
sS'[[Sugarcane]]'
p76
I60
sS'[[Cookie]]'
p77
I67
sS'[[Apple Juice]]'
p78
I49
sS'[[Pig Feed]]'
p79
I59
sS'[[Cotton]]'
p80
I20
sS'[[Feta Pie]]'
p81
I52
sS'[[Cheese]]'
p82
I31
sS'[[Chocolate Ice Cream]]'
p83
I51
sS'[[Chicken Feed]]'
p84
I88
sS'[[Corn Bread]]'
p85
I21
sS'[[Wool]]'
p86
I39
sS'[[Roasted Tomatoes]]'
p87
I78
sS'[[Berry Juice]]'
p88
I50
sS'[[Sweater]]'
p89
I71
sS'[[Blackberry Muffin]]'
p90
I4
sS'[[Cow Feed]]'
p91
I35
s.(dp0
S'[[Feta Pie]]'
p1
I4
sS'[[Potato Feta Cake]]'
p2
I0
sS'[[Popcorn]]'
p3
I1
sS'[[Fish Fillet]]'
p4
I5
sS'[[Woolly Chaps]]'
p5
I4
sS'[[Carrot Pie]]'
p6
I1
sS'[[Potato]]'
p7
I5
sS'[[Cookie]]'
p8
I2
sS'[[Cotton Shirt]]'
p9
I0
sS'[[Spicy Pizza]]'
p10
I5
sS'[[Fish Pie]]'
p11
I1
sS'[[Blackberry Jam]]'
p12
I3
sS'[[Pizza]]'
p13
I5
s.