(dp0
S'[[Pumpkin]]'
p1
I42
sS'[[Blackberry Jam]]'
p2
I52
sS'[[Violet Dress]]'
p3
I33
sS'[[Strawberry Ice Cream]]'
p4
I57
sS'[[Raspberry Muffin]]'
p5
I28
sS'[[Apple Pie]]'
p6
I84
sS'[[Tomato Juice]]'
p7
I67
sS'[[Blue Sweater]]'
p8
I82
sS'[[Honey]]'
p9
I59
sS'[[Vanilla Ice Cream]]'
p10
I3
sS'[[Lure]]'
p11
I12
sS'[[Carrot Pie]]'
p12
I10
sS'[[Tomato]]'
p13
I75
sS'[[Potato]]'
p14
I2
sS'[[Cheesecake]]'
p15
I32
sS'[[Fish Pie]]'
p16
I51
sS'[[Pancake]]'
p17
I62
sS'[[Popcorn]]'
p18
I47
sS'[[Goat Cheese]]'
p19
I90
sS'[[Potato Bread]]'
p20
I23
sS'[[Goat Feed]]'
p21
I24
sS'[[Red Berry Cake]]'
p22
I41
sS'[[Pizza]]'
p23
I27
sS'[[Syrup]]'
p24
I5
sS'[[Sheep Feed]]'
p25
I43
sS'[[Cherry Popsicle]]'
p26
I73
sS'[[Bacon and Eggs]]'
p27
I15
sS'[[Carrot]]'
p28
I20
sS'[[Carrot Juice]]'
p29
I39
sS'[[Baked Potato]]'
p30
I11
sS'[[Milk]]'
p31
I76
sS'[[Apple Jam]]'
p32
I50
sS'[[Apple]]'
p33
I68
sS'[[Blackberry]]'
p34
I83
sS'[[Cotton Shirt]]'
p35
I29
sS'[[Cream]]'
p36
I9
sS'[[Raspberry Jam]]'
p37
I19
sS'[[Cherry]]'
p38
I44
sS'[[Bread]]'
p39
I69
sS'[[Wheat]]'
p40
I48
sS'[[Casserole]]'
p41
I34
sS'[[Strawberry]]'
p42
I30
sS'[[Honey Popcorn]]'
p43
I8
sS'[[Honeycomb]]'
p44
I66
sS'[[Indigo]]'
p45
I49
sS'[[Raspberry]]'
p46
I45
sS'[[Chocolate Cake]]'
p47
I18
sS'[[Spicy Pizza]]'
p48
I72
sS'[[Cacao]]'
p49
I26
sS'[[Woolly Chaps]]'
p50
I21
sS'[[Carrot Cake]]'
p51
I22
sS'[[Egg]]'
p52
I78
sS'[[Strawberry Cake]]'
p53
I74
sS'[[Cherry Juice]]'
p54
I63
sS'[[Fish Burger]]'
p55
I40
sS'[[White Sugar]]'
p56
I4
sS'[[Buttered Popcorn]]'
p57
I6
sS'[[Cream Cake]]'
p58
I56
sS'[[Soybean]]'
p59
I37
sS'[[Brown Sugar]]'
p60
I31
sS'[[Blue Woolly Hat]]'
p61
I88
sS'[[Goat Milk]]'
p62
I85
sS'[[Hamburger]]'
p63
I1
sS'[[Cherry Jam]]'
p64
I61
sS"[[Shepherd's Pie]]"
p65
I87
sS'[[Butter]]'
p66
I46
sS'[[Bacon Pie]]'
p67
I53
sS'[[Chili Pepper]]'
p68
I55
sS'[[Corn]]'
p69
I35
sS'[[Fish Fillet]]'
p70
I70
sS'[[Chili Popcorn]]'
p71
I60
sS'[[Bacon]]'
p72
I16
sS'[[Cotton Fabric]]'
p73
I7
sS'[[Pumpkin Pie]]'
p74
I79
sS'[[Potato Feta Cake]]'
p75
I86
sS'[[Sugarcane]]'
p76
I54
sS'[[Cookie]]'
p77
I38
sS'[[Apple Juice]]'
p78
I89
sS'[[Pig Feed]]'
p79
I81
sS'[[Cotton]]'
p80
I14
sS'[[Feta Pie]]'
p81
I0
sS'[[Cheese]]'
p82
I64
sS'[[Chocolate Ice Cream]]'
p83
I36
sS'[[Chicken Feed]]'
p84
I77
sS'[[Corn Bread]]'
p85
I65
sS'[[Wool]]'
p86
I17
sS'[[Roasted Tomatoes]]'
p87
I13
sS'[[Berry Juice]]'
p88
I71
sS'[[Sweater]]'
p89
I58
sS'[[Blackberry Muffin]]'
p90
I25
sS'[[Cow Feed]]'
p91
I80
s.(dp0
S'[[Apple]]'
p1
I3
sS'[[Potato Feta Cake]]'
p2
I5
sS'[[Bread]]'
p3
I2
sS'[[Cherry Popsicle]]'
p4
I4
sS'[[Carrot Cake]]'
p5
I0
sS'[[Strawberry Cake]]'
p6
I1
sS'[[Honey Popcorn]]'
p7
I3
sS'[[Egg]]'
p8
I5
sS'[[Cotton Shirt]]'
p9
I4
sS'[[Woolly Chaps]]'
p10
I2
sS'[[Vanilla Ice Cream]]'
p11
I4
sS'[[Cow Feed]]'
p12
I4
sS'[[Violet Dress]]'
p13
I3
s.