(dp0
S'[[Pumpkin]]'
p1
I10
sS'[[Blackberry Jam]]'
p2
I70
sS'[[Violet Dress]]'
p3
I16
sS'[[Strawberry Ice Cream]]'
p4
I90
sS'[[Raspberry Muffin]]'
p5
I23
sS'[[Apple Pie]]'
p6
I27
sS'[[Tomato Juice]]'
p7
I46
sS'[[Blue Sweater]]'
p8
I83
sS'[[Honey]]'
p9
I44
sS'[[Vanilla Ice Cream]]'
p10
I15
sS'[[Lure]]'
p11
I74
sS'[[Carrot Pie]]'
p12
I38
sS'[[Tomato]]'
p13
I87
sS'[[Potato]]'
p14
I33
sS'[[Cheesecake]]'
p15
I68
sS'[[Fish Pie]]'
p16
I2
sS'[[Pancake]]'
p17
I19
sS'[[Popcorn]]'
p18
I66
sS'[[Goat Cheese]]'
p19
I40
sS'[[Potato Bread]]'
p20
I79
sS'[[Goat Feed]]'
p21
I50
sS'[[Red Berry Cake]]'
p22
I29
sS'[[Pizza]]'
p23
I86
sS'[[Syrup]]'
p24
I37
sS'[[Sheep Feed]]'
p25
I48
sS'[[Cherry Popsicle]]'
p26
I3
sS'[[Bacon and Eggs]]'
p27
I14
sS'[[Carrot]]'
p28
I13
sS'[[Carrot Juice]]'
p29
I39
sS'[[Baked Potato]]'
p30
I53
sS'[[Milk]]'
p31
I59
sS'[[Apple Jam]]'
p32
I69
sS'[[Apple]]'
p33
I81
sS'[[Blackberry]]'
p34
I30
sS'[[Cotton Shirt]]'
p35
I56
sS'[[Cream]]'
p36
I85
sS'[[Raspberry Jam]]'
p37
I28
sS'[[Cherry]]'
p38
I75
sS'[[Bread]]'
p39
I73
sS'[[Wheat]]'
p40
I20
sS'[[Casserole]]'
p41
I72
sS'[[Strawberry]]'
p42
I34
sS'[[Honey Popcorn]]'
p43
I65
sS'[[Honeycomb]]'
p44
I63
sS'[[Indigo]]'
p45
I88
sS'[[Raspberry]]'
p46
I22
sS'[[Chocolate Cake]]'
p47
I64
sS'[[Spicy Pizza]]'
p48
I78
sS'[[Cacao]]'
p49
I47
sS'[[Woolly Chaps]]'
p50
I42
sS'[[Carrot Cake]]'
p51
I6
sS'[[Egg]]'
p52
I11
sS'[[Strawberry Cake]]'
p53
I8
sS'[[Cherry Juice]]'
p54
I24
sS'[[Fish Burger]]'
p55
I35
sS'[[White Sugar]]'
p56
I25
sS'[[Buttered Popcorn]]'
p57
I1
sS'[[Cream Cake]]'
p58
I21
sS'[[Soybean]]'
p59
I54
sS'[[Brown Sugar]]'
p60
I9
sS'[[Blue Woolly Hat]]'
p61
I12
sS'[[Goat Milk]]'
p62
I60
sS'[[Hamburger]]'
p63
I32
sS'[[Cherry Jam]]'
p64
I5
sS"[[Shepherd's Pie]]"
p65
I77
sS'[[Butter]]'
p66
I7
sS'[[Bacon Pie]]'
p67
I89
sS'[[Chili Pepper]]'
p68
I0
sS'[[Corn]]'
p69
I49
sS'[[Fish Fillet]]'
p70
I62
sS'[[Chili Popcorn]]'
p71
I84
sS'[[Bacon]]'
p72
I51
sS'[[Cotton Fabric]]'
p73
I80
sS'[[Pumpkin Pie]]'
p74
I4
sS'[[Potato Feta Cake]]'
p75
I58
sS'[[Sugarcane]]'
p76
I55
sS'[[Cookie]]'
p77
I52
sS'[[Apple Juice]]'
p78
I45
sS'[[Pig Feed]]'
p79
I57
sS'[[Cotton]]'
p80
I71
sS'[[Feta Pie]]'
p81
I67
sS'[[Cheese]]'
p82
I41
sS'[[Chocolate Ice Cream]]'
p83
I43
sS'[[Chicken Feed]]'
p84
I17
sS'[[Corn Bread]]'
p85
I31
sS'[[Wool]]'
p86
I26
sS'[[Roasted Tomatoes]]'
p87
I76
sS'[[Berry Juice]]'
p88
I61
sS'[[Sweater]]'
p89
I82
sS'[[Blackberry Muffin]]'
p90
I36
sS'[[Cow Feed]]'
p91
I18
s.(dp0
S'[[Blue Sweater]]'
p1
I5
sS'[[Potato Bread]]'
p2
I2
sS'[[Chili Pepper]]'
p3
I0
sS'[[Blackberry Jam]]'
p4
I3
sS'[[Corn Bread]]'
p5
I0
sS'[[Honey Popcorn]]'
p6
I4
sS'[[Feta Pie]]'
p7
I4
sS'[[Cotton Shirt]]'
p8
I5
sS'[[Baked Potato]]'
p9
I1
sS'[[Sugarcane]]'
p10
I0
sS'[[Bacon Pie]]'
p11
I4
sS'[[Pizza]]'
p12
I1
sS'[[Violet Dress]]'
p13
I2
s.