(dp0
S'[[Pumpkin]]'
p1
I64
sS'[[Blackberry Jam]]'
p2
I10
sS'[[Violet Dress]]'
p3
I17
sS'[[Strawberry Ice Cream]]'
p4
I15
sS'[[Raspberry Muffin]]'
p5
I22
sS'[[Apple Pie]]'
p6
I56
sS'[[Tomato Juice]]'
p7
I75
sS'[[Blue Sweater]]'
p8
I59
sS'[[Honey]]'
p9
I19
sS'[[Vanilla Ice Cream]]'
p10
I18
sS'[[Lure]]'
p11
I1
sS'[[Carrot Pie]]'
p12
I76
sS'[[Tomato]]'
p13
I67
sS'[[Potato]]'
p14
I5
sS'[[Cheesecake]]'
p15
I26
sS'[[Fish Pie]]'
p16
I16
sS'[[Pancake]]'
p17
I70
sS'[[Popcorn]]'
p18
I36
sS'[[Goat Cheese]]'
p19
I61
sS'[[Potato Bread]]'
p20
I68
sS'[[Goat Feed]]'
p21
I60
sS'[[Red Berry Cake]]'
p22
I29
sS'[[Pizza]]'
p23
I90
sS'[[Syrup]]'
p24
I24
sS'[[Sheep Feed]]'
p25
I65
sS'[[Cherry Popsicle]]'
p26
I25
sS'[[Bacon and Eggs]]'
p27
I80
sS'[[Carrot]]'
p28
I40
sS'[[Carrot Juice]]'
p29
I31
sS'[[Baked Potato]]'
p30
I66
sS'[[Milk]]'
p31
I11
sS'[[Apple Jam]]'
p32
I51
sS'[[Apple]]'
p33
I45
sS'[[Blackberry]]'
p34
I69
sS'[[Cotton Shirt]]'
p35
I0
sS'[[Cream]]'
p36
I38
sS'[[Raspberry Jam]]'
p37
I9
sS'[[Cherry]]'
p38
I35
sS'[[Bread]]'
p39
I74
sS'[[Wheat]]'
p40
I85
sS'[[Casserole]]'
p41
I53
sS'[[Strawberry]]'
p42
I47
sS'[[Honey Popcorn]]'
p43
I62
sS'[[Honeycomb]]'
p44
I82
sS'[[Indigo]]'
p45
I84
sS'[[Raspberry]]'
p46
I44
sS'[[Chocolate Cake]]'
p47
I81
sS'[[Spicy Pizza]]'
p48
I37
sS'[[Cacao]]'
p49
I21
sS'[[Woolly Chaps]]'
p50
I20
sS'[[Carrot Cake]]'
p51
I54
sS'[[Egg]]'
p52
I6
sS'[[Strawberry Cake]]'
p53
I2
sS'[[Cherry Juice]]'
p54
I7
sS'[[Fish Burger]]'
p55
I55
sS'[[White Sugar]]'
p56
I12
sS'[[Buttered Popcorn]]'
p57
I88
sS'[[Cream Cake]]'
p58
I52
sS'[[Soybean]]'
p59
I48
sS'[[Brown Sugar]]'
p60
I23
sS'[[Blue Woolly Hat]]'
p61
I58
sS'[[Goat Milk]]'
p62
I33
sS'[[Hamburger]]'
p63
I72
sS'[[Cherry Jam]]'
p64
I3
sS"[[Shepherd's Pie]]"
p65
I39
sS'[[Butter]]'
p66
I8
sS'[[Bacon Pie]]'
p67
I30
sS'[[Chili Pepper]]'
p68
I50
sS'[[Corn]]'
p69
I43
sS'[[Fish Fillet]]'
p70
I41
sS'[[Chili Popcorn]]'
p71
I71
sS'[[Bacon]]'
p72
I83
sS'[[Cotton Fabric]]'
p73
I4
sS'[[Pumpkin Pie]]'
p74
I13
sS'[[Potato Feta Cake]]'
p75
I14
sS'[[Sugarcane]]'
p76
I73
sS'[[Cookie]]'
p77
I34
sS'[[Apple Juice]]'
p78
I77
sS'[[Pig Feed]]'
p79
I49
sS'[[Cotton]]'
p80
I27
sS'[[Feta Pie]]'
p81
I46
sS'[[Cheese]]'
p82
I79
sS'[[Chocolate Ice Cream]]'
p83
I87
sS'[[Chicken Feed]]'
p84
I57
sS'[[Corn Bread]]'
p85
I89
sS'[[Wool]]'
p86
I78
sS'[[Roasted Tomatoes]]'
p87
I28
sS'[[Berry Juice]]'
p88
I32
sS'[[Sweater]]'
p89
I63
sS'[[Blackberry Muffin]]'
p90
I86
sS'[[Cow Feed]]'
p91
I42
s.(dp0
S'[[Potato Bread]]'
p1
I3
sS'[[Popcorn]]'
p2
I1
sS'[[Honey Popcorn]]'
p3
I2
sS'[[Honey]]'
p4
I3
sS'[[Cherry Juice]]'
p5
I1
sS'[[Spicy Pizza]]'
p6
I5
sS'[[Butter]]'
p7
I2
sS'[[Goat Cheese]]'
p8
I1
sS'[[Chocolate Ice Cream]]'
p9
I0
sS"[[Shepherd's Pie]]"
p10
I2
sS'[[Violet Dress]]'
p11
I5
sS'[[Soybean]]'
p12
I4
s.