(dp0
S'[[Pumpkin]]'
p1
I38
sS'[[Carrot Pie]]'
p2
I79
sS'[[Violet Dress]]'
p3
I63
sS'[[Strawberry Ice Cream]]'
p4
I32
sS'[[Raspberry Muffin]]'
p5
I41
sS'[[Apple Pie]]'
p6
I17
sS'[[Tomato Juice]]'
p7
I16
sS'[[Blue Sweater]]'
p8
I2
sS'[[Carrot Cake]]'
p9
I86
sS'[[Vanilla Ice Cream]]'
p10
I77
sS'[[Lure]]'
p11
I84
sS'[[Blackberry Jam]]'
p12
I42
sS'[[Tomato]]'
p13
I35
sS'[[Cherry Juice]]'
p14
I62
sS'[[Cheesecake]]'
p15
I51
sS'[[Fish Pie]]'
p16
I26
sS'[[Pancake]]'
p17
I52
sS'[[Popcorn]]'
p18
I22
sS'[[Goat Cheese]]'
p19
I34
sS'[[Potato Bread]]'
p20
I71
sS'[[Goat Feed]]'
p21
I64
sS'[[Red Berry Cake]]'
p22
I58
sS'[[Pizza]]'
p23
I37
sS'[[Syrup]]'
p24
I3
sS'[[Sheep Feed]]'
p25
I15
sS'[[Cherry Popsicle]]'
p26
I43
sS'[[Bacon and Eggs]]'
p27
I4
sS'[[Carrot]]'
p28
I72
sS'[[Carrot Juice]]'
p29
I61
sS'[[Baked Potato]]'
p30
I50
sS'[[Milk]]'
p31
I78
sS'[[Apple Jam]]'
p32
I48
sS'[[Apple]]'
p33
I65
sS'[[Blackberry]]'
p34
I20
sS'[[Cotton Shirt]]'
p35
I73
sS'[[Cream]]'
p36
I76
sS'[[Raspberry Jam]]'
p37
I25
sS'[[Cherry]]'
p38
I80
sS'[[Bread]]'
p39
I81
sS'[[Wheat]]'
p40
I59
sS'[[Casserole]]'
p41
I69
sS'[[Strawberry]]'
p42
I49
sS'[[Potato Feta Cake]]'
p43
I47
sS'[[Honeycomb]]'
p44
I66
sS'[[Indigo]]'
p45
I30
sS'[[Raspberry]]'
p46
I36
sS'[[Chocolate Cake]]'
p47
I28
sS'[[Spicy Pizza]]'
p48
I8
sS'[[Cacao]]'
p49
I54
sS'[[Woolly Chaps]]'
p50
I1
sS'[[Honey]]'
p51
I12
sS'[[Egg]]'
p52
I5
sS'[[Strawberry Cake]]'
p53
I40
sS'[[Potato]]'
p54
I18
sS'[[Fish Burger]]'
p55
I68
sS'[[White Sugar]]'
p56
I7
sS'[[Buttered Popcorn]]'
p57
I31
sS'[[Cream Cake]]'
p58
I75
sS'[[Soybean]]'
p59
I24
sS'[[Brown Sugar]]'
p60
I45
sS'[[Blue Woolly Hat]]'
p61
I88
sS'[[Goat Milk]]'
p62
I19
sS'[[Hamburger]]'
p63
I23
sS'[[Cherry Jam]]'
p64
I14
sS"[[Shepherd's Pie]]"
p65
I39
sS'[[Butter]]'
p66
I29
sS'[[Bacon Pie]]'
p67
I56
sS'[[Chili Pepper]]'
p68
I44
sS'[[Corn]]'
p69
I0
sS'[[Fish Fillet]]'
p70
I10
sS'[[Chili Popcorn]]'
p71
I27
sS'[[Sugarcane]]'
p72
I9
sS'[[Cotton Fabric]]'
p73
I6
sS'[[Pumpkin Pie]]'
p74
I60
sS'[[Honey Popcorn]]'
p75
I82
sS'[[Cookie]]'
p76
I67
sS'[[Apple Juice]]'
p77
I13
sS'[[Pig Feed]]'
p78
I74
sS'[[Cotton]]'
p79
I33
sS'[[Feta Pie]]'
p80
I90
sS'[[Cheese]]'
p81
I11
sS'[[Chocolate Ice Cream]]'
p82
I89
sS'[[Bacon]]'
p83
I83
sS'[[Chicken Feed]]'
p84
I87
sS'[[Corn Bread]]'
p85
I57
sS'[[Wool]]'
p86
I70
sS'[[Roasted Tomatoes]]'
p87
I55
sS'[[Berry Juice]]'
p88
I46
sS'[[Sweater]]'
p89
I21
sS'[[Blackberry Muffin]]'
p90
I53
sS'[[Cow Feed]]'
p91
I85
s.(dp0
S'[[Pumpkin Pie]]'
p1
I2
sS'[[Casserole]]'
p2
I4
sS'[[Potato Feta Cake]]'
p3
I2
sS'[[Chili Pepper]]'
p4
I1
sS'[[Blue Sweater]]'
p5
I0
sS'[[Honey Popcorn]]'
p6
I3
sS'[[Egg]]'
p7
I4
sS'[[Baked Potato]]'
p8
I3
sS'[[Berry Juice]]'
p9
I5
sS'[[Fish Burger]]'
p10
I1
sS'[[Wool]]'
p11
I5
sS'[[Sugarcane]]'
p12
I5
sS'[[Pizza]]'
p13
I4
s.