(dp0
S'[[Pumpkin]]'
p1
I20
sS'[[Blackberry Jam]]'
p2
I63
sS'[[Violet Dress]]'
p3
I78
sS'[[Strawberry Ice Cream]]'
p4
I42
sS'[[Raspberry Muffin]]'
p5
I22
sS'[[Apple Pie]]'
p6
I12
sS'[[Tomato Juice]]'
p7
I66
sS'[[Blue Sweater]]'
p8
I7
sS'[[Honey]]'
p9
I17
sS'[[Vanilla Ice Cream]]'
p10
I64
sS'[[Lure]]'
p11
I47
sS'[[Carrot Pie]]'
p12
I35
sS'[[Tomato]]'
p13
I45
sS'[[Potato]]'
p14
I8
sS'[[Cheesecake]]'
p15
I38
sS'[[Fish Pie]]'
p16
I68
sS'[[Pancake]]'
p17
I74
sS'[[Popcorn]]'
p18
I34
sS'[[Goat Cheese]]'
p19
I37
sS'[[Potato Bread]]'
p20
I82
sS'[[Goat Feed]]'
p21
I51
sS'[[Red Berry Cake]]'
p22
I83
sS'[[Pizza]]'
p23
I27
sS'[[Syrup]]'
p24
I48
sS'[[Sheep Feed]]'
p25
I76
sS'[[Cherry Popsicle]]'
p26
I33
sS'[[Bacon and Eggs]]'
p27
I41
sS'[[Carrot]]'
p28
I77
sS'[[Carrot Juice]]'
p29
I88
sS'[[Baked Potato]]'
p30
I18
sS'[[Milk]]'
p31
I50
sS'[[Apple Jam]]'
p32
I11
sS'[[Apple]]'
p33
I16
sS'[[Blackberry]]'
p34
I19
sS'[[Cotton Shirt]]'
p35
I59
sS'[[Cream]]'
p36
I29
sS'[[Raspberry Jam]]'
p37
I49
sS'[[Cherry]]'
p38
I40
sS'[[Bread]]'
p39
I57
sS'[[Wheat]]'
p40
I36
sS'[[Casserole]]'
p41
I85
sS'[[Strawberry]]'
p42
I14
sS'[[Honey Popcorn]]'
p43
I32
sS'[[Honeycomb]]'
p44
I87
sS'[[Indigo]]'
p45
I54
sS'[[Raspberry]]'
p46
I73
sS'[[Chocolate Cake]]'
p47
I65
sS'[[Spicy Pizza]]'
p48
I3
sS'[[Cacao]]'
p49
I44
sS'[[Woolly Chaps]]'
p50
I0
sS'[[Carrot Cake]]'
p51
I43
sS'[[Egg]]'
p52
I55
sS'[[Strawberry Cake]]'
p53
I80
sS'[[Cherry Juice]]'
p54
I56
sS'[[Fish Burger]]'
p55
I5
sS'[[White Sugar]]'
p56
I28
sS'[[Buttered Popcorn]]'
p57
I30
sS'[[Cream Cake]]'
p58
I61
sS'[[Soybean]]'
p59
I70
sS'[[Brown Sugar]]'
p60
I21
sS'[[Blue Woolly Hat]]'
p61
I84
sS'[[Goat Milk]]'
p62
I39
sS'[[Hamburger]]'
p63
I13
sS'[[Cherry Jam]]'
p64
I1
sS"[[Shepherd's Pie]]"
p65
I75
sS'[[Butter]]'
p66
I2
sS'[[Bacon Pie]]'
p67
I69
sS'[[Chili Pepper]]'
p68
I52
sS'[[Corn]]'
p69
I67
sS'[[Fish Fillet]]'
p70
I89
sS'[[Chili Popcorn]]'
p71
I6
sS'[[Bacon]]'
p72
I60
sS'[[Cotton Fabric]]'
p73
I31
sS'[[Pumpkin Pie]]'
p74
I15
sS'[[Potato Feta Cake]]'
p75
I25
sS'[[Sugarcane]]'
p76
I86
sS'[[Cookie]]'
p77
I23
sS'[[Apple Juice]]'
p78
I4
sS'[[Pig Feed]]'
p79
I62
sS'[[Cotton]]'
p80
I46
sS'[[Feta Pie]]'
p81
I72
sS'[[Cheese]]'
p82
I81
sS'[[Chocolate Ice Cream]]'
p83
I58
sS'[[Chicken Feed]]'
p84
I90
sS'[[Corn Bread]]'
p85
I71
sS'[[Wool]]'
p86
I79
sS'[[Roasted Tomatoes]]'
p87
I24
sS'[[Berry Juice]]'
p88
I10
sS'[[Sweater]]'
p89
I53
sS'[[Blackberry Muffin]]'
p90
I26
sS'[[Cow Feed]]'
p91
I9
s.(dp0
S'[[Casserole]]'
p1
I1
sS'[[Apple Juice]]'
p2
I3
sS'[[Cheesecake]]'
p3
I4
sS'[[Roasted Tomatoes]]'
p4
I1
sS'[[Honey]]'
p5
I4
sS'[[Carrot Pie]]'
p6
I2
sS'[[Cookie]]'
p7
I4
sS'[[Baked Potato]]'
p8
I0
sS'[[Cotton Fabric]]'
p9
I4
sS"[[Shepherd's Pie]]"
p10
I4
sS'[[Violet Dress]]'
p11
I3
sS'[[Chicken Feed]]'
p12
I0
sS'[[Raspberry Muffin]]'
p13
I1
s.