(dp0
S'[[Pumpkin]]'
p1
I27
sS'[[Blackberry Jam]]'
p2
I79
sS'[[Violet Dress]]'
p3
I67
sS'[[Strawberry Ice Cream]]'
p4
I52
sS'[[Raspberry Muffin]]'
p5
I72
sS'[[Apple Pie]]'
p6
I5
sS'[[Tomato Juice]]'
p7
I62
sS'[[Carrot Cake]]'
p8
I26
sS'[[Vanilla Ice Cream]]'
p9
I75
sS'[[Lure]]'
p10
I56
sS'[[Carrot Pie]]'
p11
I24
sS'[[Tomato]]'
p12
I68
sS'[[Cherry Juice]]'
p13
I31
sS'[[Cheesecake]]'
p14
I63
sS'[[Fish Pie]]'
p15
I90
sS'[[Pancake]]'
p16
I8
sS'[[Popcorn]]'
p17
I38
sS'[[Goat Cheese]]'
p18
I14
sS'[[Potato Bread]]'
p19
I19
sS'[[Goat Feed]]'
p20
I40
sS'[[Red Berry Cake]]'
p21
I9
sS'[[Pizza]]'
p22
I88
sS'[[Syrup]]'
p23
I46
sS'[[Sheep Feed]]'
p24
I25
sS'[[Cherry Popsicle]]'
p25
I47
sS'[[Bacon and Eggs]]'
p26
I6
sS'[[Carrot Juice]]'
p27
I13
sS'[[Baked Potato]]'
p28
I42
sS'[[Milk]]'
p29
I20
sS'[[Apple Jam]]'
p30
I54
sS'[[Carrot]]'
p31
I69
sS'[[Blackberry]]'
p32
I84
sS'[[Cotton Shirt]]'
p33
I21
sS'[[Cream]]'
p34
I50
sS'[[Raspberry Jam]]'
p35
I35
sS'[[Cherry]]'
p36
I83
sS'[[Bread]]'
p37
I81
sS'[[Wheat]]'
p38
I16
sS'[[Casserole]]'
p39
I43
sS'[[Chili Pepper]]'
p40
I33
sS'[[Honey Popcorn]]'
p41
I10
sS'[[Honeycomb]]'
p42
I80
sS'[[Indigo]]'
p43
I15
sS'[[Raspberry]]'
p44
I39
sS'[[Chocolate Cake]]'
p45
I51
sS'[[Spicy Pizza]]'
p46
I48
sS'[[Cacao]]'
p47
I64
sS'[[Woolly Chaps]]'
p48
I74
sS'[[Honey]]'
p49
I30
sS'[[Egg]]'
p50
I41
sS'[[Strawberry Cake]]'
p51
I57
sS'[[Potato]]'
p52
I3
sS'[[Fish Burger]]'
p53
I49
sS'[[White Sugar]]'
p54
I55
sS'[[Buttered Popcorn]]'
p55
I2
sS'[[Cream Cake]]'
p56
I44
sS'[[Soybean]]'
p57
I78
sS'[[Apple]]'
p58
I7
sS'[[Blue Woolly Hat]]'
p59
I18
sS'[[Goat Milk]]'
p60
I32
sS'[[Hamburger]]'
p61
I58
sS'[[Cherry Jam]]'
p62
I34
sS"[[Shepherd's Pie]]"
p63
I71
sS'[[Brown Sugar]]'
p64
I0
sS'[[Butter]]'
p65
I59
sS'[[Bacon Pie]]'
p66
I76
sS'[[Strawberry]]'
p67
I45
sS'[[Pumpkin Pie]]'
p68
I77
sS'[[Corn]]'
p69
I70
sS'[[Fish Fillet]]'
p70
I86
sS'[[Chili Popcorn]]'
p71
I65
sS'[[Sugarcane]]'
p72
I73
sS'[[Cotton Fabric]]'
p73
I66
sS'[[Blue Sweater]]'
p74
I36
sS'[[Potato Feta Cake]]'
p75
I82
sS'[[Cookie]]'
p76
I17
sS'[[Apple Juice]]'
p77
I23
sS'[[Pig Feed]]'
p78
I29
sS'[[Cotton]]'
p79
I1
sS'[[Feta Pie]]'
p80
I12
sS'[[Cheese]]'
p81
I89
sS'[[Chocolate Ice Cream]]'
p82
I37
sS'[[Bacon]]'
p83
I85
sS'[[Chicken Feed]]'
p84
I4
sS'[[Corn Bread]]'
p85
I11
sS'[[Wool]]'
p86
I87
sS'[[Roasted Tomatoes]]'
p87
I60
sS'[[Berry Juice]]'
p88
I61
sS'[[Sweater]]'
p89
I53
sS'[[Blackberry Muffin]]'
p90
I28
sS'[[Cow Feed]]'
p91
I22
s.(dp0
S'[[Tomato]]'
p1
I0
sS'[[Honey Popcorn]]'
p2
I4
sS'[[Chili Pepper]]'
p3
I1
sS'[[Honey]]'
p4
I4
sS'[[Cherry Juice]]'
p5
I4
sS'[[Carrot Juice]]'
p6
I0
sS'[[Spicy Pizza]]'
p7
I5
sS'[[Pancake]]'
p8
I3
sS'[[Goat Cheese]]'
p9
I4
sS'[[Violet Dress]]'
p10
I3
sS'[[Raspberry Muffin]]'
p11
I4
s.