(dp0
S'[[Pumpkin]]'
p1
I54
sS'[[Blackberry Jam]]'
p2
I10
sS'[[Violet Dress]]'
p3
I51
sS'[[Strawberry Ice Cream]]'
p4
I90
sS'[[Raspberry Muffin]]'
p5
I0
sS'[[Apple Pie]]'
p6
I88
sS'[[Tomato Juice]]'
p7
I61
sS'[[Blue Sweater]]'
p8
I35
sS'[[Honey]]'
p9
I22
sS'[[Vanilla Ice Cream]]'
p10
I25
sS'[[Lure]]'
p11
I21
sS'[[Carrot Pie]]'
p12
I31
sS'[[Tomato]]'
p13
I69
sS'[[Potato]]'
p14
I52
sS'[[Cheesecake]]'
p15
I7
sS'[[Fish Pie]]'
p16
I44
sS'[[Pancake]]'
p17
I70
sS'[[Popcorn]]'
p18
I27
sS'[[Goat Cheese]]'
p19
I68
sS'[[Potato Bread]]'
p20
I17
sS'[[Goat Feed]]'
p21
I64
sS'[[Red Berry Cake]]'
p22
I78
sS'[[Pizza]]'
p23
I26
sS'[[Syrup]]'
p24
I66
sS'[[Sheep Feed]]'
p25
I87
sS'[[Cherry Popsicle]]'
p26
I57
sS'[[Bacon and Eggs]]'
p27
I77
sS'[[Carrot]]'
p28
I18
sS'[[Carrot Juice]]'
p29
I24
sS'[[Baked Potato]]'
p30
I80
sS'[[Milk]]'
p31
I29
sS'[[Apple Jam]]'
p32
I85
sS'[[Apple]]'
p33
I86
sS'[[Blackberry]]'
p34
I34
sS'[[Cotton Shirt]]'
p35
I47
sS'[[Cream]]'
p36
I39
sS'[[Raspberry Jam]]'
p37
I62
sS'[[Cherry]]'
p38
I9
sS'[[Bread]]'
p39
I33
sS'[[Wheat]]'
p40
I32
sS'[[Casserole]]'
p41
I82
sS'[[Strawberry]]'
p42
I65
sS'[[Honey Popcorn]]'
p43
I50
sS'[[Honeycomb]]'
p44
I38
sS'[[Indigo]]'
p45
I79
sS'[[Raspberry]]'
p46
I84
sS'[[Chocolate Cake]]'
p47
I20
sS'[[Spicy Pizza]]'
p48
I75
sS'[[Cacao]]'
p49
I89
sS'[[Woolly Chaps]]'
p50
I11
sS'[[Carrot Cake]]'
p51
I76
sS'[[Egg]]'
p52
I8
sS'[[Strawberry Cake]]'
p53
I71
sS'[[Cherry Juice]]'
p54
I37
sS'[[Fish Burger]]'
p55
I12
sS'[[White Sugar]]'
p56
I43
sS'[[Buttered Popcorn]]'
p57
I56
sS'[[Cream Cake]]'
p58
I41
sS'[[Soybean]]'
p59
I74
sS'[[Brown Sugar]]'
p60
I2
sS'[[Blue Woolly Hat]]'
p61
I46
sS'[[Goat Milk]]'
p62
I58
sS'[[Hamburger]]'
p63
I48
sS'[[Cherry Jam]]'
p64
I16
sS"[[Shepherd's Pie]]"
p65
I81
sS'[[Butter]]'
p66
I45
sS'[[Bacon Pie]]'
p67
I49
sS'[[Chili Pepper]]'
p68
I42
sS'[[Corn]]'
p69
I40
sS'[[Fish Fillet]]'
p70
I73
sS'[[Chili Popcorn]]'
p71
I3
sS'[[Bacon]]'
p72
I53
sS'[[Cotton Fabric]]'
p73
I28
sS'[[Pumpkin Pie]]'
p74
I4
sS'[[Potato Feta Cake]]'
p75
I59
sS'[[Sugarcane]]'
p76
I5
sS'[[Cookie]]'
p77
I72
sS'[[Apple Juice]]'
p78
I83
sS'[[Pig Feed]]'
p79
I19
sS'[[Cotton]]'
p80
I13
sS'[[Feta Pie]]'
p81
I36
sS'[[Cheese]]'
p82
I60
sS'[[Chocolate Ice Cream]]'
p83
I15
sS'[[Chicken Feed]]'
p84
I6
sS'[[Corn Bread]]'
p85
I67
sS'[[Wool]]'
p86
I1
sS'[[Roasted Tomatoes]]'
p87
I14
sS'[[Berry Juice]]'
p88
I23
sS'[[Sweater]]'
p89
I30
sS'[[Blackberry Muffin]]'
p90
I55
sS'[[Cow Feed]]'
p91
I63
s.(dp0
S'[[Casserole]]'
p1
I4
sS'[[Pizza]]'
p2
I0
sS'[[Fish Fillet]]'
p3
I2
sS'[[Honey Popcorn]]'
p4
I5
sS'[[Strawberry Cake]]'
p5
I0
sS'[[Potato]]'
p6
I0
sS'[[Tomato Juice]]'
p7
I5
sS'[[Corn Bread]]'
p8
I5
sS'[[Potato Bread]]'
p9
I1
sS'[[Sugarcane]]'
p10
I4
sS'[[Baked Potato]]'
p11
I4
sS'[[Cotton Fabric]]'
p12
I3
sS'[[Cherry]]'
p13
I1
sS'[[Apple Juice]]'
p14
I5
sS'[[Chicken Feed]]'
p15
I2
sS'[[Soybean]]'
p16
I2
s.