(dp0
S'[[Pumpkin]]'
p1
I31
sS'[[Blackberry Jam]]'
p2
I45
sS'[[Violet Dress]]'
p3
I74
sS'[[Strawberry Ice Cream]]'
p4
I56
sS'[[Raspberry Muffin]]'
p5
I49
sS'[[Apple Pie]]'
p6
I86
sS'[[Tomato Juice]]'
p7
I13
sS'[[Carrot Cake]]'
p8
I62
sS'[[Vanilla Ice Cream]]'
p9
I0
sS'[[Lure]]'
p10
I51
sS'[[Carrot Pie]]'
p11
I67
sS'[[Tomato]]'
p12
I58
sS'[[Cherry Juice]]'
p13
I76
sS'[[Cheesecake]]'
p14
I44
sS'[[Fish Pie]]'
p15
I46
sS'[[Pancake]]'
p16
I18
sS'[[Popcorn]]'
p17
I34
sS'[[Goat Cheese]]'
p18
I19
sS'[[Potato Bread]]'
p19
I22
sS'[[Goat Feed]]'
p20
I11
sS'[[Red Berry Cake]]'
p21
I23
sS'[[Pizza]]'
p22
I41
sS'[[Syrup]]'
p23
I64
sS'[[Sheep Feed]]'
p24
I87
sS'[[Cherry Popsicle]]'
p25
I33
sS'[[Bacon and Eggs]]'
p26
I1
sS'[[Carrot Juice]]'
p27
I39
sS'[[Baked Potato]]'
p28
I21
sS'[[Milk]]'
p29
I14
sS'[[Apple Jam]]'
p30
I37
sS'[[Carrot]]'
p31
I3
sS'[[Blackberry]]'
p32
I68
sS'[[Cotton Shirt]]'
p33
I63
sS'[[Cream]]'
p34
I65
sS'[[Raspberry Jam]]'
p35
I25
sS'[[Cherry]]'
p36
I47
sS'[[Bread]]'
p37
I75
sS'[[Wheat]]'
p38
I10
sS'[[Casserole]]'
p39
I85
sS'[[Chili Pepper]]'
p40
I24
sS'[[Honey Popcorn]]'
p41
I43
sS'[[Honeycomb]]'
p42
I61
sS'[[Indigo]]'
p43
I15
sS'[[Raspberry]]'
p44
I71
sS'[[Chocolate Cake]]'
p45
I77
sS'[[Spicy Pizza]]'
p46
I73
sS'[[Cacao]]'
p47
I53
sS'[[Woolly Chaps]]'
p48
I82
sS'[[Honey]]'
p49
I72
sS'[[Egg]]'
p50
I60
sS'[[Strawberry Cake]]'
p51
I27
sS'[[Potato]]'
p52
I79
sS'[[Fish Burger]]'
p53
I4
sS'[[White Sugar]]'
p54
I29
sS'[[Buttered Popcorn]]'
p55
I2
sS'[[Cream Cake]]'
p56
I57
sS'[[Soybean]]'
p57
I8
sS'[[Apple]]'
p58
I20
sS'[[Blue Woolly Hat]]'
p59
I5
sS'[[Goat Milk]]'
p60
I83
sS'[[Hamburger]]'
p61
I84
sS'[[Cherry Jam]]'
p62
I26
sS"[[Shepherd's Pie]]"
p63
I28
sS'[[Brown Sugar]]'
p64
I16
sS'[[Butter]]'
p65
I30
sS'[[Bacon Pie]]'
p66
I52
sS'[[Strawberry]]'
p67
I90
sS'[[Pumpkin Pie]]'
p68
I42
sS'[[Corn]]'
p69
I35
sS'[[Fish Fillet]]'
p70
I89
sS'[[Chili Popcorn]]'
p71
I9
sS'[[Bacon]]'
p72
I78
sS'[[Cotton Fabric]]'
p73
I40
sS'[[Blue Sweater]]'
p74
I7
sS'[[Potato Feta Cake]]'
p75
I12
sS'[[Sugarcane]]'
p76
I59
sS'[[Cookie]]'
p77
I88
sS'[[Apple Juice]]'
p78
I81
sS'[[Pig Feed]]'
p79
I50
sS'[[Cotton]]'
p80
I54
sS'[[Feta Pie]]'
p81
I6
sS'[[Cheese]]'
p82
I36
sS'[[Chocolate Ice Cream]]'
p83
I69
sS'[[Chicken Feed]]'
p84
I80
sS'[[Corn Bread]]'
p85
I32
sS'[[Wool]]'
p86
I55
sS'[[Roasted Tomatoes]]'
p87
I38
sS'[[Berry Juice]]'
p88
I66
sS'[[Sweater]]'
p89
I48
sS'[[Blackberry Muffin]]'
p90
I17
sS'[[Cow Feed]]'
p91
I70
s.(dp0
S'[[Apple]]'
p1
I4
sS'[[Cow Feed]]'
p2
I2
sS'[[Cherry Popsicle]]'
p3
I3
sS'[[Carrot Pie]]'
p4
I3
sS'[[Bacon and Eggs]]'
p5
I2
sS'[[Honey Popcorn]]'
p6
I4
sS'[[Egg]]'
p7
I0
sS'[[Sugarcane]]'
p8
I5
sS'[[Lure]]'
p9
I1
sS'[[Chocolate Cake]]'
p10
I4
sS'[[Bacon Pie]]'
p11
I1
sS'[[Chicken Feed]]'
p12
I4
sS'[[Violet Dress]]'
p13
I5
sS'[[Soybean]]'
p14
I1
s.