(dp0
S'[[Pumpkin]]'
p1
I10
sS'[[Blackberry Jam]]'
p2
I26
sS'[[Violet Dress]]'
p3
I55
sS'[[Strawberry Ice Cream]]'
p4
I48
sS'[[Raspberry Muffin]]'
p5
I90
sS'[[Apple Pie]]'
p6
I22
sS'[[Tomato Juice]]'
p7
I69
sS'[[Blue Sweater]]'
p8
I23
sS'[[Honey]]'
p9
I59
sS'[[Vanilla Ice Cream]]'
p10
I63
sS'[[Lure]]'
p11
I19
sS'[[Carrot Pie]]'
p12
I68
sS'[[Tomato]]'
p13
I60
sS'[[Potato]]'
p14
I4
sS'[[Cheesecake]]'
p15
I14
sS'[[Fish Pie]]'
p16
I75
sS'[[Pancake]]'
p17
I30
sS'[[Popcorn]]'
p18
I83
sS'[[Goat Cheese]]'
p19
I64
sS'[[Potato Bread]]'
p20
I73
sS'[[Goat Feed]]'
p21
I12
sS'[[Red Berry Cake]]'
p22
I67
sS'[[Pizza]]'
p23
I54
sS'[[Syrup]]'
p24
I8
sS'[[Sheep Feed]]'
p25
I0
sS'[[Cherry Popsicle]]'
p26
I16
sS'[[Bacon and Eggs]]'
p27
I18
sS'[[Carrot]]'
p28
I2
sS'[[Carrot Juice]]'
p29
I46
sS'[[Baked Potato]]'
p30
I76
sS'[[Milk]]'
p31
I34
sS'[[Apple Jam]]'
p32
I25
sS'[[Apple]]'
p33
I7
sS'[[Blackberry]]'
p34
I38
sS'[[Cotton Shirt]]'
p35
I77
sS'[[Cream]]'
p36
I31
sS'[[Raspberry Jam]]'
p37
I50
sS'[[Cherry]]'
p38
I13
sS'[[Bread]]'
p39
I78
sS'[[Wheat]]'
p40
I79
sS'[[Casserole]]'
p41
I17
sS'[[Strawberry]]'
p42
I74
sS'[[Honey Popcorn]]'
p43
I1
sS'[[Honeycomb]]'
p44
I86
sS'[[Indigo]]'
p45
I24
sS'[[Raspberry]]'
p46
I84
sS'[[Chocolate Cake]]'
p47
I39
sS'[[Spicy Pizza]]'
p48
I56
sS'[[Cacao]]'
p49
I62
sS'[[Woolly Chaps]]'
p50
I33
sS'[[Carrot Cake]]'
p51
I80
sS'[[Egg]]'
p52
I71
sS'[[Strawberry Cake]]'
p53
I87
sS'[[Cherry Juice]]'
p54
I21
sS'[[Fish Burger]]'
p55
I43
sS'[[White Sugar]]'
p56
I40
sS'[[Buttered Popcorn]]'
p57
I42
sS'[[Cream Cake]]'
p58
I65
sS'[[Soybean]]'
p59
I11
sS'[[Brown Sugar]]'
p60
I47
sS'[[Blue Woolly Hat]]'
p61
I9
sS'[[Goat Milk]]'
p62
I51
sS'[[Hamburger]]'
p63
I41
sS'[[Cherry Jam]]'
p64
I70
sS"[[Shepherd's Pie]]"
p65
I28
sS'[[Butter]]'
p66
I27
sS'[[Bacon Pie]]'
p67
I44
sS'[[Chili Pepper]]'
p68
I37
sS'[[Corn]]'
p69
I52
sS'[[Fish Fillet]]'
p70
I58
sS'[[Chili Popcorn]]'
p71
I3
sS'[[Bacon]]'
p72
I57
sS'[[Cotton Fabric]]'
p73
I32
sS'[[Pumpkin Pie]]'
p74
I82
sS'[[Potato Feta Cake]]'
p75
I36
sS'[[Sugarcane]]'
p76
I15
sS'[[Cookie]]'
p77
I35
sS'[[Apple Juice]]'
p78
I29
sS'[[Pig Feed]]'
p79
I88
sS'[[Cotton]]'
p80
I72
sS'[[Feta Pie]]'
p81
I5
sS'[[Cheese]]'
p82
I61
sS'[[Chocolate Ice Cream]]'
p83
I45
sS'[[Chicken Feed]]'
p84
I20
sS'[[Corn Bread]]'
p85
I6
sS'[[Wool]]'
p86
I89
sS'[[Roasted Tomatoes]]'
p87
I85
sS'[[Berry Juice]]'
p88
I81
sS'[[Sweater]]'
p89
I49
sS'[[Blackberry Muffin]]'
p90
I53
sS'[[Cow Feed]]'
p91
I66
s.(dp0
S'[[Pumpkin Pie]]'
p1
I5
sS'[[Casserole]]'
p2
I4
sS'[[Popcorn]]'
p3
I5
sS'[[Carrot Pie]]'
p4
I1
sS'[[Bacon and Eggs]]'
p5
I1
sS'[[Goat Milk]]'
p6
I5
sS'[[Hamburger]]'
p7
I5
sS'[[Baked Potato]]'
p8
I1
sS'[[Butter]]'
p9
I4
sS'[[Cream]]'
p10
I3
sS'[[Sugarcane]]'
p11
I5
sS'[[Milk]]'
p12
I1
sS'[[Chocolate Ice Cream]]'
p13
I3
sS'[[Violet Dress]]'
p14
I4
sS'[[Goat Feed]]'
p15
I5
s.