(dp0
S'[[Pumpkin]]'
p1
I46
sS'[[Carrot Pie]]'
p2
I48
sS'[[Violet Dress]]'
p3
I44
sS'[[Strawberry Ice Cream]]'
p4
I15
sS'[[Raspberry Muffin]]'
p5
I71
sS'[[Apple Pie]]'
p6
I32
sS'[[Tomato Juice]]'
p7
I85
sS'[[Honey]]'
p8
I63
sS'[[Vanilla Ice Cream]]'
p9
I78
sS'[[Lure]]'
p10
I29
sS'[[Blackberry Jam]]'
p11
I50
sS'[[Tomato]]'
p12
I37
sS'[[Potato]]'
p13
I65
sS'[[Cheesecake]]'
p14
I49
sS'[[Fish Pie]]'
p15
I86
sS'[[Pancake]]'
p16
I13
sS'[[Popcorn]]'
p17
I45
sS'[[Goat Cheese]]'
p18
I20
sS'[[Potato Bread]]'
p19
I7
sS'[[Goat Feed]]'
p20
I74
sS'[[Red Berry Cake]]'
p21
I66
sS'[[Pizza]]'
p22
I28
sS'[[Syrup]]'
p23
I62
sS'[[Sheep Feed]]'
p24
I58
sS'[[Cherry Popsicle]]'
p25
I11
sS'[[Bacon and Eggs]]'
p26
I88
sS'[[Carrot Juice]]'
p27
I87
sS'[[Baked Potato]]'
p28
I10
sS'[[Milk]]'
p29
I79
sS'[[Apple Jam]]'
p30
I84
sS'[[Carrot]]'
p31
I39
sS'[[Blackberry]]'
p32
I36
sS'[[Cotton Shirt]]'
p33
I0
sS'[[Cream]]'
p34
I72
sS'[[Raspberry Jam]]'
p35
I77
sS'[[Cherry]]'
p36
I17
sS'[[Bread]]'
p37
I35
sS'[[Wheat]]'
p38
I5
sS'[[Casserole]]'
p39
I31
sS'[[Chili Pepper]]'
p40
I43
sS'[[Honey Popcorn]]'
p41
I6
sS'[[Honeycomb]]'
p42
I30
sS'[[Indigo]]'
p43
I38
sS'[[Raspberry]]'
p44
I73
sS'[[Chocolate Cake]]'
p45
I60
sS'[[Spicy Pizza]]'
p46
I64
sS'[[Cacao]]'
p47
I9
sS'[[Woolly Chaps]]'
p48
I1
sS'[[Carrot Cake]]'
p49
I90
sS'[[Egg]]'
p50
I76
sS'[[Strawberry Cake]]'
p51
I89
sS'[[Cherry Juice]]'
p52
I56
sS'[[Fish Burger]]'
p53
I26
sS'[[White Sugar]]'
p54
I68
sS'[[Buttered Popcorn]]'
p55
I61
sS'[[Cream Cake]]'
p56
I34
sS'[[Soybean]]'
p57
I4
sS'[[Apple]]'
p58
I42
sS'[[Blue Woolly Hat]]'
p59
I27
sS'[[Goat Milk]]'
p60
I57
sS'[[Hamburger]]'
p61
I2
sS'[[Cherry Jam]]'
p62
I25
sS"[[Shepherd's Pie]]"
p63
I22
sS'[[Brown Sugar]]'
p64
I41
sS'[[Butter]]'
p65
I24
sS'[[Bacon Pie]]'
p66
I23
sS'[[Strawberry]]'
p67
I33
sS'[[Pumpkin Pie]]'
p68
I69
sS'[[Corn]]'
p69
I40
sS'[[Fish Fillet]]'
p70
I80
sS'[[Chili Popcorn]]'
p71
I83
sS'[[Bacon]]'
p72
I55
sS'[[Cotton Fabric]]'
p73
I81
sS'[[Blue Sweater]]'
p74
I8
sS'[[Potato Feta Cake]]'
p75
I75
sS'[[Sugarcane]]'
p76
I53
sS'[[Cookie]]'
p77
I12
sS'[[Apple Juice]]'
p78
I82
sS'[[Pig Feed]]'
p79
I67
sS'[[Cotton]]'
p80
I47
sS'[[Feta Pie]]'
p81
I18
sS'[[Cheese]]'
p82
I14
sS'[[Chocolate Ice Cream]]'
p83
I21
sS'[[Chicken Feed]]'
p84
I3
sS'[[Corn Bread]]'
p85
I16
sS'[[Wool]]'
p86
I51
sS'[[Roasted Tomatoes]]'
p87
I70
sS'[[Berry Juice]]'
p88
I52
sS'[[Sweater]]'
p89
I59
sS'[[Blackberry Muffin]]'
p90
I54
sS'[[Cow Feed]]'
p91
I19
s.(dp0
S'[[Apple]]'
p1
I1
sS'[[Popcorn]]'
p2
I1
sS'[[Cheesecake]]'
p3
I3
sS'[[Cherry Juice]]'
p4
I5
sS'[[Cookie]]'
p5
I4
sS'[[Cotton Shirt]]'
p6
I4
sS'[[Baked Potato]]'
p7
I3
sS'[[Spicy Pizza]]'
p8
I3
sS'[[Carrot Juice]]'
p9
I1
sS'[[Cream Cake]]'
p10
I0
sS"[[Shepherd's Pie]]"
p11
I3
sS'[[Goat Feed]]'
p12
I1
s.