(dp0
S'[[Pumpkin]]'
p1
I21
sS'[[Blackberry Jam]]'
p2
I32
sS'[[Violet Dress]]'
p3
I53
sS'[[Strawberry Ice Cream]]'
p4
I39
sS'[[Raspberry Muffin]]'
p5
I51
sS'[[Apple Pie]]'
p6
I8
sS'[[Tomato Juice]]'
p7
I58
sS'[[Carrot Cake]]'
p8
I16
sS'[[Vanilla Ice Cream]]'
p9
I84
sS'[[Lure]]'
p10
I62
sS'[[Carrot Pie]]'
p11
I22
sS'[[Tomato]]'
p12
I5
sS'[[Cherry Juice]]'
p13
I54
sS'[[Cheesecake]]'
p14
I19
sS'[[Fish Pie]]'
p15
I28
sS'[[Pancake]]'
p16
I88
sS'[[Popcorn]]'
p17
I57
sS'[[Goat Cheese]]'
p18
I37
sS'[[Potato Bread]]'
p19
I2
sS'[[Goat Feed]]'
p20
I78
sS'[[Red Berry Cake]]'
p21
I83
sS'[[Pizza]]'
p22
I42
sS'[[Syrup]]'
p23
I64
sS'[[Sheep Feed]]'
p24
I10
sS'[[Cherry Popsicle]]'
p25
I15
sS'[[Bacon and Eggs]]'
p26
I52
sS'[[Carrot Juice]]'
p27
I89
sS'[[Baked Potato]]'
p28
I33
sS'[[Milk]]'
p29
I74
sS'[[Apple Jam]]'
p30
I75
sS'[[Carrot]]'
p31
I59
sS'[[Blackberry]]'
p32
I63
sS'[[Cotton Shirt]]'
p33
I67
sS'[[Cream]]'
p34
I69
sS'[[Raspberry Jam]]'
p35
I79
sS'[[Cherry]]'
p36
I34
sS'[[Bread]]'
p37
I26
sS'[[Wheat]]'
p38
I43
sS'[[Casserole]]'
p39
I36
sS'[[Chili Pepper]]'
p40
I81
sS'[[Honey Popcorn]]'
p41
I11
sS'[[Honeycomb]]'
p42
I66
sS'[[Indigo]]'
p43
I4
sS'[[Raspberry]]'
p44
I68
sS'[[Chocolate Cake]]'
p45
I35
sS'[[Spicy Pizza]]'
p46
I1
sS'[[Cacao]]'
p47
I14
sS'[[Woolly Chaps]]'
p48
I20
sS'[[Honey]]'
p49
I82
sS'[[Egg]]'
p50
I76
sS'[[Strawberry Cake]]'
p51
I25
sS'[[Potato]]'
p52
I31
sS'[[Fish Burger]]'
p53
I9
sS'[[White Sugar]]'
p54
I61
sS'[[Buttered Popcorn]]'
p55
I41
sS'[[Cream Cake]]'
p56
I71
sS'[[Soybean]]'
p57
I85
sS'[[Apple]]'
p58
I48
sS'[[Blue Woolly Hat]]'
p59
I87
sS'[[Goat Milk]]'
p60
I12
sS'[[Hamburger]]'
p61
I40
sS'[[Cherry Jam]]'
p62
I3
sS"[[Shepherd's Pie]]"
p63
I50
sS'[[Brown Sugar]]'
p64
I73
sS'[[Butter]]'
p65
I27
sS'[[Bacon Pie]]'
p66
I30
sS'[[Strawberry]]'
p67
I77
sS'[[Pumpkin Pie]]'
p68
I86
sS'[[Corn]]'
p69
I80
sS'[[Fish Fillet]]'
p70
I13
sS'[[Chili Popcorn]]'
p71
I38
sS'[[Bacon]]'
p72
I46
sS'[[Cotton Fabric]]'
p73
I49
sS'[[Blue Sweater]]'
p74
I23
sS'[[Potato Feta Cake]]'
p75
I55
sS'[[Sugarcane]]'
p76
I7
sS'[[Cookie]]'
p77
I17
sS'[[Apple Juice]]'
p78
I65
sS'[[Pig Feed]]'
p79
I70
sS'[[Cotton]]'
p80
I56
sS'[[Feta Pie]]'
p81
I24
sS'[[Cheese]]'
p82
I0
sS'[[Chocolate Ice Cream]]'
p83
I18
sS'[[Chicken Feed]]'
p84
I47
sS'[[Corn Bread]]'
p85
I6
sS'[[Wool]]'
p86
I29
sS'[[Roasted Tomatoes]]'
p87
I60
sS'[[Berry Juice]]'
p88
I72
sS'[[Sweater]]'
p89
I44
sS'[[Blackberry Muffin]]'
p90
I45
sS'[[Cow Feed]]'
p91
I90
s.(dp0
S'[[Pumpkin Pie]]'
p1
I5
sS'[[Strawberry Ice Cream]]'
p2
I4
sS'[[Roasted Tomatoes]]'
p3
I3
sS'[[Woolly Chaps]]'
p4
I3
sS'[[Carrot Cake]]'
p5
I1
sS'[[Carrot Pie]]'
p6
I0
sS'[[Blue Woolly Hat]]'
p7
I5
sS'[[Honey Popcorn]]'
p8
I5
sS'[[Feta Pie]]'
p9
I5
sS'[[Chili Popcorn]]'
p10
I4
sS'[[Blackberry Muffin]]'
p11
I3
sS'[[Popcorn]]'
p12
I4
sS'[[Sugarcane]]'
p13
I3
sS'[[Cotton Fabric]]'
p14
I2
s.