(dp0
S'[[Pumpkin]]'
p1
I28
sS'[[Blackberry Jam]]'
p2
I83
sS'[[Violet Dress]]'
p3
I26
sS'[[Strawberry Ice Cream]]'
p4
I53
sS'[[Raspberry Muffin]]'
p5
I12
sS'[[Apple Pie]]'
p6
I27
sS'[[Tomato Juice]]'
p7
I43
sS'[[Blue Sweater]]'
p8
I3
sS'[[Honey]]'
p9
I6
sS'[[Vanilla Ice Cream]]'
p10
I51
sS'[[Lure]]'
p11
I52
sS'[[Carrot Pie]]'
p12
I1
sS'[[Tomato]]'
p13
I68
sS'[[Potato]]'
p14
I80
sS'[[Cheesecake]]'
p15
I84
sS'[[Fish Pie]]'
p16
I85
sS'[[Pancake]]'
p17
I64
sS'[[Popcorn]]'
p18
I13
sS'[[Goat Cheese]]'
p19
I14
sS'[[Potato Bread]]'
p20
I19
sS'[[Goat Feed]]'
p21
I61
sS'[[Red Berry Cake]]'
p22
I7
sS'[[Pizza]]'
p23
I29
sS'[[Syrup]]'
p24
I71
sS'[[Sheep Feed]]'
p25
I63
sS'[[Cherry Popsicle]]'
p26
I73
sS'[[Bacon and Eggs]]'
p27
I36
sS'[[Carrot]]'
p28
I18
sS'[[Carrot Juice]]'
p29
I69
sS'[[Baked Potato]]'
p30
I42
sS'[[Milk]]'
p31
I47
sS'[[Apple Jam]]'
p32
I90
sS'[[Apple]]'
p33
I55
sS'[[Blackberry]]'
p34
I9
sS'[[Cotton Shirt]]'
p35
I30
sS'[[Cream]]'
p36
I37
sS'[[Raspberry Jam]]'
p37
I31
sS'[[Cherry]]'
p38
I50
sS'[[Bread]]'
p39
I72
sS'[[Wheat]]'
p40
I17
sS'[[Casserole]]'
p41
I33
sS'[[Strawberry]]'
p42
I41
sS'[[Honey Popcorn]]'
p43
I16
sS'[[Honeycomb]]'
p44
I58
sS'[[Indigo]]'
p45
I40
sS'[[Raspberry]]'
p46
I86
sS'[[Chocolate Cake]]'
p47
I39
sS'[[Spicy Pizza]]'
p48
I35
sS'[[Cacao]]'
p49
I70
sS'[[Woolly Chaps]]'
p50
I81
sS'[[Carrot Cake]]'
p51
I89
sS'[[Egg]]'
p52
I44
sS'[[Strawberry Cake]]'
p53
I67
sS'[[Cherry Juice]]'
p54
I11
sS'[[Fish Burger]]'
p55
I25
sS'[[White Sugar]]'
p56
I0
sS'[[Buttered Popcorn]]'
p57
I5
sS'[[Cream Cake]]'
p58
I88
sS'[[Soybean]]'
p59
I4
sS'[[Brown Sugar]]'
p60
I79
sS'[[Blue Woolly Hat]]'
p61
I74
sS'[[Goat Milk]]'
p62
I34
sS'[[Hamburger]]'
p63
I60
sS'[[Cherry Jam]]'
p64
I38
sS"[[Shepherd's Pie]]"
p65
I54
sS'[[Butter]]'
p66
I22
sS'[[Bacon Pie]]'
p67
I59
sS'[[Chili Pepper]]'
p68
I65
sS'[[Corn]]'
p69
I57
sS'[[Fish Fillet]]'
p70
I23
sS'[[Chili Popcorn]]'
p71
I49
sS'[[Bacon]]'
p72
I77
sS'[[Cotton Fabric]]'
p73
I87
sS'[[Pumpkin Pie]]'
p74
I8
sS'[[Potato Feta Cake]]'
p75
I32
sS'[[Sugarcane]]'
p76
I66
sS'[[Cookie]]'
p77
I46
sS'[[Apple Juice]]'
p78
I48
sS'[[Pig Feed]]'
p79
I76
sS'[[Cotton]]'
p80
I45
sS'[[Feta Pie]]'
p81
I15
sS'[[Cheese]]'
p82
I56
sS'[[Chocolate Ice Cream]]'
p83
I2
sS'[[Chicken Feed]]'
p84
I75
sS'[[Corn Bread]]'
p85
I78
sS'[[Wool]]'
p86
I82
sS'[[Roasted Tomatoes]]'
p87
I10
sS'[[Berry Juice]]'
p88
I24
sS'[[Sweater]]'
p89
I62
sS'[[Blackberry Muffin]]'
p90
I20
sS'[[Cow Feed]]'
p91
I21
s.(dp0
S'[[Cheesecake]]'
p1
I4
sS'[[Cherry Popsicle]]'
p2
I2
sS'[[Carrot Cake]]'
p3
I5
sS'[[Blackberry]]'
p4
I1
sS'[[Bacon and Eggs]]'
p5
I5
sS'[[Fish Pie]]'
p6
I3
sS'[[Baked Potato]]'
p7
I3
sS'[[Honeycomb]]'
p8
I4
sS'[[Sugarcane]]'
p9
I0
sS'[[Sweater]]'
p10
I5
sS'[[Violet Dress]]'
p11
I4
sS'[[Strawberry]]'
p12
I0
s.