(dp0
S'[[Pumpkin]]'
p1
I49
sS'[[Blackberry Jam]]'
p2
I29
sS'[[Violet Dress]]'
p3
I65
sS'[[Strawberry Ice Cream]]'
p4
I54
sS'[[Raspberry Muffin]]'
p5
I70
sS'[[Apple Pie]]'
p6
I76
sS'[[Tomato Juice]]'
p7
I17
sS'[[Blue Sweater]]'
p8
I47
sS'[[Honey]]'
p9
I25
sS'[[Vanilla Ice Cream]]'
p10
I0
sS'[[Lure]]'
p11
I61
sS'[[Carrot Pie]]'
p12
I63
sS'[[Tomato]]'
p13
I37
sS'[[Potato]]'
p14
I62
sS'[[Cheesecake]]'
p15
I10
sS'[[Fish Pie]]'
p16
I41
sS'[[Pancake]]'
p17
I53
sS'[[Popcorn]]'
p18
I72
sS'[[Goat Cheese]]'
p19
I79
sS'[[Potato Bread]]'
p20
I38
sS'[[Goat Feed]]'
p21
I74
sS'[[Red Berry Cake]]'
p22
I90
sS'[[Pizza]]'
p23
I30
sS'[[Syrup]]'
p24
I33
sS'[[Sheep Feed]]'
p25
I42
sS'[[Cherry Popsicle]]'
p26
I4
sS'[[Bacon and Eggs]]'
p27
I23
sS'[[Carrot]]'
p28
I55
sS'[[Carrot Juice]]'
p29
I86
sS'[[Baked Potato]]'
p30
I7
sS'[[Milk]]'
p31
I56
sS'[[Apple Jam]]'
p32
I12
sS'[[Apple]]'
p33
I22
sS'[[Blackberry]]'
p34
I89
sS'[[Cotton Shirt]]'
p35
I8
sS'[[Cream]]'
p36
I77
sS'[[Raspberry Jam]]'
p37
I5
sS'[[Cherry]]'
p38
I78
sS'[[Bread]]'
p39
I31
sS'[[Wheat]]'
p40
I35
sS'[[Casserole]]'
p41
I13
sS'[[Strawberry]]'
p42
I26
sS'[[Honey Popcorn]]'
p43
I1
sS'[[Honeycomb]]'
p44
I64
sS'[[Indigo]]'
p45
I71
sS'[[Raspberry]]'
p46
I15
sS'[[Chocolate Cake]]'
p47
I73
sS'[[Spicy Pizza]]'
p48
I50
sS'[[Cacao]]'
p49
I87
sS'[[Woolly Chaps]]'
p50
I81
sS'[[Carrot Cake]]'
p51
I39
sS'[[Egg]]'
p52
I28
sS'[[Strawberry Cake]]'
p53
I46
sS'[[Cherry Juice]]'
p54
I48
sS'[[Fish Burger]]'
p55
I83
sS'[[White Sugar]]'
p56
I75
sS'[[Buttered Popcorn]]'
p57
I16
sS'[[Cream Cake]]'
p58
I58
sS'[[Soybean]]'
p59
I14
sS'[[Brown Sugar]]'
p60
I59
sS'[[Blue Woolly Hat]]'
p61
I32
sS'[[Goat Milk]]'
p62
I2
sS'[[Hamburger]]'
p63
I44
sS'[[Cherry Jam]]'
p64
I88
sS"[[Shepherd's Pie]]"
p65
I11
sS'[[Butter]]'
p66
I69
sS'[[Bacon Pie]]'
p67
I3
sS'[[Chili Pepper]]'
p68
I18
sS'[[Corn]]'
p69
I21
sS'[[Fish Fillet]]'
p70
I34
sS'[[Chili Popcorn]]'
p71
I27
sS'[[Bacon]]'
p72
I85
sS'[[Cotton Fabric]]'
p73
I20
sS'[[Pumpkin Pie]]'
p74
I57
sS'[[Potato Feta Cake]]'
p75
I6
sS'[[Sugarcane]]'
p76
I67
sS'[[Cookie]]'
p77
I80
sS'[[Apple Juice]]'
p78
I9
sS'[[Pig Feed]]'
p79
I40
sS'[[Cotton]]'
p80
I68
sS'[[Feta Pie]]'
p81
I36
sS'[[Cheese]]'
p82
I51
sS'[[Chocolate Ice Cream]]'
p83
I82
sS'[[Chicken Feed]]'
p84
I19
sS'[[Corn Bread]]'
p85
I60
sS'[[Wool]]'
p86
I84
sS'[[Roasted Tomatoes]]'
p87
I66
sS'[[Berry Juice]]'
p88
I43
sS'[[Sweater]]'
p89
I45
sS'[[Blackberry Muffin]]'
p90
I24
sS'[[Cow Feed]]'
p91
I52
s.(dp0
S'[[Casserole]]'
p1
I4
sS'[[Apple Juice]]'
p2
I3
sS'[[Popcorn]]'
p3
I3
sS'[[Cheesecake]]'
p4
I4
sS'[[Cacao]]'
p5
I2
sS'[[Carrot Pie]]'
p6
I2
sS'[[Honey Popcorn]]'
p7
I5
sS'[[Baked Potato]]'
p8
I0
sS'[[Roasted Tomatoes]]'
p9
I1
sS'[[Raspberry Jam]]'
p10
I2
sS'[[Cotton Fabric]]'
p11
I4
sS'[[Cherry]]'
p12
I3
sS"[[Shepherd's Pie]]"
p13
I4
sS'[[Violet Dress]]'
p14
I3
sS'[[Goat Feed]]'
p15
I4
s.