(dp0
S'[[Pumpkin]]'
p1
I67
sS'[[Carrot Pie]]'
p2
I9
sS'[[Violet Dress]]'
p3
I73
sS'[[Strawberry Ice Cream]]'
p4
I40
sS'[[Raspberry Muffin]]'
p5
I63
sS'[[Woolly Chaps]]'
p6
I18
sS'[[Tomato Juice]]'
p7
I51
sS'[[Honey]]'
p8
I79
sS'[[Vanilla Ice Cream]]'
p9
I71
sS'[[Lure]]'
p10
I32
sS'[[Blackberry Jam]]'
p11
I4
sS'[[Tomato]]'
p12
I6
sS'[[Potato]]'
p13
I13
sS'[[Cheesecake]]'
p14
I22
sS'[[Fish Pie]]'
p15
I43
sS'[[Pancake]]'
p16
I31
sS'[[Popcorn]]'
p17
I87
sS'[[Goat Cheese]]'
p18
I37
sS'[[Potato Bread]]'
p19
I2
sS'[[Goat Feed]]'
p20
I74
sS'[[Red Berry Cake]]'
p21
I60
sS'[[Pizza]]'
p22
I70
sS'[[Syrup]]'
p23
I42
sS'[[Sheep Feed]]'
p24
I75
sS'[[Cherry Popsicle]]'
p25
I21
sS'[[Bacon and Eggs]]'
p26
I65
sS'[[Carrot Juice]]'
p27
I54
sS'[[Baked Potato]]'
p28
I47
sS'[[Milk]]'
p29
I57
sS'[[Apple Jam]]'
p30
I17
sS'[[Carrot]]'
p31
I64
sS'[[Blackberry]]'
p32
I44
sS'[[Cotton Shirt]]'
p33
I78
sS'[[Cream]]'
p34
I14
sS'[[Raspberry Jam]]'
p35
I12
sS'[[Cherry]]'
p36
I85
sS'[[Bread]]'
p37
I56
sS'[[Wheat]]'
p38
I0
sS'[[Casserole]]'
p39
I23
sS'[[Strawberry]]'
p40
I33
sS'[[Potato Feta Cake]]'
p41
I61
sS'[[Spicy Pizza]]'
p42
I7
sS'[[Indigo]]'
p43
I50
sS'[[Raspberry]]'
p44
I26
sS'[[Chocolate Cake]]'
p45
I49
sS'[[Apple Pie]]'
p46
I66
sS'[[Cacao]]'
p47
I25
sS'[[Blue Sweater]]'
p48
I30
sS'[[Carrot Cake]]'
p49
I29
sS'[[Egg]]'
p50
I76
sS'[[Strawberry Cake]]'
p51
I53
sS'[[Cherry Juice]]'
p52
I28
sS'[[Fish Burger]]'
p53
I15
sS'[[White Sugar]]'
p54
I34
sS'[[Buttered Popcorn]]'
p55
I19
sS'[[Cream Cake]]'
p56
I20
sS'[[Soybean]]'
p57
I52
sS'[[Brown Sugar]]'
p58
I84
sS'[[Blue Woolly Hat]]'
p59
I89
sS'[[Goat Milk]]'
p60
I39
sS'[[Hamburger]]'
p61
I72
sS'[[Cherry Jam]]'
p62
I68
sS"[[Shepherd's Pie]]"
p63
I41
sS'[[Apple]]'
p64
I27
sS'[[Butter]]'
p65
I77
sS'[[Bacon Pie]]'
p66
I5
sS'[[Chili Pepper]]'
p67
I90
sS'[[Corn]]'
p68
I1
sS'[[Fish Fillet]]'
p69
I55
sS'[[Chili Popcorn]]'
p70
I45
sS'[[Bacon]]'
p71
I83
sS'[[Cotton Fabric]]'
p72
I48
sS'[[Pumpkin Pie]]'
p73
I46
sS'[[Honey Popcorn]]'
p74
I58
sS'[[Sugarcane]]'
p75
I10
sS'[[Cookie]]'
p76
I81
sS'[[Apple Juice]]'
p77
I16
sS'[[Pig Feed]]'
p78
I3
sS'[[Cotton]]'
p79
I11
sS'[[Feta Pie]]'
p80
I80
sS'[[Cheese]]'
p81
I86
sS'[[Chocolate Ice Cream]]'
p82
I36
sS'[[Chicken Feed]]'
p83
I24
sS'[[Corn Bread]]'
p84
I82
sS'[[Honeycomb]]'
p85
I62
sS'[[Wool]]'
p86
I59
sS'[[Roasted Tomatoes]]'
p87
I8
sS'[[Berry Juice]]'
p88
I88
sS'[[Sweater]]'
p89
I38
sS'[[Blackberry Muffin]]'
p90
I35
sS'[[Cow Feed]]'
p91
I69
s.(dp0
S'[[Buttered Popcorn]]'
p1
I5
sS'[[Apple Pie]]'
p2
I3
sS'[[Fish Pie]]'
p3
I1
sS'[[Cotton Shirt]]'
p4
I5
sS'[[Tomato Juice]]'
p5
I0
sS'[[Chili Popcorn]]'
p6
I5
sS'[[Pancake]]'
p7
I4
sS'[[Cheese]]'
p8
I2
sS'[[Chocolate Ice Cream]]'
p9
I5
sS'[[Strawberry]]'
p10
I3
s.