(dp0
S'[[Pumpkin]]'
p1
I61
sS'[[Blackberry Jam]]'
p2
I55
sS'[[Violet Dress]]'
p3
I72
sS'[[Strawberry Ice Cream]]'
p4
I56
sS'[[Raspberry Muffin]]'
p5
I46
sS'[[Apple Pie]]'
p6
I59
sS'[[Tomato Juice]]'
p7
I23
sS'[[Blue Sweater]]'
p8
I67
sS'[[Honey]]'
p9
I70
sS'[[Vanilla Ice Cream]]'
p10
I32
sS'[[Lure]]'
p11
I83
sS'[[Carrot Pie]]'
p12
I75
sS'[[Tomato]]'
p13
I6
sS'[[Potato]]'
p14
I85
sS'[[Cheesecake]]'
p15
I44
sS'[[Fish Pie]]'
p16
I60
sS'[[Pancake]]'
p17
I73
sS'[[Popcorn]]'
p18
I31
sS'[[Goat Cheese]]'
p19
I20
sS'[[Potato Bread]]'
p20
I80
sS'[[Goat Feed]]'
p21
I71
sS'[[Red Berry Cake]]'
p22
I63
sS'[[Pizza]]'
p23
I69
sS'[[Syrup]]'
p24
I77
sS'[[Sheep Feed]]'
p25
I3
sS'[[Cherry Popsicle]]'
p26
I11
sS'[[Bacon and Eggs]]'
p27
I30
sS'[[Carrot]]'
p28
I43
sS'[[Carrot Juice]]'
p29
I7
sS'[[Baked Potato]]'
p30
I50
sS'[[Milk]]'
p31
I49
sS'[[Apple Jam]]'
p32
I64
sS'[[Apple]]'
p33
I34
sS'[[Blackberry]]'
p34
I22
sS'[[Cotton Shirt]]'
p35
I51
sS'[[Cream]]'
p36
I36
sS'[[Raspberry Jam]]'
p37
I54
sS'[[Cherry]]'
p38
I27
sS'[[Bread]]'
p39
I79
sS'[[Wheat]]'
p40
I15
sS'[[Casserole]]'
p41
I5
sS'[[Strawberry]]'
p42
I4
sS'[[Honey Popcorn]]'
p43
I53
sS'[[Honeycomb]]'
p44
I14
sS'[[Indigo]]'
p45
I81
sS'[[Raspberry]]'
p46
I18
sS'[[Chocolate Cake]]'
p47
I90
sS'[[Spicy Pizza]]'
p48
I87
sS'[[Cacao]]'
p49
I35
sS'[[Woolly Chaps]]'
p50
I58
sS'[[Carrot Cake]]'
p51
I26
sS'[[Egg]]'
p52
I25
sS'[[Strawberry Cake]]'
p53
I42
sS'[[Cherry Juice]]'
p54
I62
sS'[[Fish Burger]]'
p55
I37
sS'[[White Sugar]]'
p56
I40
sS'[[Buttered Popcorn]]'
p57
I28
sS'[[Cream Cake]]'
p58
I82
sS'[[Soybean]]'
p59
I78
sS'[[Brown Sugar]]'
p60
I48
sS'[[Blue Woolly Hat]]'
p61
I57
sS'[[Goat Milk]]'
p62
I47
sS'[[Hamburger]]'
p63
I8
sS'[[Cherry Jam]]'
p64
I41
sS"[[Shepherd's Pie]]"
p65
I29
sS'[[Butter]]'
p66
I45
sS'[[Bacon Pie]]'
p67
I33
sS'[[Chili Pepper]]'
p68
I13
sS'[[Corn]]'
p69
I88
sS'[[Fish Fillet]]'
p70
I76
sS'[[Chili Popcorn]]'
p71
I19
sS'[[Bacon]]'
p72
I52
sS'[[Cotton Fabric]]'
p73
I65
sS'[[Pumpkin Pie]]'
p74
I84
sS'[[Potato Feta Cake]]'
p75
I2
sS'[[Sugarcane]]'
p76
I1
sS'[[Cookie]]'
p77
I68
sS'[[Apple Juice]]'
p78
I24
sS'[[Pig Feed]]'
p79
I38
sS'[[Cotton]]'
p80
I39
sS'[[Feta Pie]]'
p81
I12
sS'[[Cheese]]'
p82
I17
sS'[[Chocolate Ice Cream]]'
p83
I16
sS'[[Chicken Feed]]'
p84
I66
sS'[[Corn Bread]]'
p85
I86
sS'[[Wool]]'
p86
I21
sS'[[Roasted Tomatoes]]'
p87
I10
sS'[[Berry Juice]]'
p88
I74
sS'[[Sweater]]'
p89
I89
sS'[[Blackberry Muffin]]'
p90
I0
sS'[[Cow Feed]]'
p91
I9
s.(dp0
S'[[Brown Sugar]]'
p1
I0
sS'[[Apple Juice]]'
p2
I4
sS'[[Feta Pie]]'
p3
I2
sS'[[Blue Woolly Hat]]'
p4
I2
sS'[[Hamburger]]'
p5
I5
sS'[[Cotton Shirt]]'
p6
I1
sS'[[Tomato Juice]]'
p7
I5
sS'[[Honeycomb]]'
p8
I2
sS'[[Cream]]'
p9
I1
sS'[[Bacon]]'
p10
I5
sS'[[Baked Potato]]'
p11
I5
sS'[[Raspberry Jam]]'
p12
I0
sS"[[Shepherd's Pie]]"
p13
I5
s.