(dp0
S'[[Pumpkin]]'
p1
I59
sS'[[Blackberry Jam]]'
p2
I6
sS'[[Violet Dress]]'
p3
I10
sS'[[Strawberry Ice Cream]]'
p4
I9
sS'[[Raspberry Muffin]]'
p5
I27
sS'[[Apple Pie]]'
p6
I42
sS'[[Tomato Juice]]'
p7
I72
sS'[[Blue Sweater]]'
p8
I63
sS'[[Honey]]'
p9
I65
sS'[[Vanilla Ice Cream]]'
p10
I60
sS'[[Lure]]'
p11
I55
sS'[[Carrot Pie]]'
p12
I1
sS'[[Tomato]]'
p13
I51
sS'[[Potato]]'
p14
I28
sS'[[Cheesecake]]'
p15
I31
sS'[[Fish Pie]]'
p16
I0
sS'[[Pancake]]'
p17
I18
sS'[[Popcorn]]'
p18
I29
sS'[[Goat Cheese]]'
p19
I25
sS'[[Potato Bread]]'
p20
I12
sS'[[Goat Feed]]'
p21
I70
sS'[[Red Berry Cake]]'
p22
I36
sS'[[Pizza]]'
p23
I80
sS'[[Syrup]]'
p24
I74
sS'[[Sheep Feed]]'
p25
I86
sS'[[Cherry Popsicle]]'
p26
I67
sS'[[Bacon and Eggs]]'
p27
I89
sS'[[Carrot]]'
p28
I23
sS'[[Carrot Juice]]'
p29
I56
sS'[[Baked Potato]]'
p30
I13
sS'[[Milk]]'
p31
I50
sS'[[Apple Jam]]'
p32
I54
sS'[[Apple]]'
p33
I30
sS'[[Blackberry]]'
p34
I90
sS'[[Cotton Shirt]]'
p35
I22
sS'[[Cream]]'
p36
I19
sS'[[Raspberry Jam]]'
p37
I83
sS'[[Cherry]]'
p38
I82
sS'[[Bread]]'
p39
I37
sS'[[Wheat]]'
p40
I46
sS'[[Casserole]]'
p41
I24
sS'[[Strawberry]]'
p42
I4
sS'[[Honey Popcorn]]'
p43
I48
sS'[[Honeycomb]]'
p44
I49
sS'[[Indigo]]'
p45
I40
sS'[[Raspberry]]'
p46
I85
sS'[[Chocolate Cake]]'
p47
I73
sS'[[Spicy Pizza]]'
p48
I77
sS'[[Cacao]]'
p49
I8
sS'[[Woolly Chaps]]'
p50
I79
sS'[[Carrot Cake]]'
p51
I14
sS'[[Egg]]'
p52
I45
sS'[[Strawberry Cake]]'
p53
I44
sS'[[Cherry Juice]]'
p54
I41
sS'[[Fish Burger]]'
p55
I15
sS'[[White Sugar]]'
p56
I21
sS'[[Buttered Popcorn]]'
p57
I16
sS'[[Cream Cake]]'
p58
I35
sS'[[Soybean]]'
p59
I66
sS'[[Brown Sugar]]'
p60
I81
sS'[[Blue Woolly Hat]]'
p61
I52
sS'[[Goat Milk]]'
p62
I2
sS'[[Hamburger]]'
p63
I5
sS'[[Cherry Jam]]'
p64
I62
sS"[[Shepherd's Pie]]"
p65
I39
sS'[[Butter]]'
p66
I43
sS'[[Bacon Pie]]'
p67
I3
sS'[[Chili Pepper]]'
p68
I38
sS'[[Corn]]'
p69
I78
sS'[[Fish Fillet]]'
p70
I61
sS'[[Chili Popcorn]]'
p71
I33
sS'[[Bacon]]'
p72
I75
sS'[[Cotton Fabric]]'
p73
I71
sS'[[Pumpkin Pie]]'
p74
I32
sS'[[Potato Feta Cake]]'
p75
I11
sS'[[Sugarcane]]'
p76
I34
sS'[[Cookie]]'
p77
I26
sS'[[Apple Juice]]'
p78
I76
sS'[[Pig Feed]]'
p79
I84
sS'[[Cotton]]'
p80
I64
sS'[[Feta Pie]]'
p81
I87
sS'[[Cheese]]'
p82
I17
sS'[[Chocolate Ice Cream]]'
p83
I69
sS'[[Chicken Feed]]'
p84
I20
sS'[[Corn Bread]]'
p85
I88
sS'[[Wool]]'
p86
I58
sS'[[Roasted Tomatoes]]'
p87
I47
sS'[[Berry Juice]]'
p88
I7
sS'[[Sweater]]'
p89
I68
sS'[[Blackberry Muffin]]'
p90
I53
sS'[[Cow Feed]]'
p91
I57
s.(dp0
S'[[Goat Milk]]'
p1
I0
sS'[[Strawberry Cake]]'
p2
I4
sS'[[Bacon and Eggs]]'
p3
I2
sS'[[Honey Popcorn]]'
p4
I5
sS'[[White Sugar]]'
p5
I3
sS'[[Spicy Pizza]]'
p6
I4
sS'[[Cherry Jam]]'
p7
I1
sS'[[Pancake]]'
p8
I3
sS'[[Chocolate Cake]]'
p9
I0
sS'[[Chicken Feed]]'
p10
I3
sS'[[Blue Woolly Hat]]'
p11
I4
sS'[[Soybean]]'
p12
I3
s.