(dp0
S'[[Goat Milk]]'
p1
I20
sS'[[Cacao]]'
p2
I10
sS'[[Woolly Chaps]]'
p3
I68
sS'[[Carrot Cake]]'
p4
I1
sS'[[Blackberry Jam]]'
p5
I54
sS'[[Strawberry Cake]]'
p6
I89
sS'[[Cherry Juice]]'
p7
I5
sS'[[Fish Burger]]'
p8
I15
sS'[[White Sugar]]'
p9
I24
sS'[[Buttered Popcorn]]'
p10
I36
sS'[[Cream Cake]]'
p11
I71
sS'[[Violet Dress]]'
p12
I66
sS'[[Soybean]]'
p13
I13
sS'[[Apple]]'
p14
I41
sS'[[Strawberry Ice Cream]]'
p15
I42
sS'[[Raspberry Muffin]]'
p16
I27
sS'[[Cherry Jam]]'
p17
I12
sS'[[Hamburger]]'
p18
I9
sS'[[Blue Woolly Hat]]'
p19
I75
sS'[[Apple Pie]]'
p20
I34
sS'[[Egg]]'
p21
I32
sS'[[Tomato Juice]]'
p22
I51
sS'[[Blue Sweater]]'
p23
I4
sS'[[Honey]]'
p24
I58
sS'[[Vanilla Ice Cream]]'
p25
I26
sS'[[Lure]]'
p26
I77
sS'[[Carrot Pie]]'
p27
I70
sS"[[Shepherd's Pie]]"
p28
I80
sS'[[Cheese]]'
p29
I73
sS'[[Tomato]]'
p30
I85
sS'[[Potato]]'
p31
I46
sS'[[Cheesecake]]'
p32
I74
sS'[[Fish Pie]]'
p33
I82
sS'[[Brown Sugar]]'
p34
I60
sS'[[Butter]]'
p35
I25
sS'[[Pancake]]'
p36
I30
sS'[[Bacon Pie]]'
p37
I72
sS'[[Strawberry]]'
p38
I29
sS'[[Corn]]'
p39
I22
sS'[[Popcorn]]'
p40
I21
sS'[[Fish Fillet]]'
p41
I45
sS'[[Chili Popcorn]]'
p42
I37
sS'[[Goat Cheese]]'
p43
I90
sS'[[Sugarcane]]'
p44
I83
sS'[[Cotton Fabric]]'
p45
I52
sS'[[Potato Bread]]'
p46
I8
sS'[[Goat Feed]]'
p47
I87
sS'[[Pumpkin Pie]]'
p48
I50
sS'[[Potato Feta Cake]]'
p49
I28
sS'[[Wool]]'
p50
I76
sS'[[Red Berry Cake]]'
p51
I53
sS'[[Cookie]]'
p52
I48
sS'[[Pizza]]'
p53
I40
sS'[[Syrup]]'
p54
I55
sS'[[Cotton]]'
p55
I88
sS'[[Bacon]]'
p56
I61
sS'[[Pig Feed]]'
p57
I11
sS'[[Sheep Feed]]'
p58
I33
sS'[[Apple Juice]]'
p59
I84
sS'[[Cherry Popsicle]]'
p60
I38
sS'[[Bacon and Eggs]]'
p61
I62
sS'[[Pumpkin]]'
p62
I23
sS'[[Feta Pie]]'
p63
I69
sS'[[Carrot Juice]]'
p64
I0
sS'[[Baked Potato]]'
p65
I86
sS'[[Milk]]'
p66
I65
sS'[[Chocolate Ice Cream]]'
p67
I2
sS'[[Berry Juice]]'
p68
I16
sS'[[Apple Jam]]'
p69
I49
sS'[[Chicken Feed]]'
p70
I17
sS'[[Carrot]]'
p71
I47
sS'[[Blackberry]]'
p72
I44
sS'[[Corn Bread]]'
p73
I6
sS'[[Cotton Shirt]]'
p74
I59
sS'[[Cream]]'
p75
I64
sS'[[Raspberry Jam]]'
p76
I7
sS'[[Cherry]]'
p77
I35
sS'[[Bread]]'
p78
I57
sS'[[Wheat]]'
p79
I14
sS'[[Casserole]]'
p80
I81
sS'[[Chili Pepper]]'
p81
I39
sS'[[Roasted Tomatoes]]'
p82
I79
sS'[[Honey Popcorn]]'
p83
I19
sS'[[Honeycomb]]'
p84
I67
sS'[[Indigo]]'
p85
I31
sS'[[Raspberry]]'
p86
I43
sS'[[Sweater]]'
p87
I18
sS'[[Blackberry Muffin]]'
p88
I63
sS'[[Chocolate Cake]]'
p89
I3
sS'[[Cow Feed]]'
p90
I78
sS'[[Spicy Pizza]]'
p91
I56
s.(dp0
S'[[Wheat]]'
p1
I5
sS'[[Casserole]]'
p2
I2
sS'[[Cherry Popsicle]]'
p3
I5
sS'[[Carrot Pie]]'
p4
I5
sS'[[Strawberry Cake]]'
p5
I5
sS'[[Honey Popcorn]]'
p6
I3
sS'[[Hamburger]]'
p7
I1
sS'[[Carrot]]'
p8
I5
sS'[[Honeycomb]]'
p9
I3
sS'[[Goat Cheese]]'
p10
I0
sS'[[Egg]]'
p11
I0
s.