(dp0
S'[[Pumpkin]]'
p1
I44
sS'[[Blackberry Jam]]'
p2
I32
sS'[[Violet Dress]]'
p3
I16
sS'[[Strawberry Ice Cream]]'
p4
I90
sS'[[Raspberry Muffin]]'
p5
I68
sS'[[Apple Pie]]'
p6
I48
sS'[[Tomato Juice]]'
p7
I67
sS'[[Carrot Cake]]'
p8
I24
sS'[[Vanilla Ice Cream]]'
p9
I3
sS'[[Lure]]'
p10
I8
sS'[[Carrot Pie]]'
p11
I13
sS'[[Tomato]]'
p12
I19
sS'[[Cherry Juice]]'
p13
I33
sS'[[Cheesecake]]'
p14
I59
sS'[[Fish Pie]]'
p15
I9
sS'[[Pancake]]'
p16
I23
sS'[[Popcorn]]'
p17
I64
sS'[[Goat Cheese]]'
p18
I38
sS'[[Potato Bread]]'
p19
I29
sS'[[Goat Feed]]'
p20
I40
sS'[[Red Berry Cake]]'
p21
I31
sS'[[Pizza]]'
p22
I70
sS'[[Syrup]]'
p23
I65
sS'[[Sheep Feed]]'
p24
I6
sS'[[Cherry Popsicle]]'
p25
I46
sS'[[Bacon and Eggs]]'
p26
I52
sS'[[Carrot Juice]]'
p27
I11
sS'[[Baked Potato]]'
p28
I43
sS'[[Milk]]'
p29
I58
sS'[[Apple Jam]]'
p30
I81
sS'[[Carrot]]'
p31
I7
sS'[[Blackberry]]'
p32
I61
sS'[[Cotton Shirt]]'
p33
I84
sS'[[Cream]]'
p34
I21
sS'[[Raspberry Jam]]'
p35
I45
sS'[[Cherry]]'
p36
I14
sS'[[Bread]]'
p37
I77
sS'[[Wheat]]'
p38
I85
sS'[[Casserole]]'
p39
I73
sS'[[Chili Pepper]]'
p40
I55
sS'[[Honey Popcorn]]'
p41
I4
sS'[[Honeycomb]]'
p42
I26
sS'[[Indigo]]'
p43
I74
sS'[[Raspberry]]'
p44
I10
sS'[[Chocolate Cake]]'
p45
I34
sS'[[Spicy Pizza]]'
p46
I75
sS'[[Cacao]]'
p47
I2
sS'[[Woolly Chaps]]'
p48
I54
sS'[[Honey]]'
p49
I79
sS'[[Egg]]'
p50
I62
sS'[[Strawberry Cake]]'
p51
I63
sS'[[Potato]]'
p52
I57
sS'[[Fish Burger]]'
p53
I1
sS'[[White Sugar]]'
p54
I39
sS'[[Buttered Popcorn]]'
p55
I18
sS'[[Cream Cake]]'
p56
I47
sS'[[Soybean]]'
p57
I50
sS'[[Apple]]'
p58
I89
sS'[[Blue Woolly Hat]]'
p59
I82
sS'[[Goat Milk]]'
p60
I5
sS'[[Hamburger]]'
p61
I41
sS'[[Cherry Jam]]'
p62
I78
sS"[[Shepherd's Pie]]"
p63
I72
sS'[[Brown Sugar]]'
p64
I69
sS'[[Butter]]'
p65
I51
sS'[[Bacon Pie]]'
p66
I12
sS'[[Strawberry]]'
p67
I15
sS'[[Pumpkin Pie]]'
p68
I66
sS'[[Corn]]'
p69
I86
sS'[[Fish Fillet]]'
p70
I37
sS'[[Chili Popcorn]]'
p71
I49
sS'[[Sugarcane]]'
p72
I42
sS'[[Cotton Fabric]]'
p73
I60
sS'[[Blue Sweater]]'
p74
I71
sS'[[Potato Feta Cake]]'
p75
I27
sS'[[Cookie]]'
p76
I53
sS'[[Apple Juice]]'
p77
I0
sS'[[Pig Feed]]'
p78
I20
sS'[[Cotton]]'
p79
I56
sS'[[Feta Pie]]'
p80
I88
sS'[[Cheese]]'
p81
I36
sS'[[Chocolate Ice Cream]]'
p82
I83
sS'[[Bacon]]'
p83
I22
sS'[[Chicken Feed]]'
p84
I25
sS'[[Corn Bread]]'
p85
I30
sS'[[Wool]]'
p86
I35
sS'[[Roasted Tomatoes]]'
p87
I17
sS'[[Berry Juice]]'
p88
I76
sS'[[Sweater]]'
p89
I87
sS'[[Blackberry Muffin]]'
p90
I80
sS'[[Cow Feed]]'
p91
I28
s.(dp0
S'[[Potato Feta Cake]]'
p1
I2
sS'[[Strawberry Ice Cream]]'
p2
I2
sS'[[Woolly Chaps]]'
p3
I2
sS'[[Blackberry]]'
p4
I0
sS'[[Honeycomb]]'
p5
I4
sS'[[Apple Pie]]'
p6
I1
sS'[[Hamburger]]'
p7
I1
sS'[[Spicy Pizza]]'
p8
I1
sS'[[Pancake]]'
p9
I4
sS'[[Raspberry]]'
p10
I3
sS'[[Raspberry Jam]]'
p11
I2
sS'[[Cookie]]'
p12
I1
sS'[[Potato Bread]]'
p13
I5
sS'[[Honey Popcorn]]'
p14
I4
sS'[[Chicken Feed]]'
p15
I3
s.