(dp0
S'[[Pumpkin]]'
p1
I68
sS'[[Carrot Pie]]'
p2
I53
sS'[[Violet Dress]]'
p3
I78
sS'[[Strawberry Ice Cream]]'
p4
I33
sS'[[Raspberry Muffin]]'
p5
I58
sS'[[Woolly Chaps]]'
p6
I48
sS'[[Tomato Juice]]'
p7
I14
sS'[[Honey]]'
p8
I63
sS'[[Vanilla Ice Cream]]'
p9
I26
sS'[[Lure]]'
p10
I12
sS'[[Blackberry Jam]]'
p11
I74
sS'[[Tomato]]'
p12
I9
sS'[[Potato]]'
p13
I60
sS'[[Cheesecake]]'
p14
I22
sS'[[Fish Pie]]'
p15
I31
sS'[[Pancake]]'
p16
I43
sS'[[Popcorn]]'
p17
I0
sS'[[Goat Cheese]]'
p18
I88
sS'[[Potato Bread]]'
p19
I86
sS'[[Goat Feed]]'
p20
I5
sS'[[Red Berry Cake]]'
p21
I76
sS'[[Pizza]]'
p22
I45
sS'[[Syrup]]'
p23
I57
sS'[[Sheep Feed]]'
p24
I8
sS'[[Cherry Popsicle]]'
p25
I56
sS'[[Bacon and Eggs]]'
p26
I89
sS'[[Carrot Juice]]'
p27
I81
sS'[[Baked Potato]]'
p28
I77
sS'[[Milk]]'
p29
I90
sS'[[Apple Jam]]'
p30
I24
sS'[[Carrot]]'
p31
I70
sS'[[Blackberry]]'
p32
I44
sS'[[Cotton Shirt]]'
p33
I25
sS'[[Cream]]'
p34
I11
sS'[[Raspberry Jam]]'
p35
I69
sS'[[Cherry]]'
p36
I71
sS'[[Bread]]'
p37
I52
sS'[[Wheat]]'
p38
I65
sS'[[Casserole]]'
p39
I10
sS'[[Strawberry]]'
p40
I62
sS'[[Potato Feta Cake]]'
p41
I51
sS'[[Spicy Pizza]]'
p42
I84
sS'[[Indigo]]'
p43
I42
sS'[[Raspberry]]'
p44
I35
sS'[[Chocolate Cake]]'
p45
I13
sS'[[Apple Pie]]'
p46
I16
sS'[[Cacao]]'
p47
I40
sS'[[Blue Sweater]]'
p48
I75
sS'[[Carrot Cake]]'
p49
I46
sS'[[Egg]]'
p50
I47
sS'[[Strawberry Cake]]'
p51
I27
sS'[[Cherry Juice]]'
p52
I61
sS'[[Fish Burger]]'
p53
I28
sS'[[White Sugar]]'
p54
I87
sS'[[Buttered Popcorn]]'
p55
I20
sS'[[Cream Cake]]'
p56
I66
sS'[[Soybean]]'
p57
I67
sS'[[Brown Sugar]]'
p58
I18
sS'[[Blue Woolly Hat]]'
p59
I2
sS'[[Goat Milk]]'
p60
I21
sS'[[Hamburger]]'
p61
I82
sS'[[Cherry Jam]]'
p62
I7
sS"[[Shepherd's Pie]]"
p63
I64
sS'[[Apple]]'
p64
I38
sS'[[Butter]]'
p65
I19
sS'[[Bacon Pie]]'
p66
I3
sS'[[Chili Pepper]]'
p67
I54
sS'[[Corn]]'
p68
I17
sS'[[Fish Fillet]]'
p69
I23
sS'[[Chili Popcorn]]'
p70
I32
sS'[[Bacon]]'
p71
I50
sS'[[Cotton Fabric]]'
p72
I30
sS'[[Pumpkin Pie]]'
p73
I29
sS'[[Honey Popcorn]]'
p74
I41
sS'[[Sugarcane]]'
p75
I39
sS'[[Cookie]]'
p76
I4
sS'[[Apple Juice]]'
p77
I80
sS'[[Pig Feed]]'
p78
I49
sS'[[Cotton]]'
p79
I59
sS'[[Feta Pie]]'
p80
I1
sS'[[Cheese]]'
p81
I85
sS'[[Chocolate Ice Cream]]'
p82
I55
sS'[[Chicken Feed]]'
p83
I37
sS'[[Corn Bread]]'
p84
I79
sS'[[Honeycomb]]'
p85
I15
sS'[[Wool]]'
p86
I72
sS'[[Roasted Tomatoes]]'
p87
I34
sS'[[Berry Juice]]'
p88
I83
sS'[[Sweater]]'
p89
I73
sS'[[Blackberry Muffin]]'
p90
I36
sS'[[Cow Feed]]'
p91
I6
s.(dp0
S'[[Chicken Feed]]'
p1
I3
sS'[[Woolly Chaps]]'
p2
I2
sS'[[Strawberry Cake]]'
p3
I5
sS'[[Apple Pie]]'
p4
I1
sS'[[Cookie]]'
p5
I1
sS'[[Spicy Pizza]]'
p6
I1
sS'[[Pancake]]'
p7
I4
sS'[[Buttered Popcorn]]'
p8
I4
sS'[[Potato Bread]]'
p9
I5
sS'[[Bacon and Eggs]]'
p10
I3
s.