(dp0
S'[[Pumpkin]]'
p1
I75
sS'[[Blackberry Jam]]'
p2
I33
sS'[[Violet Dress]]'
p3
I34
sS'[[Strawberry Ice Cream]]'
p4
I37
sS'[[Raspberry Muffin]]'
p5
I72
sS'[[Apple Pie]]'
p6
I20
sS'[[Tomato Juice]]'
p7
I21
sS'[[Blue Sweater]]'
p8
I12
sS'[[Honey]]'
p9
I48
sS'[[Vanilla Ice Cream]]'
p10
I7
sS'[[Lure]]'
p11
I30
sS'[[Carrot Pie]]'
p12
I8
sS'[[Tomato]]'
p13
I62
sS'[[Potato]]'
p14
I29
sS'[[Cheesecake]]'
p15
I40
sS'[[Fish Pie]]'
p16
I16
sS'[[Pancake]]'
p17
I67
sS'[[Popcorn]]'
p18
I74
sS'[[Goat Cheese]]'
p19
I90
sS'[[Potato Bread]]'
p20
I58
sS'[[Goat Feed]]'
p21
I84
sS'[[Red Berry Cake]]'
p22
I28
sS'[[Pizza]]'
p23
I57
sS'[[Syrup]]'
p24
I68
sS'[[Sheep Feed]]'
p25
I43
sS'[[Cherry Popsicle]]'
p26
I5
sS'[[Bacon and Eggs]]'
p27
I25
sS'[[Carrot]]'
p28
I79
sS'[[Carrot Juice]]'
p29
I66
sS'[[Baked Potato]]'
p30
I2
sS'[[Milk]]'
p31
I47
sS'[[Apple Jam]]'
p32
I42
sS'[[Apple]]'
p33
I11
sS'[[Blackberry]]'
p34
I44
sS'[[Cotton Shirt]]'
p35
I89
sS'[[Cream]]'
p36
I22
sS'[[Raspberry Jam]]'
p37
I23
sS'[[Cherry]]'
p38
I38
sS'[[Bread]]'
p39
I55
sS'[[Wheat]]'
p40
I73
sS'[[Casserole]]'
p41
I24
sS'[[Strawberry]]'
p42
I19
sS'[[Honey Popcorn]]'
p43
I3
sS'[[Honeycomb]]'
p44
I36
sS'[[Indigo]]'
p45
I80
sS'[[Raspberry]]'
p46
I83
sS'[[Chocolate Cake]]'
p47
I86
sS'[[Spicy Pizza]]'
p48
I77
sS'[[Cacao]]'
p49
I14
sS'[[Woolly Chaps]]'
p50
I31
sS'[[Carrot Cake]]'
p51
I59
sS'[[Egg]]'
p52
I69
sS'[[Strawberry Cake]]'
p53
I70
sS'[[Cherry Juice]]'
p54
I17
sS'[[Fish Burger]]'
p55
I85
sS'[[White Sugar]]'
p56
I26
sS'[[Buttered Popcorn]]'
p57
I63
sS'[[Cream Cake]]'
p58
I0
sS'[[Soybean]]'
p59
I4
sS'[[Brown Sugar]]'
p60
I78
sS'[[Blue Woolly Hat]]'
p61
I52
sS'[[Goat Milk]]'
p62
I76
sS'[[Hamburger]]'
p63
I81
sS'[[Cherry Jam]]'
p64
I65
sS"[[Shepherd's Pie]]"
p65
I64
sS'[[Butter]]'
p66
I27
sS'[[Bacon Pie]]'
p67
I49
sS'[[Chili Pepper]]'
p68
I60
sS'[[Corn]]'
p69
I9
sS'[[Fish Fillet]]'
p70
I54
sS'[[Chili Popcorn]]'
p71
I53
sS'[[Bacon]]'
p72
I32
sS'[[Cotton Fabric]]'
p73
I51
sS'[[Pumpkin Pie]]'
p74
I41
sS'[[Potato Feta Cake]]'
p75
I13
sS'[[Sugarcane]]'
p76
I15
sS'[[Cookie]]'
p77
I88
sS'[[Apple Juice]]'
p78
I46
sS'[[Pig Feed]]'
p79
I39
sS'[[Cotton]]'
p80
I45
sS'[[Feta Pie]]'
p81
I61
sS'[[Cheese]]'
p82
I10
sS'[[Chocolate Ice Cream]]'
p83
I1
sS'[[Chicken Feed]]'
p84
I82
sS'[[Corn Bread]]'
p85
I6
sS'[[Wool]]'
p86
I56
sS'[[Roasted Tomatoes]]'
p87
I71
sS'[[Berry Juice]]'
p88
I50
sS'[[Sweater]]'
p89
I87
sS'[[Blackberry Muffin]]'
p90
I35
sS'[[Cow Feed]]'
p91
I18
s.(dp0
S'[[Cheesecake]]'
p1
I2
sS'[[Cacao]]'
p2
I3
sS'[[Cherry Popsicle]]'
p3
I5
sS'[[Blackberry Jam]]'
p4
I3
sS'[[Strawberry Cake]]'
p5
I3
sS'[[Potato Feta Cake]]'
p6
I0
sS'[[Fish Pie]]'
p7
I4
sS'[[White Sugar]]'
p8
I2
sS'[[Spicy Pizza]]'
p9
I3
sS'[[Bacon]]'
p10
I3
sS'[[Buttered Popcorn]]'
p11
I0
sS'[[Chocolate Cake]]'
p12
I2
s.