(dp0
S'[[Pumpkin]]'
p1
I66
sS'[[Blackberry Jam]]'
p2
I11
sS'[[Violet Dress]]'
p3
I45
sS'[[Strawberry Ice Cream]]'
p4
I53
sS'[[Raspberry Muffin]]'
p5
I23
sS'[[Apple Pie]]'
p6
I36
sS'[[Tomato Juice]]'
p7
I81
sS'[[Carrot Cake]]'
p8
I42
sS'[[Vanilla Ice Cream]]'
p9
I25
sS'[[Lure]]'
p10
I14
sS'[[Carrot Pie]]'
p11
I49
sS'[[Tomato]]'
p12
I78
sS'[[Cherry Juice]]'
p13
I21
sS'[[Cheesecake]]'
p14
I64
sS'[[Fish Pie]]'
p15
I40
sS'[[Pancake]]'
p16
I63
sS'[[Popcorn]]'
p17
I0
sS'[[Goat Cheese]]'
p18
I77
sS'[[Potato Bread]]'
p19
I73
sS'[[Goat Feed]]'
p20
I29
sS'[[Red Berry Cake]]'
p21
I27
sS'[[Pizza]]'
p22
I7
sS'[[Syrup]]'
p23
I3
sS'[[Sheep Feed]]'
p24
I46
sS'[[Cherry Popsicle]]'
p25
I83
sS'[[Bacon and Eggs]]'
p26
I87
sS'[[Carrot Juice]]'
p27
I5
sS'[[Baked Potato]]'
p28
I26
sS'[[Milk]]'
p29
I18
sS'[[Apple Jam]]'
p30
I90
sS'[[Carrot]]'
p31
I33
sS'[[Blackberry]]'
p32
I41
sS'[[Cotton Shirt]]'
p33
I13
sS'[[Cream]]'
p34
I24
sS'[[Raspberry Jam]]'
p35
I28
sS'[[Cherry]]'
p36
I72
sS'[[Bread]]'
p37
I17
sS'[[Wheat]]'
p38
I15
sS'[[Casserole]]'
p39
I39
sS'[[Chili Pepper]]'
p40
I19
sS'[[Honey Popcorn]]'
p41
I37
sS'[[Honeycomb]]'
p42
I75
sS'[[Indigo]]'
p43
I31
sS'[[Raspberry]]'
p44
I65
sS'[[Chocolate Cake]]'
p45
I86
sS'[[Spicy Pizza]]'
p46
I88
sS'[[Cacao]]'
p47
I58
sS'[[Woolly Chaps]]'
p48
I55
sS'[[Honey]]'
p49
I82
sS'[[Egg]]'
p50
I85
sS'[[Strawberry Cake]]'
p51
I70
sS'[[Potato]]'
p52
I2
sS'[[Fish Burger]]'
p53
I54
sS'[[White Sugar]]'
p54
I1
sS'[[Buttered Popcorn]]'
p55
I16
sS'[[Cream Cake]]'
p56
I57
sS'[[Soybean]]'
p57
I76
sS'[[Apple]]'
p58
I48
sS'[[Blue Woolly Hat]]'
p59
I34
sS'[[Goat Milk]]'
p60
I20
sS'[[Hamburger]]'
p61
I79
sS'[[Cherry Jam]]'
p62
I71
sS"[[Shepherd's Pie]]"
p63
I6
sS'[[Brown Sugar]]'
p64
I38
sS'[[Butter]]'
p65
I32
sS'[[Bacon Pie]]'
p66
I68
sS'[[Strawberry]]'
p67
I61
sS'[[Pumpkin Pie]]'
p68
I8
sS'[[Corn]]'
p69
I80
sS'[[Fish Fillet]]'
p70
I47
sS'[[Chili Popcorn]]'
p71
I84
sS'[[Sugarcane]]'
p72
I59
sS'[[Cotton Fabric]]'
p73
I69
sS'[[Blue Sweater]]'
p74
I22
sS'[[Potato Feta Cake]]'
p75
I4
sS'[[Cookie]]'
p76
I52
sS'[[Apple Juice]]'
p77
I60
sS'[[Pig Feed]]'
p78
I67
sS'[[Cotton]]'
p79
I43
sS'[[Feta Pie]]'
p80
I51
sS'[[Cheese]]'
p81
I74
sS'[[Chocolate Ice Cream]]'
p82
I10
sS'[[Bacon]]'
p83
I50
sS'[[Chicken Feed]]'
p84
I12
sS'[[Corn Bread]]'
p85
I30
sS'[[Wool]]'
p86
I56
sS'[[Roasted Tomatoes]]'
p87
I44
sS'[[Berry Juice]]'
p88
I62
sS'[[Sweater]]'
p89
I35
sS'[[Blackberry Muffin]]'
p90
I9
sS'[[Cow Feed]]'
p91
I89
s.(dp0
S'[[Cow Feed]]'
p1
I1
sS'[[Strawberry Ice Cream]]'
p2
I4
sS'[[Roasted Tomatoes]]'
p3
I3
sS'[[Woolly Chaps]]'
p4
I3
sS'[[Carrot Pie]]'
p5
I0
sS'[[Honey Popcorn]]'
p6
I5
sS'[[Blackberry Muffin]]'
p7
I3
sS'[[Sugarcane]]'
p8
I3
sS'[[Lure]]'
p9
I2
sS'[[Cotton Fabric]]'
p10
I2
sS'[[Pizza]]'
p11
I4
sS'[[Goat Feed]]'
p12
I4
s.