(dp0
S'[[Pumpkin]]'
p1
I10
sS'[[Blackberry Jam]]'
p2
I12
sS'[[Violet Dress]]'
p3
I60
sS'[[Strawberry Ice Cream]]'
p4
I0
sS'[[Raspberry Muffin]]'
p5
I33
sS'[[Apple Pie]]'
p6
I21
sS'[[Tomato Juice]]'
p7
I70
sS'[[Blue Sweater]]'
p8
I7
sS'[[Honey]]'
p9
I16
sS'[[Vanilla Ice Cream]]'
p10
I46
sS'[[Lure]]'
p11
I27
sS'[[Carrot Pie]]'
p12
I25
sS'[[Tomato]]'
p13
I85
sS'[[Potato]]'
p14
I30
sS'[[Cheesecake]]'
p15
I67
sS'[[Fish Pie]]'
p16
I63
sS'[[Pancake]]'
p17
I45
sS'[[Popcorn]]'
p18
I26
sS'[[Goat Cheese]]'
p19
I64
sS'[[Potato Bread]]'
p20
I40
sS'[[Goat Feed]]'
p21
I34
sS'[[Red Berry Cake]]'
p22
I47
sS'[[Pizza]]'
p23
I9
sS'[[Syrup]]'
p24
I83
sS'[[Sheep Feed]]'
p25
I3
sS'[[Cherry Popsicle]]'
p26
I76
sS'[[Bacon and Eggs]]'
p27
I13
sS'[[Carrot]]'
p28
I20
sS'[[Carrot Juice]]'
p29
I55
sS'[[Baked Potato]]'
p30
I29
sS'[[Milk]]'
p31
I57
sS'[[Apple Jam]]'
p32
I79
sS'[[Apple]]'
p33
I11
sS'[[Blackberry]]'
p34
I90
sS'[[Cotton Shirt]]'
p35
I28
sS'[[Cream]]'
p36
I50
sS'[[Raspberry Jam]]'
p37
I31
sS'[[Cherry]]'
p38
I1
sS'[[Bread]]'
p39
I52
sS'[[Wheat]]'
p40
I19
sS'[[Casserole]]'
p41
I2
sS'[[Strawberry]]'
p42
I5
sS'[[Honey Popcorn]]'
p43
I59
sS'[[Honeycomb]]'
p44
I80
sS'[[Indigo]]'
p45
I87
sS'[[Raspberry]]'
p46
I32
sS'[[Chocolate Cake]]'
p47
I81
sS'[[Spicy Pizza]]'
p48
I54
sS'[[Cacao]]'
p49
I66
sS'[[Woolly Chaps]]'
p50
I48
sS'[[Carrot Cake]]'
p51
I39
sS'[[Egg]]'
p52
I72
sS'[[Strawberry Cake]]'
p53
I44
sS'[[Cherry Juice]]'
p54
I18
sS'[[Fish Burger]]'
p55
I51
sS'[[White Sugar]]'
p56
I17
sS'[[Buttered Popcorn]]'
p57
I78
sS'[[Cream Cake]]'
p58
I23
sS'[[Soybean]]'
p59
I68
sS'[[Brown Sugar]]'
p60
I56
sS'[[Blue Woolly Hat]]'
p61
I58
sS'[[Goat Milk]]'
p62
I38
sS'[[Hamburger]]'
p63
I53
sS'[[Cherry Jam]]'
p64
I73
sS"[[Shepherd's Pie]]"
p65
I36
sS'[[Butter]]'
p66
I15
sS'[[Bacon Pie]]'
p67
I74
sS'[[Chili Pepper]]'
p68
I69
sS'[[Corn]]'
p69
I75
sS'[[Fish Fillet]]'
p70
I42
sS'[[Chili Popcorn]]'
p71
I77
sS'[[Bacon]]'
p72
I14
sS'[[Cotton Fabric]]'
p73
I84
sS'[[Pumpkin Pie]]'
p74
I22
sS'[[Potato Feta Cake]]'
p75
I82
sS'[[Sugarcane]]'
p76
I61
sS'[[Cookie]]'
p77
I8
sS'[[Apple Juice]]'
p78
I35
sS'[[Pig Feed]]'
p79
I43
sS'[[Cotton]]'
p80
I62
sS'[[Feta Pie]]'
p81
I37
sS'[[Cheese]]'
p82
I41
sS'[[Chocolate Ice Cream]]'
p83
I65
sS'[[Chicken Feed]]'
p84
I4
sS'[[Corn Bread]]'
p85
I24
sS'[[Wool]]'
p86
I49
sS'[[Roasted Tomatoes]]'
p87
I6
sS'[[Berry Juice]]'
p88
I71
sS'[[Sweater]]'
p89
I86
sS'[[Blackberry Muffin]]'
p90
I89
sS'[[Cow Feed]]'
p91
I88
s.(dp0
S'[[Casserole]]'
p1
I3
sS'[[Cherry Popsicle]]'
p2
I4
sS'[[Honey]]'
p3
I0
sS'[[Cookie]]'
p4
I5
sS'[[Chili Popcorn]]'
p5
I3
sS'[[Baked Potato]]'
p6
I1
sS'[[Butter]]'
p7
I5
sS'[[Carrot Cake]]'
p8
I2
sS'[[Bacon]]'
p9
I1
sS'[[Cheese]]'
p10
I2
sS'[[Lure]]'
p11
I4
sS'[[Cherry Jam]]'
p12
I0
sS'[[Cream Cake]]'
p13
I5
s.