(dp0
S'[[Pumpkin]]'
p1
I70
sS'[[Blackberry Jam]]'
p2
I37
sS'[[Violet Dress]]'
p3
I32
sS'[[Strawberry Ice Cream]]'
p4
I79
sS'[[Raspberry Muffin]]'
p5
I25
sS'[[Apple Pie]]'
p6
I34
sS'[[Tomato Juice]]'
p7
I35
sS'[[Carrot Cake]]'
p8
I73
sS'[[Vanilla Ice Cream]]'
p9
I30
sS'[[Lure]]'
p10
I24
sS'[[Carrot Pie]]'
p11
I65
sS'[[Tomato]]'
p12
I46
sS'[[Cherry Juice]]'
p13
I6
sS'[[Cheesecake]]'
p14
I76
sS'[[Fish Pie]]'
p15
I50
sS'[[Pancake]]'
p16
I20
sS'[[Popcorn]]'
p17
I17
sS'[[Goat Cheese]]'
p18
I49
sS'[[Potato Bread]]'
p19
I18
sS'[[Goat Feed]]'
p20
I57
sS'[[Red Berry Cake]]'
p21
I53
sS'[[Pizza]]'
p22
I29
sS'[[Syrup]]'
p23
I41
sS'[[Sheep Feed]]'
p24
I74
sS'[[Cherry Popsicle]]'
p25
I90
sS'[[Bacon and Eggs]]'
p26
I4
sS'[[Carrot Juice]]'
p27
I51
sS'[[Baked Potato]]'
p28
I19
sS'[[Milk]]'
p29
I27
sS'[[Apple Jam]]'
p30
I54
sS'[[Carrot]]'
p31
I84
sS'[[Blackberry]]'
p32
I39
sS'[[Cotton Shirt]]'
p33
I80
sS'[[Cream]]'
p34
I11
sS'[[Raspberry Jam]]'
p35
I66
sS'[[Cherry]]'
p36
I88
sS'[[Bread]]'
p37
I2
sS'[[Wheat]]'
p38
I85
sS'[[Casserole]]'
p39
I12
sS'[[Chili Pepper]]'
p40
I48
sS'[[Honey Popcorn]]'
p41
I9
sS'[[Honeycomb]]'
p42
I43
sS'[[Indigo]]'
p43
I45
sS'[[Raspberry]]'
p44
I72
sS'[[Chocolate Cake]]'
p45
I89
sS'[[Spicy Pizza]]'
p46
I78
sS'[[Cacao]]'
p47
I42
sS'[[Woolly Chaps]]'
p48
I0
sS'[[Honey]]'
p49
I87
sS'[[Egg]]'
p50
I83
sS'[[Strawberry Cake]]'
p51
I82
sS'[[Potato]]'
p52
I5
sS'[[Fish Burger]]'
p53
I16
sS'[[White Sugar]]'
p54
I81
sS'[[Buttered Popcorn]]'
p55
I75
sS'[[Cream Cake]]'
p56
I63
sS'[[Soybean]]'
p57
I56
sS'[[Apple]]'
p58
I62
sS'[[Blue Woolly Hat]]'
p59
I10
sS'[[Goat Milk]]'
p60
I14
sS'[[Hamburger]]'
p61
I47
sS'[[Cherry Jam]]'
p62
I1
sS"[[Shepherd's Pie]]"
p63
I64
sS'[[Brown Sugar]]'
p64
I55
sS'[[Butter]]'
p65
I38
sS'[[Bacon Pie]]'
p66
I15
sS'[[Strawberry]]'
p67
I71
sS'[[Pumpkin Pie]]'
p68
I28
sS'[[Corn]]'
p69
I59
sS'[[Fish Fillet]]'
p70
I36
sS'[[Chili Popcorn]]'
p71
I22
sS'[[Sugarcane]]'
p72
I69
sS'[[Cotton Fabric]]'
p73
I60
sS'[[Blue Sweater]]'
p74
I86
sS'[[Potato Feta Cake]]'
p75
I33
sS'[[Cookie]]'
p76
I44
sS'[[Apple Juice]]'
p77
I61
sS'[[Pig Feed]]'
p78
I21
sS'[[Cotton]]'
p79
I7
sS'[[Feta Pie]]'
p80
I67
sS'[[Cheese]]'
p81
I3
sS'[[Chocolate Ice Cream]]'
p82
I58
sS'[[Bacon]]'
p83
I68
sS'[[Chicken Feed]]'
p84
I77
sS'[[Corn Bread]]'
p85
I8
sS'[[Wool]]'
p86
I31
sS'[[Roasted Tomatoes]]'
p87
I26
sS'[[Berry Juice]]'
p88
I52
sS'[[Sweater]]'
p89
I40
sS'[[Blackberry Muffin]]'
p90
I13
sS'[[Cow Feed]]'
p91
I23
s.(dp0
S'[[Brown Sugar]]'
p1
I3
sS'[[Goat Milk]]'
p2
I1
sS'[[Cheesecake]]'
p3
I3
sS'[[Cherry Popsicle]]'
p4
I5
sS'[[Blue Woolly Hat]]'
p5
I5
sS'[[Apple Pie]]'
p6
I0
sS'[[Hamburger]]'
p7
I4
sS'[[Chili Popcorn]]'
p8
I4
sS'[[Butter]]'
p9
I2
sS'[[Fish Burger]]'
p10
I3
sS'[[Cream]]'
p11
I4
sS'[[Bacon]]'
p12
I3
sS'[[Milk]]'
p13
I5
s.