(dp0
S'[[Pumpkin]]'
p1
I88
sS'[[Blackberry Jam]]'
p2
I6
sS'[[Violet Dress]]'
p3
I87
sS'[[Strawberry Ice Cream]]'
p4
I30
sS'[[Raspberry Muffin]]'
p5
I31
sS'[[Apple Pie]]'
p6
I36
sS'[[Tomato Juice]]'
p7
I84
sS'[[Blue Sweater]]'
p8
I18
sS'[[Honey]]'
p9
I90
sS'[[Vanilla Ice Cream]]'
p10
I27
sS'[[Lure]]'
p11
I82
sS'[[Carrot Pie]]'
p12
I23
sS'[[Tomato]]'
p13
I81
sS'[[Potato]]'
p14
I10
sS'[[Cheesecake]]'
p15
I20
sS'[[Fish Pie]]'
p16
I56
sS'[[Pancake]]'
p17
I72
sS'[[Popcorn]]'
p18
I59
sS'[[Goat Cheese]]'
p19
I68
sS'[[Potato Bread]]'
p20
I33
sS'[[Goat Feed]]'
p21
I89
sS'[[Red Berry Cake]]'
p22
I9
sS'[[Pizza]]'
p23
I48
sS'[[Syrup]]'
p24
I80
sS'[[Sheep Feed]]'
p25
I69
sS'[[Cherry Popsicle]]'
p26
I25
sS'[[Bacon and Eggs]]'
p27
I74
sS'[[Carrot]]'
p28
I28
sS'[[Carrot Juice]]'
p29
I67
sS'[[Baked Potato]]'
p30
I64
sS'[[Milk]]'
p31
I55
sS'[[Apple Jam]]'
p32
I41
sS'[[Apple]]'
p33
I19
sS'[[Blackberry]]'
p34
I29
sS'[[Cotton Shirt]]'
p35
I7
sS'[[Cream]]'
p36
I13
sS'[[Raspberry Jam]]'
p37
I44
sS'[[Cherry]]'
p38
I54
sS'[[Bread]]'
p39
I53
sS'[[Wheat]]'
p40
I75
sS'[[Casserole]]'
p41
I34
sS'[[Strawberry]]'
p42
I76
sS'[[Honey Popcorn]]'
p43
I46
sS'[[Honeycomb]]'
p44
I37
sS'[[Indigo]]'
p45
I2
sS'[[Raspberry]]'
p46
I43
sS'[[Chocolate Cake]]'
p47
I17
sS'[[Spicy Pizza]]'
p48
I32
sS'[[Cacao]]'
p49
I22
sS'[[Woolly Chaps]]'
p50
I70
sS'[[Carrot Cake]]'
p51
I66
sS'[[Egg]]'
p52
I86
sS'[[Strawberry Cake]]'
p53
I49
sS'[[Cherry Juice]]'
p54
I57
sS'[[Fish Burger]]'
p55
I14
sS'[[White Sugar]]'
p56
I4
sS'[[Buttered Popcorn]]'
p57
I26
sS'[[Cream Cake]]'
p58
I40
sS'[[Soybean]]'
p59
I77
sS'[[Brown Sugar]]'
p60
I85
sS'[[Blue Woolly Hat]]'
p61
I58
sS'[[Goat Milk]]'
p62
I71
sS'[[Hamburger]]'
p63
I1
sS'[[Cherry Jam]]'
p64
I24
sS"[[Shepherd's Pie]]"
p65
I51
sS'[[Butter]]'
p66
I12
sS'[[Bacon Pie]]'
p67
I79
sS'[[Chili Pepper]]'
p68
I50
sS'[[Corn]]'
p69
I42
sS'[[Fish Fillet]]'
p70
I3
sS'[[Chili Popcorn]]'
p71
I63
sS'[[Bacon]]'
p72
I39
sS'[[Cotton Fabric]]'
p73
I15
sS'[[Pumpkin Pie]]'
p74
I60
sS'[[Potato Feta Cake]]'
p75
I83
sS'[[Sugarcane]]'
p76
I5
sS'[[Cookie]]'
p77
I16
sS'[[Apple Juice]]'
p78
I38
sS'[[Pig Feed]]'
p79
I52
sS'[[Cotton]]'
p80
I73
sS'[[Feta Pie]]'
p81
I62
sS'[[Cheese]]'
p82
I8
sS'[[Chocolate Ice Cream]]'
p83
I11
sS'[[Chicken Feed]]'
p84
I61
sS'[[Corn Bread]]'
p85
I45
sS'[[Wool]]'
p86
I65
sS'[[Roasted Tomatoes]]'
p87
I35
sS'[[Berry Juice]]'
p88
I21
sS'[[Sweater]]'
p89
I0
sS'[[Blackberry Muffin]]'
p90
I47
sS'[[Cow Feed]]'
p91
I78
s.(dp0
S'[[Tomato]]'
p1
I3
sS'[[Sheep Feed]]'
p2
I1
sS'[[Casserole]]'
p3
I3
sS'[[Popcorn]]'
p4
I5
sS'[[Buttered Popcorn]]'
p5
I2
sS'[[Carrot Pie]]'
p6
I4
sS'[[Potato Feta Cake]]'
p7
I4
sS'[[White Sugar]]'
p8
I4
sS'[[Spicy Pizza]]'
p9
I5
sS'[[Sweater]]'
p10
I4
sS'[[Syrup]]'
p11
I4
sS'[[Violet Dress]]'
p12
I3
s.