(dp0
S'[[Pumpkin]]'
p1
I72
sS'[[Blackberry Jam]]'
p2
I67
sS'[[Violet Dress]]'
p3
I69
sS'[[Strawberry Ice Cream]]'
p4
I12
sS'[[Raspberry Muffin]]'
p5
I70
sS'[[Apple Pie]]'
p6
I54
sS'[[Tomato Juice]]'
p7
I78
sS'[[Blue Sweater]]'
p8
I60
sS'[[Honey]]'
p9
I31
sS'[[Vanilla Ice Cream]]'
p10
I32
sS'[[Lure]]'
p11
I11
sS'[[Carrot Pie]]'
p12
I17
sS'[[Tomato]]'
p13
I56
sS'[[Potato]]'
p14
I15
sS'[[Cheesecake]]'
p15
I63
sS'[[Fish Pie]]'
p16
I83
sS'[[Pancake]]'
p17
I62
sS'[[Popcorn]]'
p18
I25
sS'[[Goat Cheese]]'
p19
I1
sS'[[Potato Bread]]'
p20
I7
sS'[[Goat Feed]]'
p21
I30
sS'[[Red Berry Cake]]'
p22
I35
sS'[[Pizza]]'
p23
I20
sS'[[Syrup]]'
p24
I40
sS'[[Sheep Feed]]'
p25
I19
sS'[[Cherry Popsicle]]'
p26
I49
sS'[[Bacon and Eggs]]'
p27
I82
sS'[[Carrot]]'
p28
I74
sS'[[Carrot Juice]]'
p29
I47
sS'[[Baked Potato]]'
p30
I21
sS'[[Milk]]'
p31
I52
sS'[[Apple Jam]]'
p32
I73
sS'[[Apple]]'
p33
I3
sS'[[Blackberry]]'
p34
I4
sS'[[Cotton Shirt]]'
p35
I37
sS'[[Cream]]'
p36
I28
sS'[[Raspberry Jam]]'
p37
I81
sS'[[Cherry]]'
p38
I76
sS'[[Bread]]'
p39
I29
sS'[[Wheat]]'
p40
I24
sS'[[Casserole]]'
p41
I36
sS'[[Strawberry]]'
p42
I64
sS'[[Honey Popcorn]]'
p43
I50
sS'[[Honeycomb]]'
p44
I66
sS'[[Indigo]]'
p45
I58
sS'[[Raspberry]]'
p46
I68
sS'[[Chocolate Cake]]'
p47
I59
sS'[[Spicy Pizza]]'
p48
I0
sS'[[Cacao]]'
p49
I84
sS'[[Woolly Chaps]]'
p50
I75
sS'[[Carrot Cake]]'
p51
I48
sS'[[Egg]]'
p52
I85
sS'[[Strawberry Cake]]'
p53
I41
sS'[[Cherry Juice]]'
p54
I8
sS'[[Fish Burger]]'
p55
I53
sS'[[White Sugar]]'
p56
I80
sS'[[Buttered Popcorn]]'
p57
I51
sS'[[Cream Cake]]'
p58
I16
sS'[[Soybean]]'
p59
I13
sS'[[Brown Sugar]]'
p60
I9
sS'[[Blue Woolly Hat]]'
p61
I33
sS'[[Goat Milk]]'
p62
I87
sS'[[Hamburger]]'
p63
I39
sS'[[Cherry Jam]]'
p64
I5
sS"[[Shepherd's Pie]]"
p65
I26
sS'[[Butter]]'
p66
I42
sS'[[Bacon Pie]]'
p67
I44
sS'[[Chili Pepper]]'
p68
I38
sS'[[Corn]]'
p69
I65
sS'[[Fish Fillet]]'
p70
I18
sS'[[Chili Popcorn]]'
p71
I86
sS'[[Bacon]]'
p72
I77
sS'[[Cotton Fabric]]'
p73
I45
sS'[[Pumpkin Pie]]'
p74
I89
sS'[[Potato Feta Cake]]'
p75
I2
sS'[[Sugarcane]]'
p76
I88
sS'[[Cookie]]'
p77
I55
sS'[[Apple Juice]]'
p78
I27
sS'[[Pig Feed]]'
p79
I79
sS'[[Cotton]]'
p80
I23
sS'[[Feta Pie]]'
p81
I61
sS'[[Cheese]]'
p82
I71
sS'[[Chocolate Ice Cream]]'
p83
I57
sS'[[Chicken Feed]]'
p84
I90
sS'[[Corn Bread]]'
p85
I43
sS'[[Wool]]'
p86
I10
sS'[[Roasted Tomatoes]]'
p87
I46
sS'[[Berry Juice]]'
p88
I34
sS'[[Sweater]]'
p89
I22
sS'[[Blackberry Muffin]]'
p90
I14
sS'[[Cow Feed]]'
p91
I6
s.(dp0
S'[[Blue Sweater]]'
p1
I2
sS'[[Casserole]]'
p2
I5
sS'[[Cherry Popsicle]]'
p3
I1
sS'[[Carrot Cake]]'
p4
I3
sS'[[Blue Woolly Hat]]'
p5
I4
sS'[[Cotton]]'
p6
I3
sS'[[Fish Pie]]'
p7
I2
sS'[[Spicy Pizza]]'
p8
I1
sS'[[Indigo]]'
p9
I3
sS'[[Milk]]'
p10
I3
sS'[[Buttered Popcorn]]'
p11
I2
sS'[[Bacon Pie]]'
p12
I2
sS'[[Violet Dress]]'
p13
I5
s.