(dp0
S'[[Goat Milk]]'
p1
I58
sS'[[Cacao]]'
p2
I25
sS'[[Woolly Chaps]]'
p3
I54
sS'[[Carrot Cake]]'
p4
I66
sS'[[Blackberry Jam]]'
p5
I73
sS'[[Strawberry Cake]]'
p6
I40
sS'[[Cherry Juice]]'
p7
I88
sS'[[Fish Burger]]'
p8
I85
sS'[[White Sugar]]'
p9
I46
sS'[[Buttered Popcorn]]'
p10
I43
sS'[[Cream Cake]]'
p11
I89
sS'[[Violet Dress]]'
p12
I38
sS'[[Soybean]]'
p13
I37
sS'[[Apple]]'
p14
I84
sS'[[Strawberry Ice Cream]]'
p15
I67
sS'[[Raspberry Muffin]]'
p16
I78
sS'[[Cherry Jam]]'
p17
I24
sS'[[Hamburger]]'
p18
I76
sS'[[Blue Woolly Hat]]'
p19
I27
sS'[[Apple Pie]]'
p20
I0
sS'[[Egg]]'
p21
I17
sS'[[Tomato Juice]]'
p22
I2
sS'[[Blue Sweater]]'
p23
I77
sS'[[Honey]]'
p24
I35
sS'[[Vanilla Ice Cream]]'
p25
I79
sS'[[Lure]]'
p26
I7
sS'[[Carrot Pie]]'
p27
I30
sS"[[Shepherd's Pie]]"
p28
I23
sS'[[Cheese]]'
p29
I83
sS'[[Tomato]]'
p30
I82
sS'[[Potato]]'
p31
I72
sS'[[Cheesecake]]'
p32
I59
sS'[[Fish Pie]]'
p33
I6
sS'[[Brown Sugar]]'
p34
I61
sS'[[Butter]]'
p35
I22
sS'[[Pancake]]'
p36
I63
sS'[[Bacon Pie]]'
p37
I87
sS'[[Strawberry]]'
p38
I33
sS'[[Corn]]'
p39
I18
sS'[[Popcorn]]'
p40
I52
sS'[[Fish Fillet]]'
p41
I32
sS'[[Chili Popcorn]]'
p42
I71
sS'[[Goat Cheese]]'
p43
I39
sS'[[Sugarcane]]'
p44
I86
sS'[[Cotton Fabric]]'
p45
I1
sS'[[Potato Bread]]'
p46
I16
sS'[[Goat Feed]]'
p47
I53
sS'[[Pumpkin Pie]]'
p48
I60
sS'[[Potato Feta Cake]]'
p49
I28
sS'[[Wool]]'
p50
I49
sS'[[Red Berry Cake]]'
p51
I81
sS'[[Cookie]]'
p52
I90
sS'[[Pizza]]'
p53
I69
sS'[[Syrup]]'
p54
I21
sS'[[Cotton]]'
p55
I3
sS'[[Bacon]]'
p56
I20
sS'[[Pig Feed]]'
p57
I45
sS'[[Sheep Feed]]'
p58
I48
sS'[[Apple Juice]]'
p59
I36
sS'[[Cherry Popsicle]]'
p60
I80
sS'[[Bacon and Eggs]]'
p61
I26
sS'[[Pumpkin]]'
p62
I34
sS'[[Feta Pie]]'
p63
I29
sS'[[Carrot Juice]]'
p64
I31
sS'[[Baked Potato]]'
p65
I11
sS'[[Milk]]'
p66
I55
sS'[[Chocolate Ice Cream]]'
p67
I44
sS'[[Berry Juice]]'
p68
I5
sS'[[Apple Jam]]'
p69
I12
sS'[[Chicken Feed]]'
p70
I47
sS'[[Carrot]]'
p71
I75
sS'[[Blackberry]]'
p72
I15
sS'[[Corn Bread]]'
p73
I8
sS'[[Cotton Shirt]]'
p74
I41
sS'[[Cream]]'
p75
I42
sS'[[Raspberry Jam]]'
p76
I50
sS'[[Cherry]]'
p77
I70
sS'[[Bread]]'
p78
I68
sS'[[Wheat]]'
p79
I74
sS'[[Casserole]]'
p80
I10
sS'[[Chili Pepper]]'
p81
I4
sS'[[Roasted Tomatoes]]'
p82
I64
sS'[[Honey Popcorn]]'
p83
I65
sS'[[Honeycomb]]'
p84
I9
sS'[[Indigo]]'
p85
I56
sS'[[Raspberry]]'
p86
I51
sS'[[Sweater]]'
p87
I62
sS'[[Blackberry Muffin]]'
p88
I19
sS'[[Chocolate Cake]]'
p89
I13
sS'[[Cow Feed]]'
p90
I57
sS'[[Spicy Pizza]]'
p91
I14
s.(dp0
S'[[Carrot]]'
p1
I2
sS'[[Carrot Cake]]'
p2
I4
sS'[[Fish Pie]]'
p3
I5
sS'[[Bacon and Eggs]]'
p4
I3
sS'[[Cherry Popsicle]]'
p5
I2
sS'[[Hamburger]]'
p6
I3
sS'[[White Sugar]]'
p7
I3
sS'[[Honeycomb]]'
p8
I3
sS'[[Woolly Chaps]]'
p9
I1
sS'[[Cream Cake]]'
p10
I3
sS'[[Cow Feed]]'
p11
I1
sS'[[Spicy Pizza]]'
p12
I4
s.