(dp0
S'[[Pumpkin]]'
p1
I13
sS'[[Blackberry Jam]]'
p2
I81
sS'[[Violet Dress]]'
p3
I75
sS'[[Strawberry Ice Cream]]'
p4
I60
sS'[[Raspberry Muffin]]'
p5
I17
sS'[[Apple Pie]]'
p6
I59
sS'[[Tomato Juice]]'
p7
I77
sS'[[Blue Sweater]]'
p8
I16
sS'[[Honey]]'
p9
I56
sS'[[Vanilla Ice Cream]]'
p10
I78
sS'[[Lure]]'
p11
I9
sS'[[Carrot Pie]]'
p12
I40
sS'[[Tomato]]'
p13
I31
sS'[[Potato]]'
p14
I53
sS'[[Cheesecake]]'
p15
I43
sS'[[Fish Pie]]'
p16
I10
sS'[[Pancake]]'
p17
I2
sS'[[Popcorn]]'
p18
I3
sS'[[Goat Cheese]]'
p19
I6
sS'[[Potato Bread]]'
p20
I0
sS'[[Goat Feed]]'
p21
I86
sS'[[Red Berry Cake]]'
p22
I29
sS'[[Pizza]]'
p23
I48
sS'[[Syrup]]'
p24
I73
sS'[[Sheep Feed]]'
p25
I69
sS'[[Cherry Popsicle]]'
p26
I18
sS'[[Bacon and Eggs]]'
p27
I21
sS'[[Carrot]]'
p28
I64
sS'[[Carrot Juice]]'
p29
I55
sS'[[Baked Potato]]'
p30
I65
sS'[[Milk]]'
p31
I63
sS'[[Apple Jam]]'
p32
I61
sS'[[Apple]]'
p33
I67
sS'[[Blackberry]]'
p34
I49
sS'[[Cotton Shirt]]'
p35
I71
sS'[[Cream]]'
p36
I88
sS'[[Raspberry Jam]]'
p37
I68
sS'[[Cherry]]'
p38
I82
sS'[[Bread]]'
p39
I7
sS'[[Wheat]]'
p40
I41
sS'[[Casserole]]'
p41
I46
sS'[[Strawberry]]'
p42
I11
sS'[[Honey Popcorn]]'
p43
I37
sS'[[Honeycomb]]'
p44
I47
sS'[[Indigo]]'
p45
I87
sS'[[Raspberry]]'
p46
I28
sS'[[Chocolate Cake]]'
p47
I36
sS'[[Spicy Pizza]]'
p48
I38
sS'[[Cacao]]'
p49
I44
sS'[[Woolly Chaps]]'
p50
I72
sS'[[Carrot Cake]]'
p51
I66
sS'[[Egg]]'
p52
I23
sS'[[Strawberry Cake]]'
p53
I33
sS'[[Cherry Juice]]'
p54
I24
sS'[[Fish Burger]]'
p55
I30
sS'[[White Sugar]]'
p56
I27
sS'[[Buttered Popcorn]]'
p57
I84
sS'[[Cream Cake]]'
p58
I85
sS'[[Soybean]]'
p59
I8
sS'[[Brown Sugar]]'
p60
I45
sS'[[Blue Woolly Hat]]'
p61
I42
sS'[[Goat Milk]]'
p62
I25
sS'[[Hamburger]]'
p63
I57
sS'[[Cherry Jam]]'
p64
I89
sS"[[Shepherd's Pie]]"
p65
I14
sS'[[Butter]]'
p66
I58
sS'[[Bacon Pie]]'
p67
I1
sS'[[Chili Pepper]]'
p68
I4
sS'[[Corn]]'
p69
I62
sS'[[Fish Fillet]]'
p70
I52
sS'[[Chili Popcorn]]'
p71
I74
sS'[[Bacon]]'
p72
I12
sS'[[Cotton Fabric]]'
p73
I90
sS'[[Pumpkin Pie]]'
p74
I34
sS'[[Potato Feta Cake]]'
p75
I19
sS'[[Sugarcane]]'
p76
I80
sS'[[Cookie]]'
p77
I76
sS'[[Apple Juice]]'
p78
I39
sS'[[Pig Feed]]'
p79
I51
sS'[[Cotton]]'
p80
I32
sS'[[Feta Pie]]'
p81
I79
sS'[[Cheese]]'
p82
I5
sS'[[Chocolate Ice Cream]]'
p83
I26
sS'[[Chicken Feed]]'
p84
I20
sS'[[Corn Bread]]'
p85
I15
sS'[[Wool]]'
p86
I35
sS'[[Roasted Tomatoes]]'
p87
I22
sS'[[Berry Juice]]'
p88
I70
sS'[[Sweater]]'
p89
I50
sS'[[Blackberry Muffin]]'
p90
I54
sS'[[Cow Feed]]'
p91
I83
s.(dp0
S'[[Casserole]]'
p1
I0
sS'[[Potato Feta Cake]]'
p2
I5
sS'[[Cherry Popsicle]]'
p3
I2
sS'[[Honey]]'
p4
I2
sS'[[Strawberry Cake]]'
p5
I3
sS'[[Honey Popcorn]]'
p6
I5
sS'[[Fish Pie]]'
p7
I3
sS'[[Fish Burger]]'
p8
I4
sS'[[Cheese]]'
p9
I5
sS'[[Pizza]]'
p10
I5
sS'[[Soybean]]'
p11
I0
s.