(dp0
S'[[Pumpkin]]'
p1
I53
sS'[[Blackberry Jam]]'
p2
I0
sS'[[Violet Dress]]'
p3
I36
sS'[[Strawberry Ice Cream]]'
p4
I87
sS'[[Raspberry Muffin]]'
p5
I42
sS'[[Apple Pie]]'
p6
I27
sS'[[Tomato Juice]]'
p7
I22
sS'[[Blue Sweater]]'
p8
I14
sS'[[Honey]]'
p9
I48
sS'[[Vanilla Ice Cream]]'
p10
I7
sS'[[Lure]]'
p11
I71
sS'[[Carrot Pie]]'
p12
I67
sS'[[Tomato]]'
p13
I19
sS'[[Potato]]'
p14
I41
sS'[[Cheesecake]]'
p15
I38
sS'[[Fish Pie]]'
p16
I40
sS'[[Pancake]]'
p17
I29
sS'[[Popcorn]]'
p18
I21
sS'[[Goat Cheese]]'
p19
I24
sS'[[Potato Bread]]'
p20
I31
sS'[[Goat Feed]]'
p21
I3
sS'[[Red Berry Cake]]'
p22
I82
sS'[[Pizza]]'
p23
I44
sS'[[Syrup]]'
p24
I74
sS'[[Sheep Feed]]'
p25
I43
sS'[[Cherry Popsicle]]'
p26
I90
sS'[[Bacon and Eggs]]'
p27
I81
sS'[[Carrot]]'
p28
I47
sS'[[Carrot Juice]]'
p29
I59
sS'[[Baked Potato]]'
p30
I9
sS'[[Milk]]'
p31
I1
sS'[[Apple Jam]]'
p32
I52
sS'[[Apple]]'
p33
I55
sS'[[Blackberry]]'
p34
I25
sS'[[Cotton Shirt]]'
p35
I50
sS'[[Cream]]'
p36
I84
sS'[[Raspberry Jam]]'
p37
I76
sS'[[Cherry]]'
p38
I86
sS'[[Bread]]'
p39
I35
sS'[[Wheat]]'
p40
I15
sS'[[Casserole]]'
p41
I13
sS'[[Strawberry]]'
p42
I69
sS'[[Honey Popcorn]]'
p43
I23
sS'[[Honeycomb]]'
p44
I80
sS'[[Indigo]]'
p45
I83
sS'[[Raspberry]]'
p46
I30
sS'[[Chocolate Cake]]'
p47
I26
sS'[[Spicy Pizza]]'
p48
I64
sS'[[Cacao]]'
p49
I79
sS'[[Woolly Chaps]]'
p50
I18
sS'[[Carrot Cake]]'
p51
I57
sS'[[Egg]]'
p52
I32
sS'[[Strawberry Cake]]'
p53
I34
sS'[[Cherry Juice]]'
p54
I2
sS'[[Fish Burger]]'
p55
I85
sS'[[White Sugar]]'
p56
I73
sS'[[Buttered Popcorn]]'
p57
I16
sS'[[Cream Cake]]'
p58
I89
sS'[[Soybean]]'
p59
I68
sS'[[Brown Sugar]]'
p60
I4
sS'[[Blue Woolly Hat]]'
p61
I12
sS'[[Goat Milk]]'
p62
I66
sS'[[Hamburger]]'
p63
I78
sS'[[Cherry Jam]]'
p64
I63
sS"[[Shepherd's Pie]]"
p65
I11
sS'[[Butter]]'
p66
I8
sS'[[Bacon Pie]]'
p67
I77
sS'[[Chili Pepper]]'
p68
I33
sS'[[Corn]]'
p69
I61
sS'[[Fish Fillet]]'
p70
I5
sS'[[Chili Popcorn]]'
p71
I37
sS'[[Bacon]]'
p72
I28
sS'[[Cotton Fabric]]'
p73
I6
sS'[[Pumpkin Pie]]'
p74
I58
sS'[[Potato Feta Cake]]'
p75
I60
sS'[[Sugarcane]]'
p76
I54
sS'[[Cookie]]'
p77
I10
sS'[[Apple Juice]]'
p78
I49
sS'[[Pig Feed]]'
p79
I62
sS'[[Cotton]]'
p80
I56
sS'[[Feta Pie]]'
p81
I20
sS'[[Cheese]]'
p82
I75
sS'[[Chocolate Ice Cream]]'
p83
I72
sS'[[Chicken Feed]]'
p84
I51
sS'[[Corn Bread]]'
p85
I70
sS'[[Wool]]'
p86
I17
sS'[[Roasted Tomatoes]]'
p87
I45
sS'[[Berry Juice]]'
p88
I65
sS'[[Sweater]]'
p89
I39
sS'[[Blackberry Muffin]]'
p90
I46
sS'[[Cow Feed]]'
p91
I88
s.(dp0
S'[[Brown Sugar]]'
p1
I1
sS'[[Chocolate Ice Cream]]'
p2
I4
sS'[[Roasted Tomatoes]]'
p3
I1
sS'[[Blue Sweater]]'
p4
I3
sS'[[Cotton Shirt]]'
p5
I5
sS'[[Cherry Jam]]'
p6
I0
sS'[[Vanilla Ice Cream]]'
p7
I5
sS'[[Milk]]'
p8
I2
sS'[[Sweater]]'
p9
I3
sS'[[Cream Cake]]'
p10
I5
sS'[[Syrup]]'
p11
I0
sS'[[Apple]]'
p12
I3
sS'[[Soybean]]'
p13
I2
s.