(dp0
S'[[Pumpkin]]'
p1
I34
sS'[[Blackberry Jam]]'
p2
I88
sS'[[Violet Dress]]'
p3
I10
sS'[[Strawberry Ice Cream]]'
p4
I2
sS'[[Raspberry Muffin]]'
p5
I89
sS'[[Apple Pie]]'
p6
I78
sS'[[Tomato Juice]]'
p7
I26
sS'[[Blue Sweater]]'
p8
I90
sS'[[Honey]]'
p9
I53
sS'[[Vanilla Ice Cream]]'
p10
I67
sS'[[Lure]]'
p11
I4
sS'[[Carrot Pie]]'
p12
I18
sS'[[Tomato]]'
p13
I14
sS'[[Potato]]'
p14
I61
sS'[[Cheesecake]]'
p15
I63
sS'[[Fish Pie]]'
p16
I57
sS'[[Pancake]]'
p17
I62
sS'[[Popcorn]]'
p18
I80
sS'[[Goat Cheese]]'
p19
I71
sS'[[Potato Bread]]'
p20
I16
sS'[[Goat Feed]]'
p21
I76
sS'[[Red Berry Cake]]'
p22
I19
sS'[[Pizza]]'
p23
I58
sS'[[Syrup]]'
p24
I23
sS'[[Sheep Feed]]'
p25
I31
sS'[[Cherry Popsicle]]'
p26
I38
sS'[[Bacon and Eggs]]'
p27
I83
sS'[[Carrot]]'
p28
I54
sS'[[Carrot Juice]]'
p29
I32
sS'[[Baked Potato]]'
p30
I13
sS'[[Milk]]'
p31
I73
sS'[[Apple Jam]]'
p32
I68
sS'[[Apple]]'
p33
I87
sS'[[Blackberry]]'
p34
I82
sS'[[Cotton Shirt]]'
p35
I9
sS'[[Cream]]'
p36
I6
sS'[[Raspberry Jam]]'
p37
I40
sS'[[Cherry]]'
p38
I77
sS'[[Bread]]'
p39
I7
sS'[[Wheat]]'
p40
I49
sS'[[Casserole]]'
p41
I52
sS'[[Strawberry]]'
p42
I79
sS'[[Honey Popcorn]]'
p43
I29
sS'[[Honeycomb]]'
p44
I25
sS'[[Indigo]]'
p45
I65
sS'[[Raspberry]]'
p46
I50
sS'[[Chocolate Cake]]'
p47
I86
sS'[[Spicy Pizza]]'
p48
I51
sS'[[Cacao]]'
p49
I39
sS'[[Woolly Chaps]]'
p50
I70
sS'[[Carrot Cake]]'
p51
I43
sS'[[Egg]]'
p52
I72
sS'[[Strawberry Cake]]'
p53
I15
sS'[[Cherry Juice]]'
p54
I3
sS'[[Fish Burger]]'
p55
I59
sS'[[White Sugar]]'
p56
I30
sS'[[Buttered Popcorn]]'
p57
I85
sS'[[Cream Cake]]'
p58
I75
sS'[[Soybean]]'
p59
I11
sS'[[Brown Sugar]]'
p60
I66
sS'[[Blue Woolly Hat]]'
p61
I42
sS'[[Goat Milk]]'
p62
I12
sS'[[Hamburger]]'
p63
I74
sS'[[Cherry Jam]]'
p64
I44
sS"[[Shepherd's Pie]]"
p65
I55
sS'[[Butter]]'
p66
I46
sS'[[Bacon Pie]]'
p67
I0
sS'[[Chili Pepper]]'
p68
I48
sS'[[Corn]]'
p69
I69
sS'[[Fish Fillet]]'
p70
I47
sS'[[Chili Popcorn]]'
p71
I35
sS'[[Bacon]]'
p72
I20
sS'[[Cotton Fabric]]'
p73
I64
sS'[[Pumpkin Pie]]'
p74
I21
sS'[[Potato Feta Cake]]'
p75
I5
sS'[[Sugarcane]]'
p76
I37
sS'[[Cookie]]'
p77
I8
sS'[[Apple Juice]]'
p78
I22
sS'[[Pig Feed]]'
p79
I24
sS'[[Cotton]]'
p80
I41
sS'[[Feta Pie]]'
p81
I84
sS'[[Cheese]]'
p82
I1
sS'[[Chocolate Ice Cream]]'
p83
I81
sS'[[Chicken Feed]]'
p84
I56
sS'[[Corn Bread]]'
p85
I27
sS'[[Wool]]'
p86
I28
sS'[[Roasted Tomatoes]]'
p87
I45
sS'[[Berry Juice]]'
p88
I60
sS'[[Sweater]]'
p89
I17
sS'[[Blackberry Muffin]]'
p90
I36
sS'[[Cow Feed]]'
p91
I33
s.(dp0
S'[[Casserole]]'
p1
I3
sS'[[Goat Milk]]'
p2
I0
sS'[[Cacao]]'
p3
I1
sS'[[Roasted Tomatoes]]'
p4
I0
sS'[[Honey Popcorn]]'
p5
I5
sS'[[Egg]]'
p6
I4
sS'[[Baked Potato]]'
p7
I5
sS'[[Butter]]'
p8
I2
sS'[[Wool]]'
p9
I3
sS'[[White Sugar]]'
p10
I5
sS'[[Potato]]'
p11
I3
sS'[[Cotton Fabric]]'
p12
I5
sS'[[Potato Bread]]'
p13
I0
s.