(dp0
S'[[Pumpkin]]'
p1
I80
sS'[[Blackberry Jam]]'
p2
I37
sS'[[Violet Dress]]'
p3
I60
sS'[[Strawberry Ice Cream]]'
p4
I90
sS'[[Raspberry Muffin]]'
p5
I56
sS'[[Apple Pie]]'
p6
I17
sS'[[Tomato Juice]]'
p7
I9
sS'[[Carrot Cake]]'
p8
I71
sS'[[Vanilla Ice Cream]]'
p9
I1
sS'[[Lure]]'
p10
I86
sS'[[Carrot Pie]]'
p11
I23
sS'[[Tomato]]'
p12
I49
sS'[[Cherry Juice]]'
p13
I6
sS'[[Cheesecake]]'
p14
I29
sS'[[Fish Pie]]'
p15
I79
sS'[[Pancake]]'
p16
I28
sS'[[Popcorn]]'
p17
I53
sS'[[Goat Cheese]]'
p18
I82
sS'[[Potato Bread]]'
p19
I0
sS'[[Goat Feed]]'
p20
I21
sS'[[Red Berry Cake]]'
p21
I65
sS'[[Pizza]]'
p22
I5
sS'[[Syrup]]'
p23
I15
sS'[[Sheep Feed]]'
p24
I72
sS'[[Cherry Popsicle]]'
p25
I40
sS'[[Bacon and Eggs]]'
p26
I78
sS'[[Carrot Juice]]'
p27
I13
sS'[[Baked Potato]]'
p28
I52
sS'[[Milk]]'
p29
I3
sS'[[Apple Jam]]'
p30
I19
sS'[[Carrot]]'
p31
I4
sS'[[Blackberry]]'
p32
I87
sS'[[Cotton Shirt]]'
p33
I44
sS'[[Cream]]'
p34
I63
sS'[[Raspberry Jam]]'
p35
I54
sS'[[Cherry]]'
p36
I81
sS'[[Bread]]'
p37
I59
sS'[[Wheat]]'
p38
I68
sS'[[Casserole]]'
p39
I61
sS'[[Chili Pepper]]'
p40
I12
sS'[[Honey Popcorn]]'
p41
I41
sS'[[Honeycomb]]'
p42
I20
sS'[[Indigo]]'
p43
I26
sS'[[Raspberry]]'
p44
I30
sS'[[Chocolate Cake]]'
p45
I2
sS'[[Spicy Pizza]]'
p46
I31
sS'[[Cacao]]'
p47
I84
sS'[[Woolly Chaps]]'
p48
I89
sS'[[Honey]]'
p49
I8
sS'[[Egg]]'
p50
I69
sS'[[Strawberry Cake]]'
p51
I7
sS'[[Potato]]'
p52
I55
sS'[[Fish Burger]]'
p53
I58
sS'[[White Sugar]]'
p54
I76
sS'[[Buttered Popcorn]]'
p55
I83
sS'[[Cream Cake]]'
p56
I70
sS'[[Soybean]]'
p57
I38
sS'[[Apple]]'
p58
I10
sS'[[Blue Woolly Hat]]'
p59
I67
sS'[[Goat Milk]]'
p60
I73
sS'[[Hamburger]]'
p61
I36
sS'[[Cherry Jam]]'
p62
I22
sS"[[Shepherd's Pie]]"
p63
I75
sS'[[Brown Sugar]]'
p64
I47
sS'[[Butter]]'
p65
I46
sS'[[Bacon Pie]]'
p66
I66
sS'[[Strawberry]]'
p67
I43
sS'[[Pumpkin Pie]]'
p68
I32
sS'[[Corn]]'
p69
I33
sS'[[Fish Fillet]]'
p70
I48
sS'[[Chili Popcorn]]'
p71
I11
sS'[[Bacon]]'
p72
I62
sS'[[Cotton Fabric]]'
p73
I14
sS'[[Blue Sweater]]'
p74
I42
sS'[[Potato Feta Cake]]'
p75
I34
sS'[[Sugarcane]]'
p76
I25
sS'[[Cookie]]'
p77
I16
sS'[[Apple Juice]]'
p78
I24
sS'[[Pig Feed]]'
p79
I57
sS'[[Cotton]]'
p80
I64
sS'[[Feta Pie]]'
p81
I27
sS'[[Cheese]]'
p82
I45
sS'[[Chocolate Ice Cream]]'
p83
I88
sS'[[Chicken Feed]]'
p84
I18
sS'[[Corn Bread]]'
p85
I35
sS'[[Wool]]'
p86
I50
sS'[[Roasted Tomatoes]]'
p87
I39
sS'[[Berry Juice]]'
p88
I77
sS'[[Sweater]]'
p89
I74
sS'[[Blackberry Muffin]]'
p90
I85
sS'[[Cow Feed]]'
p91
I51
s.(dp0
S'[[Potato Feta Cake]]'
p1
I4
sS'[[Strawberry Ice Cream]]'
p2
I1
sS'[[Cherry Juice]]'
p3
I1
sS'[[Bacon and Eggs]]'
p4
I4
sS'[[Honey Popcorn]]'
p5
I4
sS'[[Egg]]'
p6
I0
sS'[[Carrot Juice]]'
p7
I0
sS'[[Baked Potato]]'
p8
I4
sS'[[Honeycomb]]'
p9
I3
sS'[[Vanilla Ice Cream]]'
p10
I5
sS'[[Raspberry]]'
p11
I5
sS'[[Chocolate Cake]]'
p12
I5
sS'[[Bacon Pie]]'
p13
I0
s.