(dp0
S'[[Pumpkin]]'
p1
I54
sS'[[Blackberry Jam]]'
p2
I59
sS'[[Violet Dress]]'
p3
I82
sS'[[Strawberry Ice Cream]]'
p4
I63
sS'[[Raspberry Muffin]]'
p5
I76
sS'[[Apple Pie]]'
p6
I35
sS'[[Tomato Juice]]'
p7
I6
sS'[[Carrot Cake]]'
p8
I60
sS'[[Vanilla Ice Cream]]'
p9
I86
sS'[[Lure]]'
p10
I1
sS'[[Carrot Pie]]'
p11
I69
sS'[[Tomato]]'
p12
I88
sS'[[Cherry Juice]]'
p13
I0
sS'[[Cheesecake]]'
p14
I62
sS'[[Fish Pie]]'
p15
I77
sS'[[Pancake]]'
p16
I87
sS'[[Popcorn]]'
p17
I71
sS'[[Goat Cheese]]'
p18
I21
sS'[[Potato Bread]]'
p19
I32
sS'[[Goat Feed]]'
p20
I73
sS'[[Red Berry Cake]]'
p21
I64
sS'[[Pizza]]'
p22
I50
sS'[[Syrup]]'
p23
I48
sS'[[Sheep Feed]]'
p24
I65
sS'[[Cherry Popsicle]]'
p25
I58
sS'[[Bacon and Eggs]]'
p26
I13
sS'[[Carrot Juice]]'
p27
I78
sS'[[Baked Potato]]'
p28
I68
sS'[[Milk]]'
p29
I84
sS'[[Apple Jam]]'
p30
I31
sS'[[Carrot]]'
p31
I61
sS'[[Blackberry]]'
p32
I67
sS'[[Cotton Shirt]]'
p33
I4
sS'[[Cream]]'
p34
I72
sS'[[Raspberry Jam]]'
p35
I5
sS'[[Cherry]]'
p36
I19
sS'[[Bread]]'
p37
I38
sS'[[Wheat]]'
p38
I11
sS'[[Casserole]]'
p39
I7
sS'[[Chili Pepper]]'
p40
I20
sS'[[Honey Popcorn]]'
p41
I23
sS'[[Honeycomb]]'
p42
I9
sS'[[Indigo]]'
p43
I57
sS'[[Raspberry]]'
p44
I28
sS'[[Chocolate Cake]]'
p45
I83
sS'[[Spicy Pizza]]'
p46
I55
sS'[[Cacao]]'
p47
I10
sS'[[Woolly Chaps]]'
p48
I16
sS'[[Honey]]'
p49
I22
sS'[[Egg]]'
p50
I14
sS'[[Strawberry Cake]]'
p51
I47
sS'[[Potato]]'
p52
I17
sS'[[Fish Burger]]'
p53
I42
sS'[[White Sugar]]'
p54
I15
sS'[[Buttered Popcorn]]'
p55
I89
sS'[[Cream Cake]]'
p56
I49
sS'[[Soybean]]'
p57
I66
sS'[[Apple]]'
p58
I53
sS'[[Blue Woolly Hat]]'
p59
I2
sS'[[Goat Milk]]'
p60
I43
sS'[[Hamburger]]'
p61
I33
sS'[[Cherry Jam]]'
p62
I29
sS"[[Shepherd's Pie]]"
p63
I45
sS'[[Brown Sugar]]'
p64
I70
sS'[[Butter]]'
p65
I80
sS'[[Bacon Pie]]'
p66
I8
sS'[[Strawberry]]'
p67
I44
sS'[[Pumpkin Pie]]'
p68
I3
sS'[[Corn]]'
p69
I24
sS'[[Fish Fillet]]'
p70
I41
sS'[[Chili Popcorn]]'
p71
I46
sS'[[Sugarcane]]'
p72
I12
sS'[[Cotton Fabric]]'
p73
I40
sS'[[Blue Sweater]]'
p74
I18
sS'[[Potato Feta Cake]]'
p75
I74
sS'[[Cookie]]'
p76
I75
sS'[[Apple Juice]]'
p77
I36
sS'[[Pig Feed]]'
p78
I90
sS'[[Cotton]]'
p79
I79
sS'[[Feta Pie]]'
p80
I81
sS'[[Cheese]]'
p81
I26
sS'[[Chocolate Ice Cream]]'
p82
I52
sS'[[Bacon]]'
p83
I51
sS'[[Chicken Feed]]'
p84
I56
sS'[[Corn Bread]]'
p85
I37
sS'[[Wool]]'
p86
I39
sS'[[Roasted Tomatoes]]'
p87
I25
sS'[[Berry Juice]]'
p88
I27
sS'[[Sweater]]'
p89
I30
sS'[[Blackberry Muffin]]'
p90
I34
sS'[[Cow Feed]]'
p91
I85
s.(dp0
S'[[Sheep Feed]]'
p1
I3
sS'[[Casserole]]'
p2
I3
sS'[[Honey Popcorn]]'
p3
I5
sS'[[Roasted Tomatoes]]'
p4
I2
sS'[[Carrot Pie]]'
p5
I5
sS'[[Pumpkin]]'
p6
I1
sS'[[Carrot Juice]]'
p7
I5
sS'[[White Sugar]]'
p8
I3
sS'[[Syrup]]'
p9
I4
sS'[[Wool]]'
p10
I5
sS"[[Shepherd's Pie]]"
p11
I5
sS'[[Violet Dress]]'
p12
I3
sS'[[Soybean]]'
p13
I0
s.