(dp0
S'[[Pumpkin]]'
p1
I5
sS'[[Blackberry Jam]]'
p2
I66
sS'[[Violet Dress]]'
p3
I59
sS'[[Strawberry Ice Cream]]'
p4
I27
sS'[[Raspberry Muffin]]'
p5
I86
sS'[[Apple Pie]]'
p6
I57
sS'[[Tomato Juice]]'
p7
I29
sS'[[Carrot Cake]]'
p8
I58
sS'[[Vanilla Ice Cream]]'
p9
I31
sS'[[Lure]]'
p10
I13
sS'[[Carrot Pie]]'
p11
I62
sS'[[Tomato]]'
p12
I44
sS'[[Cherry Juice]]'
p13
I55
sS'[[Cheesecake]]'
p14
I43
sS'[[Fish Pie]]'
p15
I47
sS'[[Pancake]]'
p16
I50
sS'[[Popcorn]]'
p17
I82
sS'[[Goat Cheese]]'
p18
I64
sS'[[Potato Bread]]'
p19
I42
sS'[[Goat Feed]]'
p20
I71
sS'[[Red Berry Cake]]'
p21
I30
sS'[[Pizza]]'
p22
I40
sS'[[Syrup]]'
p23
I78
sS'[[Sheep Feed]]'
p24
I67
sS'[[Cherry Popsicle]]'
p25
I70
sS'[[Bacon and Eggs]]'
p26
I85
sS'[[Carrot Juice]]'
p27
I32
sS'[[Baked Potato]]'
p28
I17
sS'[[Milk]]'
p29
I56
sS'[[Apple Jam]]'
p30
I12
sS'[[Carrot]]'
p31
I39
sS'[[Blackberry]]'
p32
I3
sS'[[Cotton Shirt]]'
p33
I33
sS'[[Cream]]'
p34
I54
sS'[[Raspberry Jam]]'
p35
I35
sS'[[Cherry]]'
p36
I80
sS'[[Bread]]'
p37
I38
sS'[[Wheat]]'
p38
I18
sS'[[Casserole]]'
p39
I28
sS'[[Chili Pepper]]'
p40
I1
sS'[[Honey Popcorn]]'
p41
I74
sS'[[Honeycomb]]'
p42
I45
sS'[[Indigo]]'
p43
I9
sS'[[Raspberry]]'
p44
I15
sS'[[Chocolate Cake]]'
p45
I11
sS'[[Spicy Pizza]]'
p46
I68
sS'[[Cacao]]'
p47
I34
sS'[[Woolly Chaps]]'
p48
I23
sS'[[Honey]]'
p49
I2
sS'[[Egg]]'
p50
I89
sS'[[Strawberry Cake]]'
p51
I26
sS'[[Potato]]'
p52
I0
sS'[[Fish Burger]]'
p53
I4
sS'[[White Sugar]]'
p54
I10
sS'[[Buttered Popcorn]]'
p55
I81
sS'[[Cream Cake]]'
p56
I87
sS'[[Soybean]]'
p57
I7
sS'[[Apple]]'
p58
I24
sS'[[Blue Woolly Hat]]'
p59
I84
sS'[[Goat Milk]]'
p60
I22
sS'[[Hamburger]]'
p61
I21
sS'[[Cherry Jam]]'
p62
I72
sS"[[Shepherd's Pie]]"
p63
I73
sS'[[Brown Sugar]]'
p64
I6
sS'[[Butter]]'
p65
I61
sS'[[Bacon Pie]]'
p66
I90
sS'[[Strawberry]]'
p67
I88
sS'[[Pumpkin Pie]]'
p68
I37
sS'[[Corn]]'
p69
I60
sS'[[Fish Fillet]]'
p70
I8
sS'[[Chili Popcorn]]'
p71
I77
sS'[[Sugarcane]]'
p72
I51
sS'[[Cotton Fabric]]'
p73
I19
sS'[[Blue Sweater]]'
p74
I20
sS'[[Potato Feta Cake]]'
p75
I75
sS'[[Cookie]]'
p76
I48
sS'[[Apple Juice]]'
p77
I14
sS'[[Pig Feed]]'
p78
I49
sS'[[Cotton]]'
p79
I52
sS'[[Feta Pie]]'
p80
I53
sS'[[Cheese]]'
p81
I83
sS'[[Chocolate Ice Cream]]'
p82
I46
sS'[[Bacon]]'
p83
I76
sS'[[Chicken Feed]]'
p84
I36
sS'[[Corn Bread]]'
p85
I16
sS'[[Wool]]'
p86
I25
sS'[[Roasted Tomatoes]]'
p87
I41
sS'[[Berry Juice]]'
p88
I69
sS'[[Sweater]]'
p89
I65
sS'[[Blackberry Muffin]]'
p90
I79
sS'[[Cow Feed]]'
p91
I63
s.(dp0
S'[[Goat Cheese]]'
p1
I5
sS'[[Strawberry Ice Cream]]'
p2
I3
sS'[[Strawberry]]'
p3
I4
sS'[[Carrot Pie]]'
p4
I3
sS'[[Strawberry Cake]]'
p5
I5
sS'[[Honey Popcorn]]'
p6
I4
sS'[[Hamburger]]'
p7
I3
sS'[[Honeycomb]]'
p8
I2
sS'[[Fish Burger]]'
p9
I2
sS'[[Wool]]'
p10
I5
sS'[[Lure]]'
p11
I1
sS"[[Shepherd's Pie]]"
p12
I0
sS'[[Chicken Feed]]'
p13
I4
sS'[[Soybean]]'
p14
I1
s.