(dp0
S'[[Pumpkin]]'
p1
I42
sS'[[Blackberry Jam]]'
p2
I87
sS'[[Violet Dress]]'
p3
I78
sS'[[Strawberry Ice Cream]]'
p4
I28
sS'[[Raspberry Muffin]]'
p5
I9
sS'[[Apple Pie]]'
p6
I46
sS'[[Tomato Juice]]'
p7
I18
sS'[[Blue Sweater]]'
p8
I21
sS'[[Honey]]'
p9
I64
sS'[[Vanilla Ice Cream]]'
p10
I67
sS'[[Lure]]'
p11
I22
sS'[[Carrot Pie]]'
p12
I10
sS'[[Tomato]]'
p13
I13
sS'[[Potato]]'
p14
I63
sS'[[Cheesecake]]'
p15
I77
sS'[[Fish Pie]]'
p16
I48
sS'[[Pancake]]'
p17
I33
sS'[[Popcorn]]'
p18
I49
sS'[[Goat Cheese]]'
p19
I56
sS'[[Potato Bread]]'
p20
I62
sS'[[Goat Feed]]'
p21
I74
sS'[[Red Berry Cake]]'
p22
I65
sS'[[Pizza]]'
p23
I57
sS'[[Syrup]]'
p24
I5
sS'[[Sheep Feed]]'
p25
I89
sS'[[Cherry Popsicle]]'
p26
I75
sS'[[Bacon and Eggs]]'
p27
I23
sS'[[Carrot]]'
p28
I69
sS'[[Carrot Juice]]'
p29
I52
sS'[[Baked Potato]]'
p30
I20
sS'[[Milk]]'
p31
I38
sS'[[Apple Jam]]'
p32
I34
sS'[[Apple]]'
p33
I79
sS'[[Blackberry]]'
p34
I32
sS'[[Cotton Shirt]]'
p35
I60
sS'[[Cream]]'
p36
I2
sS'[[Raspberry Jam]]'
p37
I15
sS'[[Cherry]]'
p38
I25
sS'[[Bread]]'
p39
I53
sS'[[Wheat]]'
p40
I66
sS'[[Casserole]]'
p41
I81
sS'[[Strawberry]]'
p42
I83
sS'[[Honey Popcorn]]'
p43
I8
sS'[[Honeycomb]]'
p44
I17
sS'[[Indigo]]'
p45
I1
sS'[[Raspberry]]'
p46
I43
sS'[[Chocolate Cake]]'
p47
I45
sS'[[Spicy Pizza]]'
p48
I88
sS'[[Cacao]]'
p49
I85
sS'[[Woolly Chaps]]'
p50
I51
sS'[[Carrot Cake]]'
p51
I90
sS'[[Egg]]'
p52
I50
sS'[[Strawberry Cake]]'
p53
I59
sS'[[Cherry Juice]]'
p54
I7
sS'[[Fish Burger]]'
p55
I14
sS'[[White Sugar]]'
p56
I24
sS'[[Buttered Popcorn]]'
p57
I19
sS'[[Cream Cake]]'
p58
I12
sS'[[Soybean]]'
p59
I0
sS'[[Brown Sugar]]'
p60
I36
sS'[[Blue Woolly Hat]]'
p61
I4
sS'[[Goat Milk]]'
p62
I72
sS'[[Hamburger]]'
p63
I80
sS'[[Cherry Jam]]'
p64
I29
sS"[[Shepherd's Pie]]"
p65
I44
sS'[[Butter]]'
p66
I71
sS'[[Bacon Pie]]'
p67
I68
sS'[[Chili Pepper]]'
p68
I35
sS'[[Corn]]'
p69
I11
sS'[[Fish Fillet]]'
p70
I73
sS'[[Chili Popcorn]]'
p71
I76
sS'[[Bacon]]'
p72
I86
sS'[[Cotton Fabric]]'
p73
I26
sS'[[Pumpkin Pie]]'
p74
I40
sS'[[Potato Feta Cake]]'
p75
I70
sS'[[Sugarcane]]'
p76
I55
sS'[[Cookie]]'
p77
I30
sS'[[Apple Juice]]'
p78
I6
sS'[[Pig Feed]]'
p79
I58
sS'[[Cotton]]'
p80
I39
sS'[[Feta Pie]]'
p81
I16
sS'[[Cheese]]'
p82
I47
sS'[[Chocolate Ice Cream]]'
p83
I41
sS'[[Chicken Feed]]'
p84
I84
sS'[[Corn Bread]]'
p85
I61
sS'[[Wool]]'
p86
I3
sS'[[Roasted Tomatoes]]'
p87
I82
sS'[[Berry Juice]]'
p88
I54
sS'[[Sweater]]'
p89
I27
sS'[[Blackberry Muffin]]'
p90
I37
sS'[[Cow Feed]]'
p91
I31
s.(dp0
S'[[Sheep Feed]]'
p1
I0
sS'[[Casserole]]'
p2
I5
sS"[[Shepherd's Pie]]"
p3
I0
sS'[[Roasted Tomatoes]]'
p4
I4
sS'[[Carrot Pie]]'
p5
I1
sS'[[Honey Popcorn]]'
p6
I1
sS'[[Egg]]'
p7
I3
sS'[[Baked Potato]]'
p8
I1
sS'[[Blackberry Muffin]]'
p9
I0
sS'[[Potato Bread]]'
p10
I5
sS'[[Cream Cake]]'
p11
I5
sS'[[Cow Feed]]'
p12
I0
sS'[[Violet Dress]]'
p13
I2
s.