(dp0
S'[[Pumpkin]]'
p1
I69
sS'[[Blackberry Jam]]'
p2
I27
sS'[[Violet Dress]]'
p3
I2
sS'[[Strawberry Ice Cream]]'
p4
I22
sS'[[Raspberry Muffin]]'
p5
I77
sS'[[Apple Pie]]'
p6
I58
sS'[[Tomato Juice]]'
p7
I60
sS'[[Carrot Cake]]'
p8
I45
sS'[[Vanilla Ice Cream]]'
p9
I63
sS'[[Lure]]'
p10
I75
sS'[[Carrot Pie]]'
p11
I59
sS'[[Tomato]]'
p12
I29
sS'[[Cherry Juice]]'
p13
I62
sS'[[Cheesecake]]'
p14
I78
sS'[[Fish Pie]]'
p15
I52
sS'[[Pancake]]'
p16
I76
sS'[[Popcorn]]'
p17
I41
sS'[[Goat Cheese]]'
p18
I18
sS'[[Potato Bread]]'
p19
I4
sS'[[Goat Feed]]'
p20
I70
sS'[[Red Berry Cake]]'
p21
I65
sS'[[Pizza]]'
p22
I37
sS'[[Syrup]]'
p23
I16
sS'[[Sheep Feed]]'
p24
I17
sS'[[Cherry Popsicle]]'
p25
I66
sS'[[Bacon and Eggs]]'
p26
I26
sS'[[Carrot Juice]]'
p27
I53
sS'[[Baked Potato]]'
p28
I67
sS'[[Milk]]'
p29
I48
sS'[[Apple Jam]]'
p30
I5
sS'[[Carrot]]'
p31
I89
sS'[[Blackberry]]'
p32
I47
sS'[[Cotton Shirt]]'
p33
I46
sS'[[Cream]]'
p34
I68
sS'[[Raspberry Jam]]'
p35
I43
sS'[[Cherry]]'
p36
I40
sS'[[Bread]]'
p37
I50
sS'[[Wheat]]'
p38
I0
sS'[[Casserole]]'
p39
I85
sS'[[Chili Pepper]]'
p40
I55
sS'[[Honey Popcorn]]'
p41
I9
sS'[[Honeycomb]]'
p42
I42
sS'[[Indigo]]'
p43
I30
sS'[[Raspberry]]'
p44
I14
sS'[[Chocolate Cake]]'
p45
I39
sS'[[Spicy Pizza]]'
p46
I1
sS'[[Cacao]]'
p47
I54
sS'[[Woolly Chaps]]'
p48
I64
sS'[[Honey]]'
p49
I3
sS'[[Egg]]'
p50
I82
sS'[[Strawberry Cake]]'
p51
I7
sS'[[Potato]]'
p52
I83
sS'[[Fish Burger]]'
p53
I38
sS'[[White Sugar]]'
p54
I12
sS'[[Buttered Popcorn]]'
p55
I51
sS'[[Cream Cake]]'
p56
I80
sS'[[Soybean]]'
p57
I86
sS'[[Apple]]'
p58
I25
sS'[[Blue Woolly Hat]]'
p59
I15
sS'[[Goat Milk]]'
p60
I84
sS'[[Hamburger]]'
p61
I36
sS'[[Cherry Jam]]'
p62
I71
sS"[[Shepherd's Pie]]"
p63
I20
sS'[[Brown Sugar]]'
p64
I73
sS'[[Butter]]'
p65
I32
sS'[[Bacon Pie]]'
p66
I33
sS'[[Strawberry]]'
p67
I23
sS'[[Pumpkin Pie]]'
p68
I10
sS'[[Corn]]'
p69
I8
sS'[[Fish Fillet]]'
p70
I21
sS'[[Chili Popcorn]]'
p71
I19
sS'[[Sugarcane]]'
p72
I79
sS'[[Cotton Fabric]]'
p73
I28
sS'[[Blue Sweater]]'
p74
I57
sS'[[Potato Feta Cake]]'
p75
I31
sS'[[Cookie]]'
p76
I81
sS'[[Apple Juice]]'
p77
I6
sS'[[Pig Feed]]'
p78
I56
sS'[[Cotton]]'
p79
I90
sS'[[Feta Pie]]'
p80
I11
sS'[[Cheese]]'
p81
I87
sS'[[Chocolate Ice Cream]]'
p82
I88
sS'[[Bacon]]'
p83
I34
sS'[[Chicken Feed]]'
p84
I24
sS'[[Corn Bread]]'
p85
I61
sS'[[Wool]]'
p86
I72
sS'[[Roasted Tomatoes]]'
p87
I13
sS'[[Berry Juice]]'
p88
I49
sS'[[Sweater]]'
p89
I35
sS'[[Blackberry Muffin]]'
p90
I44
sS'[[Cow Feed]]'
p91
I74
s.(dp0
S'[[Apple]]'
p1
I2
sS'[[Casserole]]'
p2
I4
sS'[[Popcorn]]'
p3
I3
sS'[[Strawberry]]'
p4
I0
sS'[[Cacao]]'
p5
I0
sS'[[Carrot Cake]]'
p6
I5
sS'[[Carrot Juice]]'
p7
I2
sS'[[Baked Potato]]'
p8
I5
sS'[[Chili Pepper]]'
p9
I5
sS'[[Bacon]]'
p10
I1
sS'[[Tomato Juice]]'
p11
I5
sS'[[Cream Cake]]'
p12
I2
sS'[[Cheesecake]]'
p13
I2
s.