(dp0
S'[[Pumpkin]]'
p1
I31
sS'[[Blackberry Jam]]'
p2
I53
sS'[[Violet Dress]]'
p3
I77
sS'[[Strawberry Ice Cream]]'
p4
I58
sS'[[Raspberry Muffin]]'
p5
I14
sS'[[Apple Pie]]'
p6
I30
sS'[[Tomato Juice]]'
p7
I39
sS'[[Carrot Cake]]'
p8
I84
sS'[[Vanilla Ice Cream]]'
p9
I8
sS'[[Lure]]'
p10
I60
sS'[[Carrot Pie]]'
p11
I3
sS'[[Tomato]]'
p12
I73
sS'[[Cherry Juice]]'
p13
I11
sS'[[Cheesecake]]'
p14
I70
sS'[[Fish Pie]]'
p15
I42
sS'[[Pancake]]'
p16
I6
sS'[[Popcorn]]'
p17
I48
sS'[[Goat Cheese]]'
p18
I32
sS'[[Potato Bread]]'
p19
I83
sS'[[Goat Feed]]'
p20
I12
sS'[[Red Berry Cake]]'
p21
I88
sS'[[Pizza]]'
p22
I2
sS'[[Syrup]]'
p23
I19
sS'[[Sheep Feed]]'
p24
I29
sS'[[Cherry Popsicle]]'
p25
I86
sS'[[Bacon and Eggs]]'
p26
I89
sS'[[Carrot Juice]]'
p27
I51
sS'[[Baked Potato]]'
p28
I75
sS'[[Milk]]'
p29
I82
sS'[[Apple Jam]]'
p30
I81
sS'[[Carrot]]'
p31
I21
sS'[[Blackberry]]'
p32
I0
sS'[[Cotton Shirt]]'
p33
I55
sS'[[Cream]]'
p34
I67
sS'[[Raspberry Jam]]'
p35
I4
sS'[[Cherry]]'
p36
I40
sS'[[Bread]]'
p37
I49
sS'[[Wheat]]'
p38
I25
sS'[[Casserole]]'
p39
I1
sS'[[Chili Pepper]]'
p40
I13
sS'[[Honey Popcorn]]'
p41
I10
sS'[[Honeycomb]]'
p42
I72
sS'[[Indigo]]'
p43
I35
sS'[[Raspberry]]'
p44
I68
sS'[[Chocolate Cake]]'
p45
I64
sS'[[Spicy Pizza]]'
p46
I38
sS'[[Cacao]]'
p47
I43
sS'[[Woolly Chaps]]'
p48
I69
sS'[[Honey]]'
p49
I90
sS'[[Egg]]'
p50
I18
sS'[[Strawberry Cake]]'
p51
I65
sS'[[Potato]]'
p52
I74
sS'[[Fish Burger]]'
p53
I24
sS'[[White Sugar]]'
p54
I62
sS'[[Buttered Popcorn]]'
p55
I59
sS'[[Cream Cake]]'
p56
I66
sS'[[Soybean]]'
p57
I85
sS'[[Apple]]'
p58
I61
sS'[[Blue Woolly Hat]]'
p59
I79
sS'[[Goat Milk]]'
p60
I80
sS'[[Hamburger]]'
p61
I7
sS'[[Cherry Jam]]'
p62
I16
sS"[[Shepherd's Pie]]"
p63
I87
sS'[[Brown Sugar]]'
p64
I41
sS'[[Butter]]'
p65
I57
sS'[[Bacon Pie]]'
p66
I50
sS'[[Strawberry]]'
p67
I9
sS'[[Pumpkin Pie]]'
p68
I54
sS'[[Corn]]'
p69
I34
sS'[[Fish Fillet]]'
p70
I5
sS'[[Chili Popcorn]]'
p71
I27
sS'[[Sugarcane]]'
p72
I37
sS'[[Cotton Fabric]]'
p73
I33
sS'[[Blue Sweater]]'
p74
I76
sS'[[Potato Feta Cake]]'
p75
I22
sS'[[Cookie]]'
p76
I44
sS'[[Apple Juice]]'
p77
I45
sS'[[Pig Feed]]'
p78
I46
sS'[[Cotton]]'
p79
I36
sS'[[Feta Pie]]'
p80
I78
sS'[[Cheese]]'
p81
I17
sS'[[Chocolate Ice Cream]]'
p82
I23
sS'[[Bacon]]'
p83
I15
sS'[[Chicken Feed]]'
p84
I71
sS'[[Corn Bread]]'
p85
I47
sS'[[Wool]]'
p86
I56
sS'[[Roasted Tomatoes]]'
p87
I52
sS'[[Berry Juice]]'
p88
I63
sS'[[Sweater]]'
p89
I20
sS'[[Blackberry Muffin]]'
p90
I26
sS'[[Cow Feed]]'
p91
I28
s.(dp0
S'[[Corn]]'
p1
I1
sS'[[Fish Fillet]]'
p2
I3
sS'[[Carrot Cake]]'
p3
I3
sS'[[Strawberry Cake]]'
p4
I4
sS'[[Cherry Juice]]'
p5
I4
sS'[[Casserole]]'
p6
I4
sS'[[Carrot Juice]]'
p7
I4
sS'[[Chocolate Ice Cream]]'
p8
I3
sS"[[Shepherd's Pie]]"
p9
I5
s.