(dp0
S'[[Pumpkin]]'
p1
I78
sS'[[Blackberry Jam]]'
p2
I52
sS'[[Violet Dress]]'
p3
I18
sS'[[Strawberry Ice Cream]]'
p4
I76
sS'[[Raspberry Muffin]]'
p5
I34
sS'[[Apple Pie]]'
p6
I75
sS'[[Tomato Juice]]'
p7
I28
sS'[[Carrot Cake]]'
p8
I7
sS'[[Vanilla Ice Cream]]'
p9
I11
sS'[[Lure]]'
p10
I29
sS'[[Carrot Pie]]'
p11
I50
sS'[[Tomato]]'
p12
I20
sS'[[Cherry Juice]]'
p13
I23
sS'[[Cheesecake]]'
p14
I17
sS'[[Fish Pie]]'
p15
I54
sS'[[Pancake]]'
p16
I70
sS'[[Popcorn]]'
p17
I0
sS'[[Goat Cheese]]'
p18
I24
sS'[[Potato Bread]]'
p19
I2
sS'[[Goat Feed]]'
p20
I25
sS'[[Red Berry Cake]]'
p21
I40
sS'[[Pizza]]'
p22
I73
sS'[[Syrup]]'
p23
I31
sS'[[Sheep Feed]]'
p24
I6
sS'[[Cherry Popsicle]]'
p25
I88
sS'[[Bacon and Eggs]]'
p26
I89
sS'[[Carrot Juice]]'
p27
I77
sS'[[Baked Potato]]'
p28
I5
sS'[[Milk]]'
p29
I44
sS'[[Apple Jam]]'
p30
I13
sS'[[Carrot]]'
p31
I74
sS'[[Blackberry]]'
p32
I32
sS'[[Cotton Shirt]]'
p33
I71
sS'[[Cream]]'
p34
I12
sS'[[Raspberry Jam]]'
p35
I48
sS'[[Cherry]]'
p36
I61
sS'[[Bread]]'
p37
I72
sS'[[Wheat]]'
p38
I90
sS'[[Casserole]]'
p39
I51
sS'[[Chili Pepper]]'
p40
I59
sS'[[Honey Popcorn]]'
p41
I86
sS'[[Honeycomb]]'
p42
I16
sS'[[Indigo]]'
p43
I56
sS'[[Raspberry]]'
p44
I3
sS'[[Chocolate Cake]]'
p45
I68
sS'[[Spicy Pizza]]'
p46
I33
sS'[[Cacao]]'
p47
I62
sS'[[Woolly Chaps]]'
p48
I69
sS'[[Honey]]'
p49
I1
sS'[[Egg]]'
p50
I21
sS'[[Strawberry Cake]]'
p51
I22
sS'[[Potato]]'
p52
I37
sS'[[Fish Burger]]'
p53
I60
sS'[[White Sugar]]'
p54
I58
sS'[[Buttered Popcorn]]'
p55
I43
sS'[[Cream Cake]]'
p56
I63
sS'[[Soybean]]'
p57
I80
sS'[[Apple]]'
p58
I79
sS'[[Blue Woolly Hat]]'
p59
I45
sS'[[Goat Milk]]'
p60
I57
sS'[[Hamburger]]'
p61
I14
sS'[[Cherry Jam]]'
p62
I8
sS"[[Shepherd's Pie]]"
p63
I65
sS'[[Brown Sugar]]'
p64
I41
sS'[[Butter]]'
p65
I67
sS'[[Bacon Pie]]'
p66
I83
sS'[[Strawberry]]'
p67
I87
sS'[[Pumpkin Pie]]'
p68
I42
sS'[[Corn]]'
p69
I46
sS'[[Fish Fillet]]'
p70
I49
sS'[[Chili Popcorn]]'
p71
I36
sS'[[Sugarcane]]'
p72
I27
sS'[[Cotton Fabric]]'
p73
I81
sS'[[Blue Sweater]]'
p74
I66
sS'[[Potato Feta Cake]]'
p75
I9
sS'[[Cookie]]'
p76
I26
sS'[[Apple Juice]]'
p77
I15
sS'[[Pig Feed]]'
p78
I35
sS'[[Cotton]]'
p79
I55
sS'[[Feta Pie]]'
p80
I64
sS'[[Cheese]]'
p81
I84
sS'[[Chocolate Ice Cream]]'
p82
I4
sS'[[Bacon]]'
p83
I39
sS'[[Chicken Feed]]'
p84
I53
sS'[[Corn Bread]]'
p85
I85
sS'[[Wool]]'
p86
I19
sS'[[Roasted Tomatoes]]'
p87
I30
sS'[[Berry Juice]]'
p88
I82
sS'[[Sweater]]'
p89
I38
sS'[[Blackberry Muffin]]'
p90
I10
sS'[[Cow Feed]]'
p91
I47
s.(dp0
S'[[Blue Sweater]]'
p1
I2
sS'[[Bread]]'
p2
I1
sS'[[Cheesecake]]'
p3
I1
sS'[[Cherry Popsicle]]'
p4
I4
sS'[[Strawberry Cake]]'
p5
I0
sS'[[Goat Milk]]'
p6
I4
sS'[[Baked Potato]]'
p7
I4
sS'[[Sugarcane]]'
p8
I4
sS'[[Pizza]]'
p9
I0
sS'[[Honey Popcorn]]'
p10
I5
s.