(dp0
S'[[Pumpkin]]'
p1
I47
sS'[[Blackberry Jam]]'
p2
I10
sS'[[Violet Dress]]'
p3
I18
sS'[[Strawberry Ice Cream]]'
p4
I77
sS'[[Raspberry Muffin]]'
p5
I79
sS'[[Apple Pie]]'
p6
I64
sS'[[Tomato Juice]]'
p7
I78
sS'[[Blue Sweater]]'
p8
I42
sS'[[Honey]]'
p9
I40
sS'[[Vanilla Ice Cream]]'
p10
I46
sS'[[Lure]]'
p11
I11
sS'[[Carrot Pie]]'
p12
I27
sS'[[Tomato]]'
p13
I30
sS'[[Potato]]'
p14
I55
sS'[[Cheesecake]]'
p15
I84
sS'[[Fish Pie]]'
p16
I67
sS'[[Pancake]]'
p17
I82
sS'[[Popcorn]]'
p18
I38
sS'[[Goat Cheese]]'
p19
I72
sS'[[Potato Bread]]'
p20
I75
sS'[[Goat Feed]]'
p21
I73
sS'[[Red Berry Cake]]'
p22
I0
sS'[[Pizza]]'
p23
I7
sS'[[Syrup]]'
p24
I83
sS'[[Sheep Feed]]'
p25
I23
sS'[[Cherry Popsicle]]'
p26
I36
sS'[[Bacon and Eggs]]'
p27
I16
sS'[[Carrot]]'
p28
I62
sS'[[Carrot Juice]]'
p29
I39
sS'[[Baked Potato]]'
p30
I41
sS'[[Milk]]'
p31
I89
sS'[[Apple Jam]]'
p32
I69
sS'[[Apple]]'
p33
I31
sS'[[Blackberry]]'
p34
I28
sS'[[Cotton Shirt]]'
p35
I1
sS'[[Cream]]'
p36
I44
sS'[[Raspberry Jam]]'
p37
I60
sS'[[Cherry]]'
p38
I81
sS'[[Bread]]'
p39
I3
sS'[[Wheat]]'
p40
I29
sS'[[Casserole]]'
p41
I74
sS'[[Strawberry]]'
p42
I43
sS'[[Honey Popcorn]]'
p43
I4
sS'[[Honeycomb]]'
p44
I70
sS'[[Indigo]]'
p45
I57
sS'[[Raspberry]]'
p46
I12
sS'[[Chocolate Cake]]'
p47
I51
sS'[[Spicy Pizza]]'
p48
I68
sS'[[Cacao]]'
p49
I5
sS'[[Woolly Chaps]]'
p50
I20
sS'[[Carrot Cake]]'
p51
I49
sS'[[Egg]]'
p52
I48
sS'[[Strawberry Cake]]'
p53
I22
sS'[[Cherry Juice]]'
p54
I26
sS'[[Fish Burger]]'
p55
I90
sS'[[White Sugar]]'
p56
I37
sS'[[Buttered Popcorn]]'
p57
I86
sS'[[Cream Cake]]'
p58
I21
sS'[[Soybean]]'
p59
I61
sS'[[Brown Sugar]]'
p60
I65
sS'[[Blue Woolly Hat]]'
p61
I53
sS'[[Goat Milk]]'
p62
I19
sS'[[Hamburger]]'
p63
I52
sS'[[Cherry Jam]]'
p64
I24
sS"[[Shepherd's Pie]]"
p65
I63
sS'[[Butter]]'
p66
I34
sS'[[Bacon Pie]]'
p67
I2
sS'[[Chili Pepper]]'
p68
I50
sS'[[Corn]]'
p69
I8
sS'[[Fish Fillet]]'
p70
I76
sS'[[Chili Popcorn]]'
p71
I17
sS'[[Bacon]]'
p72
I32
sS'[[Cotton Fabric]]'
p73
I35
sS'[[Pumpkin Pie]]'
p74
I56
sS'[[Potato Feta Cake]]'
p75
I58
sS'[[Sugarcane]]'
p76
I45
sS'[[Cookie]]'
p77
I33
sS'[[Apple Juice]]'
p78
I25
sS'[[Pig Feed]]'
p79
I66
sS'[[Cotton]]'
p80
I71
sS'[[Feta Pie]]'
p81
I15
sS'[[Cheese]]'
p82
I85
sS'[[Chocolate Ice Cream]]'
p83
I87
sS'[[Chicken Feed]]'
p84
I9
sS'[[Corn Bread]]'
p85
I13
sS'[[Wool]]'
p86
I14
sS'[[Roasted Tomatoes]]'
p87
I59
sS'[[Berry Juice]]'
p88
I54
sS'[[Sweater]]'
p89
I6
sS'[[Blackberry Muffin]]'
p90
I88
sS'[[Cow Feed]]'
p91
I80
s.(dp0
S'[[Blue Woolly Hat]]'
p1
I5
sS'[[Cookie]]'
p2
I0
sS'[[Carrot Juice]]'
p3
I2
sS'[[Blackberry Muffin]]'
p4
I5
sS'[[Butter]]'
p5
I3
sS'[[Vanilla Ice Cream]]'
p6
I5
sS'[[Cheese]]'
p7
I5
sS'[[Chocolate Ice Cream]]'
p8
I4
sS'[[Potato Bread]]'
p9
I5
s.