(dp0
S'[[Pumpkin]]'
p1
I5
sS'[[Blackberry Jam]]'
p2
I55
sS'[[Violet Dress]]'
p3
I19
sS'[[Strawberry Ice Cream]]'
p4
I59
sS'[[Raspberry Muffin]]'
p5
I39
sS'[[Apple Pie]]'
p6
I9
sS'[[Tomato Juice]]'
p7
I83
sS'[[Carrot Cake]]'
p8
I88
sS'[[Vanilla Ice Cream]]'
p9
I15
sS'[[Lure]]'
p10
I16
sS'[[Carrot Pie]]'
p11
I31
sS'[[Tomato]]'
p12
I10
sS'[[Cherry Juice]]'
p13
I13
sS'[[Cheesecake]]'
p14
I37
sS'[[Fish Pie]]'
p15
I44
sS'[[Pancake]]'
p16
I43
sS'[[Popcorn]]'
p17
I85
sS'[[Goat Cheese]]'
p18
I78
sS'[[Potato Bread]]'
p19
I33
sS'[[Goat Feed]]'
p20
I61
sS'[[Red Berry Cake]]'
p21
I63
sS'[[Pizza]]'
p22
I90
sS'[[Syrup]]'
p23
I30
sS'[[Sheep Feed]]'
p24
I36
sS'[[Cherry Popsicle]]'
p25
I21
sS'[[Bacon and Eggs]]'
p26
I82
sS'[[Carrot Juice]]'
p27
I56
sS'[[Baked Potato]]'
p28
I65
sS'[[Milk]]'
p29
I46
sS'[[Apple Jam]]'
p30
I48
sS'[[Carrot]]'
p31
I11
sS'[[Blackberry]]'
p32
I72
sS'[[Cotton Shirt]]'
p33
I77
sS'[[Cream]]'
p34
I89
sS'[[Raspberry Jam]]'
p35
I68
sS'[[Cherry]]'
p36
I80
sS'[[Bread]]'
p37
I87
sS'[[Wheat]]'
p38
I28
sS'[[Casserole]]'
p39
I6
sS'[[Chili Pepper]]'
p40
I53
sS'[[Honey Popcorn]]'
p41
I26
sS'[[Honeycomb]]'
p42
I17
sS'[[Indigo]]'
p43
I51
sS'[[Raspberry]]'
p44
I54
sS'[[Chocolate Cake]]'
p45
I3
sS'[[Spicy Pizza]]'
p46
I75
sS'[[Cacao]]'
p47
I69
sS'[[Woolly Chaps]]'
p48
I34
sS'[[Honey]]'
p49
I57
sS'[[Egg]]'
p50
I41
sS'[[Strawberry Cake]]'
p51
I45
sS'[[Potato]]'
p52
I35
sS'[[Fish Burger]]'
p53
I79
sS'[[White Sugar]]'
p54
I8
sS'[[Buttered Popcorn]]'
p55
I81
sS'[[Cream Cake]]'
p56
I70
sS'[[Soybean]]'
p57
I40
sS'[[Apple]]'
p58
I62
sS'[[Blue Woolly Hat]]'
p59
I49
sS'[[Goat Milk]]'
p60
I60
sS'[[Hamburger]]'
p61
I42
sS'[[Cherry Jam]]'
p62
I1
sS"[[Shepherd's Pie]]"
p63
I27
sS'[[Brown Sugar]]'
p64
I76
sS'[[Butter]]'
p65
I20
sS'[[Bacon Pie]]'
p66
I14
sS'[[Strawberry]]'
p67
I24
sS'[[Pumpkin Pie]]'
p68
I23
sS'[[Corn]]'
p69
I73
sS'[[Fish Fillet]]'
p70
I12
sS'[[Chili Popcorn]]'
p71
I66
sS'[[Bacon]]'
p72
I0
sS'[[Cotton Fabric]]'
p73
I25
sS'[[Blue Sweater]]'
p74
I52
sS'[[Potato Feta Cake]]'
p75
I67
sS'[[Sugarcane]]'
p76
I58
sS'[[Cookie]]'
p77
I71
sS'[[Apple Juice]]'
p78
I74
sS'[[Pig Feed]]'
p79
I50
sS'[[Cotton]]'
p80
I22
sS'[[Feta Pie]]'
p81
I38
sS'[[Cheese]]'
p82
I29
sS'[[Chocolate Ice Cream]]'
p83
I2
sS'[[Chicken Feed]]'
p84
I7
sS'[[Corn Bread]]'
p85
I32
sS'[[Wool]]'
p86
I84
sS'[[Roasted Tomatoes]]'
p87
I18
sS'[[Berry Juice]]'
p88
I4
sS'[[Sweater]]'
p89
I47
sS'[[Blackberry Muffin]]'
p90
I86
sS'[[Cow Feed]]'
p91
I64
s.(dp0
S'[[Cherry Popsicle]]'
p1
I2
sS'[[Carrot Cake]]'
p2
I1
sS'[[Blackberry]]'
p3
I1
sS'[[Bacon and Eggs]]'
p4
I5
sS'[[Cookie]]'
p5
I5
sS'[[Carrot Juice]]'
p6
I5
sS'[[Baked Potato]]'
p7
I3
sS'[[Fish Pie]]'
p8
I3
sS'[[Pancake]]'
p9
I5
sS'[[Goat Cheese]]'
p10
I5
sS'[[Sugarcane]]'
p11
I1
sS'[[Raspberry]]'
p12
I0
sS"[[Shepherd's Pie]]"
p13
I1
s.