(dp0
S'[[Carrot]]'
p1
I43
sS'[[Apple Pie]]'
p2
I13
sS'[[Cacao]]'
p3
I20
sS'[[Woolly Chaps]]'
p4
I82
sS'[[Honey]]'
p5
I37
sS'[[Blackberry Jam]]'
p6
I31
sS'[[Strawberry Cake]]'
p7
I86
sS'[[Potato]]'
p8
I73
sS'[[Fish Burger]]'
p9
I30
sS'[[Tomato Juice]]'
p10
I40
sS'[[Buttered Popcorn]]'
p11
I44
sS'[[Cream Cake]]'
p12
I4
sS'[[Violet Dress]]'
p13
I89
sS'[[Soybean]]'
p14
I64
sS'[[Apple]]'
p15
I38
sS'[[Strawberry Ice Cream]]'
p16
I36
sS'[[Raspberry Muffin]]'
p17
I11
sS'[[Blue Woolly Hat]]'
p18
I57
sS'[[Goat Milk]]'
p19
I1
sS'[[Hamburger]]'
p20
I12
sS'[[White Sugar]]'
p21
I7
sS'[[Blue Sweater]]'
p22
I22
sS'[[Cherry Jam]]'
p23
I26
sS'[[Vanilla Ice Cream]]'
p24
I62
sS'[[Lure]]'
p25
I56
sS'[[Carrot Pie]]'
p26
I16
sS"[[Shepherd's Pie]]"
p27
I18
sS'[[Milk]]'
p28
I33
sS'[[Tomato]]'
p29
I53
sS'[[Cherry Juice]]'
p30
I52
sS'[[Cheesecake]]'
p31
I49
sS'[[Fish Pie]]'
p32
I46
sS'[[Butter]]'
p33
I39
sS'[[Pancake]]'
p34
I63
sS'[[Bacon Pie]]'
p35
I25
sS'[[Strawberry]]'
p36
I28
sS'[[Corn]]'
p37
I67
sS'[[Popcorn]]'
p38
I54
sS'[[Fish Fillet]]'
p39
I14
sS'[[Egg]]'
p40
I61
sS'[[Chili Popcorn]]'
p41
I35
sS'[[Goat Cheese]]'
p42
I60
sS'[[Bacon]]'
p43
I9
sS'[[Cotton Fabric]]'
p44
I70
sS'[[Potato Bread]]'
p45
I84
sS'[[Carrot Cake]]'
p46
I69
sS'[[Pumpkin Pie]]'
p47
I24
sS'[[Honey Popcorn]]'
p48
I34
sS'[[Red Berry Cake]]'
p49
I45
sS'[[Cookie]]'
p50
I81
sS'[[Pizza]]'
p51
I85
sS'[[Syrup]]'
p52
I55
sS'[[Pig Feed]]'
p53
I80
sS'[[Sheep Feed]]'
p54
I47
sS'[[Apple Juice]]'
p55
I78
sS'[[Cherry Popsicle]]'
p56
I75
sS'[[Bacon and Eggs]]'
p57
I76
sS'[[Cotton]]'
p58
I87
sS'[[Feta Pie]]'
p59
I77
sS'[[Carrot Juice]]'
p60
I74
sS'[[Baked Potato]]'
p61
I19
sS'[[Raspberry]]'
p62
I23
sS'[[Cheese]]'
p63
I90
sS'[[Chocolate Ice Cream]]'
p64
I72
sS'[[Apple Jam]]'
p65
I3
sS'[[Chicken Feed]]'
p66
I27
sS'[[Pumpkin]]'
p67
I42
sS'[[Brown Sugar]]'
p68
I50
sS'[[Blackberry]]'
p69
I15
sS'[[Corn Bread]]'
p70
I79
sS'[[Cotton Shirt]]'
p71
I29
sS'[[Honeycomb]]'
p72
I5
sS'[[Cream]]'
p73
I10
sS'[[Raspberry Jam]]'
p74
I21
sS'[[Cherry]]'
p75
I8
sS'[[Bread]]'
p76
I68
sS'[[Wheat]]'
p77
I0
sS'[[Casserole]]'
p78
I88
sS'[[Chili Pepper]]'
p79
I51
sS'[[Roasted Tomatoes]]'
p80
I71
sS'[[Potato Feta Cake]]'
p81
I65
sS'[[Sugarcane]]'
p82
I41
sS'[[Berry Juice]]'
p83
I2
sS'[[Indigo]]'
p84
I48
sS'[[Wool]]'
p85
I83
sS'[[Goat Feed]]'
p86
I17
sS'[[Sweater]]'
p87
I6
sS'[[Blackberry Muffin]]'
p88
I32
sS'[[Chocolate Cake]]'
p89
I59
sS'[[Cow Feed]]'
p90
I66
sS'[[Spicy Pizza]]'
p91
I58
s.(dp0
S'[[Cotton]]'
p1
I4
sS'[[Fish Pie]]'
p2
I5
sS'[[Honey Popcorn]]'
p3
I5
sS'[[Hamburger]]'
p4
I4
sS'[[White Sugar]]'
p5
I2
sS'[[Fish Burger]]'
p6
I1
sS'[[Apple Jam]]'
p7
I3
sS'[[Chicken Feed]]'
p8
I2
sS'[[Violet Dress]]'
p9
I4
s.