(dp0
S'[[Pumpkin]]'
p1
I67
sS'[[Blackberry Jam]]'
p2
I83
sS'[[Violet Dress]]'
p3
I80
sS'[[Strawberry Ice Cream]]'
p4
I90
sS'[[Raspberry Muffin]]'
p5
I12
sS'[[Apple Pie]]'
p6
I6
sS'[[Tomato Juice]]'
p7
I2
sS'[[Blue Sweater]]'
p8
I58
sS'[[Carrot Cake]]'
p9
I47
sS'[[Vanilla Ice Cream]]'
p10
I55
sS'[[Lure]]'
p11
I8
sS'[[Carrot Pie]]'
p12
I87
sS'[[Tomato]]'
p13
I49
sS'[[Cherry Juice]]'
p14
I5
sS'[[Cheesecake]]'
p15
I57
sS'[[Fish Pie]]'
p16
I75
sS'[[Pancake]]'
p17
I25
sS'[[Popcorn]]'
p18
I31
sS'[[Goat Cheese]]'
p19
I42
sS'[[Potato Bread]]'
p20
I50
sS'[[Goat Feed]]'
p21
I28
sS'[[Red Berry Cake]]'
p22
I76
sS'[[Pizza]]'
p23
I43
sS'[[Syrup]]'
p24
I72
sS'[[Sheep Feed]]'
p25
I88
sS'[[Cherry Popsicle]]'
p26
I89
sS'[[Bacon and Eggs]]'
p27
I85
sS'[[Carrot]]'
p28
I37
sS'[[Carrot Juice]]'
p29
I65
sS'[[Baked Potato]]'
p30
I84
sS'[[Milk]]'
p31
I1
sS'[[Apple Jam]]'
p32
I0
sS'[[Apple]]'
p33
I15
sS'[[Blackberry]]'
p34
I24
sS'[[Cotton Shirt]]'
p35
I51
sS'[[Cream]]'
p36
I16
sS'[[Raspberry Jam]]'
p37
I27
sS'[[Cherry]]'
p38
I4
sS'[[Bread]]'
p39
I29
sS'[[Wheat]]'
p40
I32
sS'[[Casserole]]'
p41
I45
sS'[[Chili Pepper]]'
p42
I35
sS'[[Honey Popcorn]]'
p43
I73
sS'[[Honeycomb]]'
p44
I52
sS'[[Indigo]]'
p45
I18
sS'[[Raspberry]]'
p46
I63
sS'[[Chocolate Cake]]'
p47
I14
sS'[[Spicy Pizza]]'
p48
I77
sS'[[Cacao]]'
p49
I23
sS'[[Woolly Chaps]]'
p50
I26
sS'[[Honey]]'
p51
I81
sS'[[Egg]]'
p52
I11
sS'[[Strawberry Cake]]'
p53
I44
sS'[[Potato]]'
p54
I62
sS'[[Fish Burger]]'
p55
I34
sS'[[White Sugar]]'
p56
I36
sS'[[Buttered Popcorn]]'
p57
I48
sS'[[Cream Cake]]'
p58
I59
sS'[[Soybean]]'
p59
I82
sS'[[Brown Sugar]]'
p60
I61
sS'[[Blue Woolly Hat]]'
p61
I40
sS'[[Goat Milk]]'
p62
I19
sS'[[Hamburger]]'
p63
I70
sS'[[Cherry Jam]]'
p64
I39
sS"[[Shepherd's Pie]]"
p65
I41
sS'[[Butter]]'
p66
I33
sS'[[Bacon Pie]]'
p67
I21
sS'[[Strawberry]]'
p68
I60
sS'[[Corn]]'
p69
I9
sS'[[Fish Fillet]]'
p70
I13
sS'[[Chili Popcorn]]'
p71
I56
sS'[[Bacon]]'
p72
I7
sS'[[Cotton Fabric]]'
p73
I71
sS'[[Pumpkin Pie]]'
p74
I69
sS'[[Potato Feta Cake]]'
p75
I86
sS'[[Sugarcane]]'
p76
I78
sS'[[Cookie]]'
p77
I17
sS'[[Apple Juice]]'
p78
I64
sS'[[Pig Feed]]'
p79
I54
sS'[[Cotton]]'
p80
I3
sS'[[Feta Pie]]'
p81
I20
sS'[[Cheese]]'
p82
I79
sS'[[Chocolate Ice Cream]]'
p83
I53
sS'[[Chicken Feed]]'
p84
I30
sS'[[Corn Bread]]'
p85
I22
sS'[[Wool]]'
p86
I38
sS'[[Roasted Tomatoes]]'
p87
I66
sS'[[Berry Juice]]'
p88
I10
sS'[[Sweater]]'
p89
I46
sS'[[Blackberry Muffin]]'
p90
I74
sS'[[Cow Feed]]'
p91
I68
s.(dp0
S'[[Blue Sweater]]'
p1
I5
sS'[[Honey Popcorn]]'
p2
I4
sS'[[Cheesecake]]'
p3
I4
sS'[[Woolly Chaps]]'
p4
I3
sS'[[Fish Pie]]'
p5
I2
sS'[[Apple Pie]]'
p6
I3
sS'[[Feta Pie]]'
p7
I4
sS'[[Cotton Shirt]]'
p8
I3
sS'[[Tomato Juice]]'
p9
I0
sS'[[Pancake]]'
p10
I4
sS'[[Cream]]'
p11
I4
sS'[[Buttered Popcorn]]'
p12
I5
sS'[[Apple Jam]]'
p13
I4
sS'[[Potato Bread]]'
p14
I5
sS'[[Chili Pepper]]'
p15
I5
s.