(dp0
S'[[Pumpkin]]'
p1
I12
sS'[[Blackberry Jam]]'
p2
I58
sS'[[Violet Dress]]'
p3
I17
sS'[[Strawberry Ice Cream]]'
p4
I3
sS'[[Raspberry Muffin]]'
p5
I36
sS'[[Apple Pie]]'
p6
I90
sS'[[Tomato Juice]]'
p7
I67
sS'[[Blue Sweater]]'
p8
I8
sS'[[Honey]]'
p9
I89
sS'[[Vanilla Ice Cream]]'
p10
I82
sS'[[Lure]]'
p11
I78
sS'[[Carrot Pie]]'
p12
I54
sS'[[Tomato]]'
p13
I11
sS'[[Potato]]'
p14
I1
sS'[[Cheesecake]]'
p15
I7
sS'[[Fish Pie]]'
p16
I50
sS'[[Pancake]]'
p17
I64
sS'[[Popcorn]]'
p18
I35
sS'[[Goat Cheese]]'
p19
I72
sS'[[Potato Bread]]'
p20
I60
sS'[[Goat Feed]]'
p21
I33
sS'[[Red Berry Cake]]'
p22
I79
sS'[[Pizza]]'
p23
I9
sS'[[Syrup]]'
p24
I29
sS'[[Sheep Feed]]'
p25
I13
sS'[[Cherry Popsicle]]'
p26
I73
sS'[[Bacon and Eggs]]'
p27
I25
sS'[[Carrot]]'
p28
I69
sS'[[Carrot Juice]]'
p29
I27
sS'[[Baked Potato]]'
p30
I14
sS'[[Milk]]'
p31
I66
sS'[[Apple Jam]]'
p32
I30
sS'[[Apple]]'
p33
I4
sS'[[Blackberry]]'
p34
I81
sS'[[Cotton Shirt]]'
p35
I80
sS'[[Cream]]'
p36
I62
sS'[[Raspberry Jam]]'
p37
I68
sS'[[Cherry]]'
p38
I55
sS'[[Bread]]'
p39
I16
sS'[[Wheat]]'
p40
I20
sS'[[Casserole]]'
p41
I74
sS'[[Strawberry]]'
p42
I44
sS'[[Honey Popcorn]]'
p43
I39
sS'[[Honeycomb]]'
p44
I24
sS'[[Indigo]]'
p45
I31
sS'[[Raspberry]]'
p46
I21
sS'[[Chocolate Cake]]'
p47
I6
sS'[[Spicy Pizza]]'
p48
I56
sS'[[Cacao]]'
p49
I84
sS'[[Woolly Chaps]]'
p50
I10
sS'[[Carrot Cake]]'
p51
I70
sS'[[Egg]]'
p52
I71
sS'[[Strawberry Cake]]'
p53
I75
sS'[[Cherry Juice]]'
p54
I34
sS'[[Fish Burger]]'
p55
I41
sS'[[White Sugar]]'
p56
I15
sS'[[Buttered Popcorn]]'
p57
I76
sS'[[Cream Cake]]'
p58
I42
sS'[[Soybean]]'
p59
I48
sS'[[Brown Sugar]]'
p60
I19
sS'[[Blue Woolly Hat]]'
p61
I22
sS'[[Goat Milk]]'
p62
I83
sS'[[Hamburger]]'
p63
I63
sS'[[Cherry Jam]]'
p64
I59
sS"[[Shepherd's Pie]]"
p65
I77
sS'[[Butter]]'
p66
I32
sS'[[Bacon Pie]]'
p67
I61
sS'[[Chili Pepper]]'
p68
I18
sS'[[Corn]]'
p69
I65
sS'[[Fish Fillet]]'
p70
I47
sS'[[Chili Popcorn]]'
p71
I2
sS'[[Bacon]]'
p72
I5
sS'[[Cotton Fabric]]'
p73
I46
sS'[[Pumpkin Pie]]'
p74
I38
sS'[[Potato Feta Cake]]'
p75
I85
sS'[[Sugarcane]]'
p76
I87
sS'[[Cookie]]'
p77
I40
sS'[[Apple Juice]]'
p78
I86
sS'[[Pig Feed]]'
p79
I37
sS'[[Cotton]]'
p80
I53
sS'[[Feta Pie]]'
p81
I23
sS'[[Cheese]]'
p82
I88
sS'[[Chocolate Ice Cream]]'
p83
I45
sS'[[Chicken Feed]]'
p84
I51
sS'[[Corn Bread]]'
p85
I52
sS'[[Wool]]'
p86
I26
sS'[[Roasted Tomatoes]]'
p87
I49
sS'[[Berry Juice]]'
p88
I0
sS'[[Sweater]]'
p89
I57
sS'[[Blackberry Muffin]]'
p90
I28
sS'[[Cow Feed]]'
p91
I43
s.(dp0
S'[[Potato Feta Cake]]'
p1
I2
sS'[[Cheesecake]]'
p2
I3
sS'[[Fish Pie]]'
p3
I3
sS'[[Corn Bread]]'
p4
I5
sS'[[Goat Milk]]'
p5
I5
sS'[[Hamburger]]'
p6
I4
sS'[[Berry Juice]]'
p7
I3
sS'[[Blackberry Muffin]]'
p8
I2
sS'[[Cotton Fabric]]'
p9
I4
sS'[[Apple Jam]]'
p10
I4
sS"[[Shepherd's Pie]]"
p11
I0
sS'[[Bacon and Eggs]]'
p12
I3
sS'[[Cotton]]'
p13
I0
s.