(dp0
S'[[Pumpkin]]'
p1
I66
sS'[[Blackberry Jam]]'
p2
I15
sS'[[Violet Dress]]'
p3
I2
sS'[[Strawberry Ice Cream]]'
p4
I3
sS'[[Raspberry Muffin]]'
p5
I10
sS'[[Apple Pie]]'
p6
I86
sS'[[Tomato Juice]]'
p7
I23
sS'[[Carrot Cake]]'
p8
I83
sS'[[Vanilla Ice Cream]]'
p9
I29
sS'[[Lure]]'
p10
I79
sS'[[Carrot Pie]]'
p11
I68
sS'[[Tomato]]'
p12
I53
sS'[[Cherry Juice]]'
p13
I75
sS'[[Cheesecake]]'
p14
I50
sS'[[Fish Pie]]'
p15
I74
sS'[[Pancake]]'
p16
I12
sS'[[Popcorn]]'
p17
I45
sS'[[Goat Cheese]]'
p18
I57
sS'[[Potato Bread]]'
p19
I64
sS'[[Goat Feed]]'
p20
I34
sS'[[Red Berry Cake]]'
p21
I21
sS'[[Pizza]]'
p22
I58
sS'[[Syrup]]'
p23
I30
sS'[[Sheep Feed]]'
p24
I70
sS'[[Cherry Popsicle]]'
p25
I56
sS'[[Bacon and Eggs]]'
p26
I19
sS'[[Carrot Juice]]'
p27
I39
sS'[[Baked Potato]]'
p28
I38
sS'[[Milk]]'
p29
I42
sS'[[Apple Jam]]'
p30
I48
sS'[[Carrot]]'
p31
I52
sS'[[Blackberry]]'
p32
I25
sS'[[Cotton Shirt]]'
p33
I33
sS'[[Cream]]'
p34
I9
sS'[[Raspberry Jam]]'
p35
I46
sS'[[Cherry]]'
p36
I16
sS'[[Bread]]'
p37
I82
sS'[[Wheat]]'
p38
I87
sS'[[Casserole]]'
p39
I32
sS'[[Chili Pepper]]'
p40
I41
sS'[[Honey Popcorn]]'
p41
I73
sS'[[Honeycomb]]'
p42
I28
sS'[[Indigo]]'
p43
I24
sS'[[Raspberry]]'
p44
I69
sS'[[Chocolate Cake]]'
p45
I4
sS'[[Spicy Pizza]]'
p46
I13
sS'[[Cacao]]'
p47
I5
sS'[[Woolly Chaps]]'
p48
I44
sS'[[Honey]]'
p49
I6
sS'[[Egg]]'
p50
I11
sS'[[Strawberry Cake]]'
p51
I18
sS'[[Potato]]'
p52
I90
sS'[[Fish Burger]]'
p53
I77
sS'[[White Sugar]]'
p54
I14
sS'[[Buttered Popcorn]]'
p55
I59
sS'[[Cream Cake]]'
p56
I40
sS'[[Soybean]]'
p57
I37
sS'[[Apple]]'
p58
I61
sS'[[Blue Woolly Hat]]'
p59
I85
sS'[[Goat Milk]]'
p60
I27
sS'[[Hamburger]]'
p61
I80
sS'[[Cherry Jam]]'
p62
I43
sS"[[Shepherd's Pie]]"
p63
I67
sS'[[Brown Sugar]]'
p64
I49
sS'[[Butter]]'
p65
I7
sS'[[Bacon Pie]]'
p66
I72
sS'[[Strawberry]]'
p67
I1
sS'[[Pumpkin Pie]]'
p68
I26
sS'[[Corn]]'
p69
I88
sS'[[Fish Fillet]]'
p70
I22
sS'[[Chili Popcorn]]'
p71
I78
sS'[[Sugarcane]]'
p72
I17
sS'[[Cotton Fabric]]'
p73
I20
sS'[[Blue Sweater]]'
p74
I60
sS'[[Potato Feta Cake]]'
p75
I8
sS'[[Cookie]]'
p76
I51
sS'[[Apple Juice]]'
p77
I0
sS'[[Pig Feed]]'
p78
I89
sS'[[Cotton]]'
p79
I47
sS'[[Feta Pie]]'
p80
I54
sS'[[Cheese]]'
p81
I35
sS'[[Chocolate Ice Cream]]'
p82
I65
sS'[[Bacon]]'
p83
I63
sS'[[Chicken Feed]]'
p84
I71
sS'[[Corn Bread]]'
p85
I84
sS'[[Wool]]'
p86
I81
sS'[[Roasted Tomatoes]]'
p87
I55
sS'[[Berry Juice]]'
p88
I31
sS'[[Sweater]]'
p89
I36
sS'[[Blackberry Muffin]]'
p90
I76
sS'[[Cow Feed]]'
p91
I62
s.(dp0
S'[[Blue Sweater]]'
p1
I5
sS"[[Shepherd's Pie]]"
p2
I1
sS'[[Apple]]'
p3
I5
sS'[[Cherry Popsicle]]'
p4
I4
sS'[[Fish Pie]]'
p5
I2
sS'[[Baked Potato]]'
p6
I1
sS'[[Blackberry Muffin]]'
p7
I4
sS'[[Indigo]]'
p8
I2
sS'[[Pizza]]'
p9
I1
sS'[[Honey Popcorn]]'
p10
I4
s.