(dp0
S'[[Pumpkin]]'
p1
I48
sS'[[Carrot Pie]]'
p2
I82
sS'[[Violet Dress]]'
p3
I39
sS'[[Strawberry Ice Cream]]'
p4
I54
sS'[[Raspberry Muffin]]'
p5
I24
sS'[[Woolly Chaps]]'
p6
I15
sS'[[Tomato Juice]]'
p7
I67
sS'[[Honey]]'
p8
I3
sS'[[Vanilla Ice Cream]]'
p9
I38
sS'[[Lure]]'
p10
I13
sS'[[Blackberry Jam]]'
p11
I12
sS'[[Tomato]]'
p12
I6
sS'[[Potato]]'
p13
I40
sS'[[Cheesecake]]'
p14
I61
sS'[[Fish Pie]]'
p15
I29
sS'[[Pancake]]'
p16
I83
sS'[[Popcorn]]'
p17
I31
sS'[[Goat Cheese]]'
p18
I62
sS'[[Potato Bread]]'
p19
I80
sS'[[Goat Feed]]'
p20
I1
sS'[[Red Berry Cake]]'
p21
I23
sS'[[Pizza]]'
p22
I60
sS'[[Syrup]]'
p23
I5
sS'[[Sheep Feed]]'
p24
I9
sS'[[Cherry Popsicle]]'
p25
I70
sS'[[Bacon and Eggs]]'
p26
I85
sS'[[Carrot Juice]]'
p27
I55
sS'[[Baked Potato]]'
p28
I90
sS'[[Milk]]'
p29
I89
sS'[[Apple Jam]]'
p30
I59
sS'[[Carrot]]'
p31
I66
sS'[[Blackberry]]'
p32
I50
sS'[[Cotton Shirt]]'
p33
I18
sS'[[Cream]]'
p34
I47
sS'[[Raspberry Jam]]'
p35
I76
sS'[[Cherry]]'
p36
I44
sS'[[Bread]]'
p37
I41
sS'[[Wheat]]'
p38
I8
sS'[[Casserole]]'
p39
I4
sS'[[Strawberry]]'
p40
I43
sS'[[Potato Feta Cake]]'
p41
I22
sS'[[Spicy Pizza]]'
p42
I30
sS'[[Indigo]]'
p43
I0
sS'[[Raspberry]]'
p44
I52
sS'[[Chocolate Cake]]'
p45
I36
sS'[[Apple Pie]]'
p46
I68
sS'[[Cacao]]'
p47
I65
sS'[[Blue Sweater]]'
p48
I20
sS'[[Carrot Cake]]'
p49
I81
sS'[[Egg]]'
p50
I34
sS'[[Strawberry Cake]]'
p51
I7
sS'[[Cherry Juice]]'
p52
I77
sS'[[Fish Burger]]'
p53
I84
sS'[[White Sugar]]'
p54
I45
sS'[[Buttered Popcorn]]'
p55
I35
sS'[[Cream Cake]]'
p56
I71
sS'[[Soybean]]'
p57
I25
sS'[[Brown Sugar]]'
p58
I14
sS'[[Blue Woolly Hat]]'
p59
I32
sS'[[Goat Milk]]'
p60
I27
sS'[[Hamburger]]'
p61
I21
sS'[[Cherry Jam]]'
p62
I10
sS"[[Shepherd's Pie]]"
p63
I11
sS'[[Apple]]'
p64
I73
sS'[[Butter]]'
p65
I86
sS'[[Bacon Pie]]'
p66
I51
sS'[[Chili Pepper]]'
p67
I49
sS'[[Corn]]'
p68
I88
sS'[[Fish Fillet]]'
p69
I42
sS'[[Chili Popcorn]]'
p70
I19
sS'[[Bacon]]'
p71
I74
sS'[[Cotton Fabric]]'
p72
I69
sS'[[Pumpkin Pie]]'
p73
I56
sS'[[Honey Popcorn]]'
p74
I37
sS'[[Sugarcane]]'
p75
I53
sS'[[Cookie]]'
p76
I87
sS'[[Apple Juice]]'
p77
I33
sS'[[Pig Feed]]'
p78
I46
sS'[[Cotton]]'
p79
I28
sS'[[Feta Pie]]'
p80
I26
sS'[[Cheese]]'
p81
I2
sS'[[Chocolate Ice Cream]]'
p82
I16
sS'[[Chicken Feed]]'
p83
I17
sS'[[Corn Bread]]'
p84
I75
sS'[[Honeycomb]]'
p85
I63
sS'[[Wool]]'
p86
I78
sS'[[Roasted Tomatoes]]'
p87
I58
sS'[[Berry Juice]]'
p88
I57
sS'[[Sweater]]'
p89
I64
sS'[[Blackberry Muffin]]'
p90
I79
sS'[[Cow Feed]]'
p91
I72
s.(dp0
S'[[Brown Sugar]]'
p1
I1
sS'[[Potato Feta Cake]]'
p2
I5
sS'[[Chili Pepper]]'
p3
I4
sS'[[Woolly Chaps]]'
p4
I5
sS'[[Blackberry Jam]]'
p5
I2
sS'[[Apple Pie]]'
p6
I5
sS'[[Chili Popcorn]]'
p7
I5
sS'[[Lure]]'
p8
I3
sS'[[Cotton Fabric]]'
p9
I3
sS'[[Raspberry Muffin]]'
p10
I4
s.