(dp0
S'[[Pumpkin]]'
p1
I11
sS'[[Blackberry Jam]]'
p2
I39
sS'[[Violet Dress]]'
p3
I8
sS'[[Strawberry Ice Cream]]'
p4
I35
sS'[[Raspberry Muffin]]'
p5
I50
sS'[[Apple Pie]]'
p6
I71
sS'[[Tomato Juice]]'
p7
I57
sS'[[Blue Sweater]]'
p8
I63
sS'[[Honey]]'
p9
I29
sS'[[Vanilla Ice Cream]]'
p10
I58
sS'[[Lure]]'
p11
I2
sS'[[Carrot Pie]]'
p12
I66
sS'[[Tomato]]'
p13
I53
sS'[[Potato]]'
p14
I52
sS'[[Cheesecake]]'
p15
I19
sS'[[Fish Pie]]'
p16
I22
sS'[[Pancake]]'
p17
I25
sS'[[Popcorn]]'
p18
I68
sS'[[Goat Cheese]]'
p19
I77
sS'[[Potato Bread]]'
p20
I33
sS'[[Goat Feed]]'
p21
I48
sS'[[Red Berry Cake]]'
p22
I3
sS'[[Pizza]]'
p23
I6
sS'[[Syrup]]'
p24
I59
sS'[[Sheep Feed]]'
p25
I62
sS'[[Cherry Popsicle]]'
p26
I65
sS'[[Bacon and Eggs]]'
p27
I18
sS'[[Carrot]]'
p28
I75
sS'[[Carrot Juice]]'
p29
I88
sS'[[Baked Potato]]'
p30
I10
sS'[[Milk]]'
p31
I82
sS'[[Apple Jam]]'
p32
I34
sS'[[Apple]]'
p33
I51
sS'[[Blackberry]]'
p34
I21
sS'[[Cotton Shirt]]'
p35
I7
sS'[[Cream]]'
p36
I41
sS'[[Raspberry Jam]]'
p37
I32
sS'[[Cherry]]'
p38
I23
sS'[[Bread]]'
p39
I31
sS'[[Wheat]]'
p40
I54
sS'[[Casserole]]'
p41
I40
sS'[[Strawberry]]'
p42
I37
sS'[[Honey Popcorn]]'
p43
I60
sS'[[Honeycomb]]'
p44
I49
sS'[[Indigo]]'
p45
I69
sS'[[Raspberry]]'
p46
I38
sS'[[Chocolate Cake]]'
p47
I78
sS'[[Spicy Pizza]]'
p48
I84
sS'[[Cacao]]'
p49
I87
sS'[[Woolly Chaps]]'
p50
I85
sS'[[Carrot Cake]]'
p51
I15
sS'[[Egg]]'
p52
I56
sS'[[Strawberry Cake]]'
p53
I83
sS'[[Cherry Juice]]'
p54
I64
sS'[[Fish Burger]]'
p55
I16
sS'[[White Sugar]]'
p56
I14
sS'[[Buttered Popcorn]]'
p57
I42
sS'[[Cream Cake]]'
p58
I13
sS'[[Soybean]]'
p59
I43
sS'[[Brown Sugar]]'
p60
I89
sS'[[Blue Woolly Hat]]'
p61
I5
sS'[[Goat Milk]]'
p62
I9
sS'[[Hamburger]]'
p63
I45
sS'[[Cherry Jam]]'
p64
I90
sS"[[Shepherd's Pie]]"
p65
I0
sS'[[Butter]]'
p66
I61
sS'[[Bacon Pie]]'
p67
I12
sS'[[Chili Pepper]]'
p68
I80
sS'[[Corn]]'
p69
I47
sS'[[Fish Fillet]]'
p70
I36
sS'[[Chili Popcorn]]'
p71
I73
sS'[[Bacon]]'
p72
I74
sS'[[Cotton Fabric]]'
p73
I30
sS'[[Pumpkin Pie]]'
p74
I79
sS'[[Potato Feta Cake]]'
p75
I72
sS'[[Sugarcane]]'
p76
I76
sS'[[Cookie]]'
p77
I70
sS'[[Apple Juice]]'
p78
I28
sS'[[Pig Feed]]'
p79
I27
sS'[[Cotton]]'
p80
I24
sS'[[Feta Pie]]'
p81
I81
sS'[[Cheese]]'
p82
I17
sS'[[Chocolate Ice Cream]]'
p83
I4
sS'[[Chicken Feed]]'
p84
I20
sS'[[Corn Bread]]'
p85
I26
sS'[[Wool]]'
p86
I44
sS'[[Roasted Tomatoes]]'
p87
I86
sS'[[Berry Juice]]'
p88
I67
sS'[[Sweater]]'
p89
I46
sS'[[Blackberry Muffin]]'
p90
I55
sS'[[Cow Feed]]'
p91
I1
s.(dp0
S'[[Potato Bread]]'
p1
I2
sS'[[Cheesecake]]'
p2
I3
sS'[[Roasted Tomatoes]]'
p3
I4
sS'[[Carrot Pie]]'
p4
I1
sS'[[Honey Popcorn]]'
p5
I4
sS'[[Cotton Shirt]]'
p6
I4
sS'[[Vanilla Ice Cream]]'
p7
I4
sS'[[Buttered Popcorn]]'
p8
I1
sS'[[Chicken Feed]]'
p9
I5
s.