(dp0
S'[[Pumpkin]]'
p1
I43
sS'[[Blackberry Jam]]'
p2
I61
sS'[[Violet Dress]]'
p3
I50
sS'[[Strawberry Ice Cream]]'
p4
I7
sS'[[Raspberry Muffin]]'
p5
I88
sS'[[Apple Pie]]'
p6
I63
sS'[[Tomato Juice]]'
p7
I37
sS'[[Carrot Cake]]'
p8
I27
sS'[[Vanilla Ice Cream]]'
p9
I15
sS'[[Lure]]'
p10
I34
sS'[[Carrot Pie]]'
p11
I71
sS'[[Tomato]]'
p12
I16
sS'[[Cherry Juice]]'
p13
I72
sS'[[Cheesecake]]'
p14
I5
sS'[[Fish Pie]]'
p15
I26
sS'[[Pancake]]'
p16
I55
sS'[[Popcorn]]'
p17
I56
sS'[[Goat Cheese]]'
p18
I60
sS'[[Potato Bread]]'
p19
I17
sS'[[Goat Feed]]'
p20
I81
sS'[[Red Berry Cake]]'
p21
I18
sS'[[Pizza]]'
p22
I59
sS'[[Syrup]]'
p23
I70
sS'[[Sheep Feed]]'
p24
I57
sS'[[Cherry Popsicle]]'
p25
I73
sS'[[Bacon and Eggs]]'
p26
I29
sS'[[Carrot Juice]]'
p27
I51
sS'[[Baked Potato]]'
p28
I82
sS'[[Milk]]'
p29
I33
sS'[[Apple Jam]]'
p30
I10
sS'[[Carrot]]'
p31
I21
sS'[[Blackberry]]'
p32
I86
sS'[[Cotton Shirt]]'
p33
I49
sS'[[Cream]]'
p34
I25
sS'[[Raspberry Jam]]'
p35
I69
sS'[[Cherry]]'
p36
I0
sS'[[Bread]]'
p37
I47
sS'[[Wheat]]'
p38
I42
sS'[[Casserole]]'
p39
I53
sS'[[Chili Pepper]]'
p40
I19
sS'[[Honey Popcorn]]'
p41
I52
sS'[[Honeycomb]]'
p42
I4
sS'[[Indigo]]'
p43
I30
sS'[[Raspberry]]'
p44
I8
sS'[[Chocolate Cake]]'
p45
I24
sS'[[Spicy Pizza]]'
p46
I41
sS'[[Cacao]]'
p47
I48
sS'[[Woolly Chaps]]'
p48
I68
sS'[[Honey]]'
p49
I40
sS'[[Egg]]'
p50
I11
sS'[[Strawberry Cake]]'
p51
I22
sS'[[Potato]]'
p52
I79
sS'[[Fish Burger]]'
p53
I85
sS'[[White Sugar]]'
p54
I1
sS'[[Buttered Popcorn]]'
p55
I32
sS'[[Cream Cake]]'
p56
I66
sS'[[Soybean]]'
p57
I74
sS'[[Apple]]'
p58
I65
sS'[[Blue Woolly Hat]]'
p59
I44
sS'[[Goat Milk]]'
p60
I12
sS'[[Hamburger]]'
p61
I38
sS'[[Cherry Jam]]'
p62
I62
sS"[[Shepherd's Pie]]"
p63
I45
sS'[[Brown Sugar]]'
p64
I28
sS'[[Butter]]'
p65
I78
sS'[[Bacon Pie]]'
p66
I35
sS'[[Strawberry]]'
p67
I76
sS'[[Pumpkin Pie]]'
p68
I9
sS'[[Corn]]'
p69
I54
sS'[[Fish Fillet]]'
p70
I90
sS'[[Chili Popcorn]]'
p71
I6
sS'[[Sugarcane]]'
p72
I3
sS'[[Cotton Fabric]]'
p73
I58
sS'[[Blue Sweater]]'
p74
I13
sS'[[Potato Feta Cake]]'
p75
I64
sS'[[Cookie]]'
p76
I75
sS'[[Apple Juice]]'
p77
I14
sS'[[Pig Feed]]'
p78
I84
sS'[[Cotton]]'
p79
I31
sS'[[Feta Pie]]'
p80
I83
sS'[[Cheese]]'
p81
I46
sS'[[Chocolate Ice Cream]]'
p82
I77
sS'[[Bacon]]'
p83
I2
sS'[[Chicken Feed]]'
p84
I80
sS'[[Corn Bread]]'
p85
I39
sS'[[Wool]]'
p86
I20
sS'[[Roasted Tomatoes]]'
p87
I36
sS'[[Berry Juice]]'
p88
I89
sS'[[Sweater]]'
p89
I67
sS'[[Blackberry Muffin]]'
p90
I23
sS'[[Cow Feed]]'
p91
I87
s.(dp0
S'[[Pumpkin Pie]]'
p1
I5
sS'[[Blackberry]]'
p2
I0
sS'[[Hamburger]]'
p3
I5
sS'[[Baked Potato]]'
p4
I5
sS'[[Cherry Jam]]'
p5
I0
sS'[[Chocolate Cake]]'
p6
I5
sS'[[Cherry]]'
p7
I1
sS'[[Chicken Feed]]'
p8
I3
sS'[[Violet Dress]]'
p9
I5
s.