(dp0
S'[[Pumpkin]]'
p1
I60
sS'[[Blackberry Jam]]'
p2
I16
sS'[[Violet Dress]]'
p3
I73
sS'[[Strawberry Ice Cream]]'
p4
I75
sS'[[Raspberry Muffin]]'
p5
I13
sS'[[Apple Pie]]'
p6
I82
sS'[[Tomato Juice]]'
p7
I46
sS'[[Blue Sweater]]'
p8
I2
sS'[[Honey]]'
p9
I83
sS'[[Vanilla Ice Cream]]'
p10
I48
sS'[[Lure]]'
p11
I74
sS'[[Carrot Pie]]'
p12
I64
sS'[[Tomato]]'
p13
I57
sS'[[Potato]]'
p14
I70
sS'[[Cheesecake]]'
p15
I6
sS'[[Fish Pie]]'
p16
I5
sS'[[Pancake]]'
p17
I14
sS'[[Popcorn]]'
p18
I66
sS'[[Goat Cheese]]'
p19
I40
sS'[[Potato Bread]]'
p20
I90
sS'[[Goat Feed]]'
p21
I76
sS'[[Red Berry Cake]]'
p22
I51
sS'[[Pizza]]'
p23
I52
sS'[[Syrup]]'
p24
I41
sS'[[Sheep Feed]]'
p25
I35
sS'[[Cherry Popsicle]]'
p26
I29
sS'[[Bacon and Eggs]]'
p27
I68
sS'[[Carrot]]'
p28
I24
sS'[[Carrot Juice]]'
p29
I25
sS'[[Baked Potato]]'
p30
I86
sS'[[Milk]]'
p31
I12
sS'[[Apple Jam]]'
p32
I62
sS'[[Apple]]'
p33
I59
sS'[[Blackberry]]'
p34
I8
sS'[[Cotton Shirt]]'
p35
I63
sS'[[Cream]]'
p36
I22
sS'[[Raspberry Jam]]'
p37
I50
sS'[[Cherry]]'
p38
I67
sS'[[Bread]]'
p39
I26
sS'[[Wheat]]'
p40
I11
sS'[[Casserole]]'
p41
I15
sS'[[Strawberry]]'
p42
I30
sS'[[Honey Popcorn]]'
p43
I19
sS'[[Honeycomb]]'
p44
I31
sS'[[Indigo]]'
p45
I72
sS'[[Raspberry]]'
p46
I89
sS'[[Chocolate Cake]]'
p47
I42
sS'[[Spicy Pizza]]'
p48
I84
sS'[[Cacao]]'
p49
I56
sS'[[Woolly Chaps]]'
p50
I38
sS'[[Carrot Cake]]'
p51
I1
sS'[[Egg]]'
p52
I20
sS'[[Strawberry Cake]]'
p53
I27
sS'[[Cherry Juice]]'
p54
I10
sS'[[Fish Burger]]'
p55
I55
sS'[[White Sugar]]'
p56
I44
sS'[[Buttered Popcorn]]'
p57
I49
sS'[[Cream Cake]]'
p58
I4
sS'[[Soybean]]'
p59
I69
sS'[[Brown Sugar]]'
p60
I37
sS'[[Blue Woolly Hat]]'
p61
I58
sS'[[Goat Milk]]'
p62
I45
sS'[[Hamburger]]'
p63
I71
sS'[[Cherry Jam]]'
p64
I17
sS"[[Shepherd's Pie]]"
p65
I65
sS'[[Butter]]'
p66
I87
sS'[[Bacon Pie]]'
p67
I34
sS'[[Chili Pepper]]'
p68
I43
sS'[[Corn]]'
p69
I36
sS'[[Fish Fillet]]'
p70
I85
sS'[[Chili Popcorn]]'
p71
I9
sS'[[Bacon]]'
p72
I3
sS'[[Cotton Fabric]]'
p73
I77
sS'[[Pumpkin Pie]]'
p74
I78
sS'[[Potato Feta Cake]]'
p75
I21
sS'[[Sugarcane]]'
p76
I47
sS'[[Cookie]]'
p77
I18
sS'[[Apple Juice]]'
p78
I81
sS'[[Pig Feed]]'
p79
I61
sS'[[Cotton]]'
p80
I39
sS'[[Feta Pie]]'
p81
I33
sS'[[Cheese]]'
p82
I7
sS'[[Chocolate Ice Cream]]'
p83
I79
sS'[[Chicken Feed]]'
p84
I80
sS'[[Corn Bread]]'
p85
I28
sS'[[Wool]]'
p86
I53
sS'[[Roasted Tomatoes]]'
p87
I23
sS'[[Berry Juice]]'
p88
I32
sS'[[Sweater]]'
p89
I0
sS'[[Blackberry Muffin]]'
p90
I54
sS'[[Cow Feed]]'
p91
I88
s.(dp0
S'[[Sheep Feed]]'
p1
I1
sS'[[Corn]]'
p2
I3
sS'[[Chicken Feed]]'
p3
I4
sS'[[Chili Pepper]]'
p4
I5
sS'[[Cherry Popsicle]]'
p5
I2
sS'[[Bacon and Eggs]]'
p6
I5
sS'[[Honey Popcorn]]'
p7
I1
sS'[[Baked Potato]]'
p8
I5
sS'[[Sugarcane]]'
p9
I5
sS'[[Cheese]]'
p10
I0
sS'[[Raspberry Jam]]'
p11
I1
sS'[[Pizza]]'
p12
I5
sS'[[Potato Feta Cake]]'
p13
I2
s.