(dp0
S'[[Pumpkin]]'
p1
I46
sS'[[Carrot Pie]]'
p2
I63
sS'[[Violet Dress]]'
p3
I15
sS'[[Strawberry Ice Cream]]'
p4
I50
sS'[[Raspberry Muffin]]'
p5
I31
sS'[[Woolly Chaps]]'
p6
I34
sS'[[Tomato Juice]]'
p7
I60
sS'[[Honey]]'
p8
I80
sS'[[Vanilla Ice Cream]]'
p9
I9
sS'[[Lure]]'
p10
I43
sS'[[Blackberry Jam]]'
p11
I2
sS'[[Tomato]]'
p12
I51
sS'[[Potato]]'
p13
I62
sS'[[Cheesecake]]'
p14
I68
sS'[[Fish Pie]]'
p15
I74
sS'[[Pancake]]'
p16
I44
sS'[[Popcorn]]'
p17
I3
sS'[[Goat Cheese]]'
p18
I88
sS'[[Potato Bread]]'
p19
I21
sS'[[Goat Feed]]'
p20
I41
sS'[[Red Berry Cake]]'
p21
I84
sS'[[Pizza]]'
p22
I86
sS'[[Syrup]]'
p23
I76
sS'[[Sheep Feed]]'
p24
I72
sS'[[Cherry Popsicle]]'
p25
I37
sS'[[Bacon and Eggs]]'
p26
I16
sS'[[Carrot Juice]]'
p27
I87
sS'[[Baked Potato]]'
p28
I26
sS'[[Milk]]'
p29
I89
sS'[[Apple Jam]]'
p30
I18
sS'[[Carrot]]'
p31
I11
sS'[[Blackberry]]'
p32
I57
sS'[[Cotton Shirt]]'
p33
I30
sS'[[Cream]]'
p34
I23
sS'[[Raspberry Jam]]'
p35
I81
sS'[[Cherry]]'
p36
I56
sS'[[Bread]]'
p37
I83
sS'[[Wheat]]'
p38
I5
sS'[[Casserole]]'
p39
I42
sS'[[Strawberry]]'
p40
I32
sS'[[Potato Feta Cake]]'
p41
I79
sS'[[Spicy Pizza]]'
p42
I66
sS'[[Indigo]]'
p43
I58
sS'[[Raspberry]]'
p44
I25
sS'[[Chocolate Cake]]'
p45
I29
sS'[[Apple Pie]]'
p46
I85
sS'[[Cacao]]'
p47
I17
sS'[[Blue Sweater]]'
p48
I10
sS'[[Carrot Cake]]'
p49
I90
sS'[[Egg]]'
p50
I35
sS'[[Strawberry Cake]]'
p51
I69
sS'[[Cherry Juice]]'
p52
I20
sS'[[Fish Burger]]'
p53
I8
sS'[[White Sugar]]'
p54
I49
sS'[[Buttered Popcorn]]'
p55
I19
sS'[[Cream Cake]]'
p56
I7
sS'[[Soybean]]'
p57
I22
sS'[[Brown Sugar]]'
p58
I71
sS'[[Blue Woolly Hat]]'
p59
I1
sS'[[Goat Milk]]'
p60
I4
sS'[[Hamburger]]'
p61
I27
sS'[[Cherry Jam]]'
p62
I77
sS"[[Shepherd's Pie]]"
p63
I52
sS'[[Apple]]'
p64
I40
sS'[[Butter]]'
p65
I82
sS'[[Bacon Pie]]'
p66
I47
sS'[[Chili Pepper]]'
p67
I14
sS'[[Corn]]'
p68
I78
sS'[[Fish Fillet]]'
p69
I61
sS'[[Chili Popcorn]]'
p70
I54
sS'[[Bacon]]'
p71
I28
sS'[[Cotton Fabric]]'
p72
I12
sS'[[Pumpkin Pie]]'
p73
I38
sS'[[Honey Popcorn]]'
p74
I0
sS'[[Sugarcane]]'
p75
I33
sS'[[Cookie]]'
p76
I53
sS'[[Apple Juice]]'
p77
I75
sS'[[Pig Feed]]'
p78
I13
sS'[[Cotton]]'
p79
I67
sS'[[Feta Pie]]'
p80
I70
sS'[[Cheese]]'
p81
I65
sS'[[Chocolate Ice Cream]]'
p82
I59
sS'[[Chicken Feed]]'
p83
I39
sS'[[Corn Bread]]'
p84
I45
sS'[[Honeycomb]]'
p85
I73
sS'[[Wool]]'
p86
I48
sS'[[Roasted Tomatoes]]'
p87
I6
sS'[[Berry Juice]]'
p88
I64
sS'[[Sweater]]'
p89
I24
sS'[[Blackberry Muffin]]'
p90
I36
sS'[[Cow Feed]]'
p91
I55
s.(dp0
S'[[Strawberry Ice Cream]]'
p1
I5
sS'[[Woolly Chaps]]'
p2
I1
sS'[[Strawberry Cake]]'
p3
I3
sS'[[Baked Potato]]'
p4
I1
sS'[[Blackberry Muffin]]'
p5
I5
sS'[[Butter]]'
p6
I3
sS'[[Fish Burger]]'
p7
I4
sS'[[Sugarcane]]'
p8
I5
sS'[[Cheese]]'
p9
I5
sS'[[Pizza]]'
p10
I5
s.