(dp0
S'[[Pumpkin]]'
p1
I52
sS'[[Blackberry Jam]]'
p2
I55
sS'[[Violet Dress]]'
p3
I41
sS'[[Strawberry Ice Cream]]'
p4
I16
sS'[[Raspberry Muffin]]'
p5
I67
sS'[[Apple Pie]]'
p6
I54
sS'[[Tomato Juice]]'
p7
I29
sS'[[Carrot Cake]]'
p8
I48
sS'[[Vanilla Ice Cream]]'
p9
I8
sS'[[Lure]]'
p10
I44
sS'[[Carrot Pie]]'
p11
I1
sS'[[Tomato]]'
p12
I59
sS'[[Cherry Juice]]'
p13
I86
sS'[[Cheesecake]]'
p14
I4
sS'[[Fish Pie]]'
p15
I45
sS'[[Pancake]]'
p16
I71
sS'[[Popcorn]]'
p17
I38
sS'[[Goat Cheese]]'
p18
I3
sS'[[Potato Bread]]'
p19
I33
sS'[[Goat Feed]]'
p20
I62
sS'[[Red Berry Cake]]'
p21
I66
sS'[[Pizza]]'
p22
I26
sS'[[Syrup]]'
p23
I80
sS'[[Sheep Feed]]'
p24
I90
sS'[[Cherry Popsicle]]'
p25
I43
sS'[[Bacon and Eggs]]'
p26
I15
sS'[[Carrot Juice]]'
p27
I76
sS'[[Baked Potato]]'
p28
I74
sS'[[Milk]]'
p29
I46
sS'[[Apple Jam]]'
p30
I32
sS'[[Carrot]]'
p31
I77
sS'[[Blackberry]]'
p32
I42
sS'[[Cotton Shirt]]'
p33
I79
sS'[[Cream]]'
p34
I5
sS'[[Raspberry Jam]]'
p35
I58
sS'[[Cherry]]'
p36
I73
sS'[[Bread]]'
p37
I82
sS'[[Wheat]]'
p38
I13
sS'[[Casserole]]'
p39
I14
sS'[[Chili Pepper]]'
p40
I51
sS'[[Honey Popcorn]]'
p41
I21
sS'[[Honeycomb]]'
p42
I23
sS'[[Indigo]]'
p43
I68
sS'[[Raspberry]]'
p44
I28
sS'[[Chocolate Cake]]'
p45
I83
sS'[[Spicy Pizza]]'
p46
I88
sS'[[Cacao]]'
p47
I49
sS'[[Woolly Chaps]]'
p48
I0
sS'[[Honey]]'
p49
I18
sS'[[Egg]]'
p50
I7
sS'[[Strawberry Cake]]'
p51
I78
sS'[[Potato]]'
p52
I63
sS'[[Fish Burger]]'
p53
I69
sS'[[White Sugar]]'
p54
I40
sS'[[Buttered Popcorn]]'
p55
I84
sS'[[Cream Cake]]'
p56
I25
sS'[[Soybean]]'
p57
I27
sS'[[Apple]]'
p58
I35
sS'[[Blue Woolly Hat]]'
p59
I81
sS'[[Goat Milk]]'
p60
I17
sS'[[Hamburger]]'
p61
I2
sS'[[Cherry Jam]]'
p62
I31
sS"[[Shepherd's Pie]]"
p63
I64
sS'[[Brown Sugar]]'
p64
I70
sS'[[Butter]]'
p65
I72
sS'[[Bacon Pie]]'
p66
I22
sS'[[Strawberry]]'
p67
I6
sS'[[Pumpkin Pie]]'
p68
I75
sS'[[Corn]]'
p69
I24
sS'[[Fish Fillet]]'
p70
I30
sS'[[Chili Popcorn]]'
p71
I65
sS'[[Bacon]]'
p72
I37
sS'[[Cotton Fabric]]'
p73
I9
sS'[[Blue Sweater]]'
p74
I57
sS'[[Potato Feta Cake]]'
p75
I61
sS'[[Sugarcane]]'
p76
I11
sS'[[Cookie]]'
p77
I89
sS'[[Apple Juice]]'
p78
I34
sS'[[Pig Feed]]'
p79
I20
sS'[[Cotton]]'
p80
I47
sS'[[Feta Pie]]'
p81
I39
sS'[[Cheese]]'
p82
I12
sS'[[Chocolate Ice Cream]]'
p83
I10
sS'[[Chicken Feed]]'
p84
I85
sS'[[Corn Bread]]'
p85
I53
sS'[[Wool]]'
p86
I50
sS'[[Roasted Tomatoes]]'
p87
I36
sS'[[Berry Juice]]'
p88
I19
sS'[[Sweater]]'
p89
I60
sS'[[Blackberry Muffin]]'
p90
I87
sS'[[Cow Feed]]'
p91
I56
s.(dp0
S'[[Casserole]]'
p1
I0
sS'[[Potato Feta Cake]]'
p2
I5
sS'[[Cherry Popsicle]]'
p3
I2
sS'[[Carrot Cake]]'
p4
I5
sS'[[Fish Pie]]'
p5
I3
sS'[[Honey Popcorn]]'
p6
I5
sS'[[Hamburger]]'
p7
I4
sS'[[Berry Juice]]'
p8
I2
sS'[[Honey]]'
p9
I2
sS'[[Fish Burger]]'
p10
I1
sS'[[Chocolate Ice Cream]]'
p11
I0
sS'[[Violet Dress]]'
p12
I4
s.