(dp0
S'[[Carrot]]'
p1
I70
sS'[[Apple Pie]]'
p2
I61
sS'[[Cacao]]'
p3
I12
sS'[[Woolly Chaps]]'
p4
I49
sS'[[Carrot Cake]]'
p5
I31
sS'[[Blackberry Jam]]'
p6
I0
sS'[[Strawberry Cake]]'
p7
I55
sS'[[Cherry Juice]]'
p8
I68
sS'[[Fish Burger]]'
p9
I14
sS'[[Tomato Juice]]'
p10
I18
sS'[[Buttered Popcorn]]'
p11
I53
sS'[[Cream Cake]]'
p12
I27
sS'[[Violet Dress]]'
p13
I72
sS'[[Soybean]]'
p14
I26
sS'[[Apple]]'
p15
I34
sS'[[Strawberry Ice Cream]]'
p16
I60
sS'[[Raspberry Muffin]]'
p17
I79
sS'[[Blue Woolly Hat]]'
p18
I35
sS'[[Goat Milk]]'
p19
I37
sS'[[Hamburger]]'
p20
I85
sS'[[White Sugar]]'
p21
I32
sS'[[Cherry Jam]]'
p22
I10
sS'[[Vanilla Ice Cream]]'
p23
I28
sS'[[Lure]]'
p24
I23
sS'[[Carrot Pie]]'
p25
I5
sS"[[Shepherd's Pie]]"
p26
I58
sS'[[Milk]]'
p27
I74
sS'[[Tomato]]'
p28
I43
sS'[[Potato]]'
p29
I76
sS'[[Cheesecake]]'
p30
I19
sS'[[Fish Pie]]'
p31
I51
sS'[[Butter]]'
p32
I47
sS'[[Pancake]]'
p33
I86
sS'[[Bacon Pie]]'
p34
I88
sS'[[Chili Pepper]]'
p35
I38
sS'[[Pumpkin Pie]]'
p36
I89
sS'[[Corn]]'
p37
I48
sS'[[Popcorn]]'
p38
I67
sS'[[Fish Fillet]]'
p39
I82
sS'[[Egg]]'
p40
I40
sS'[[Chili Popcorn]]'
p41
I90
sS'[[Honey]]'
p42
I1
sS'[[Goat Cheese]]'
p43
I11
sS'[[Bacon]]'
p44
I2
sS'[[Cotton Fabric]]'
p45
I17
sS'[[Potato Bread]]'
p46
I65
sS'[[Goat Feed]]'
p47
I62
sS'[[Blue Sweater]]'
p48
I45
sS'[[Honey Popcorn]]'
p49
I78
sS'[[Red Berry Cake]]'
p50
I7
sS'[[Cookie]]'
p51
I57
sS'[[Pizza]]'
p52
I81
sS'[[Syrup]]'
p53
I16
sS'[[Pig Feed]]'
p54
I3
sS'[[Sheep Feed]]'
p55
I77
sS'[[Apple Juice]]'
p56
I39
sS'[[Cherry Popsicle]]'
p57
I24
sS'[[Bacon and Eggs]]'
p58
I83
sS'[[Cotton]]'
p59
I66
sS'[[Feta Pie]]'
p60
I71
sS'[[Carrot Juice]]'
p61
I29
sS'[[Baked Potato]]'
p62
I46
sS'[[Raspberry]]'
p63
I44
sS'[[Cheese]]'
p64
I63
sS'[[Chocolate Ice Cream]]'
p65
I15
sS'[[Apple Jam]]'
p66
I22
sS'[[Chicken Feed]]'
p67
I42
sS'[[Pumpkin]]'
p68
I6
sS'[[Brown Sugar]]'
p69
I52
sS'[[Blackberry]]'
p70
I25
sS'[[Corn Bread]]'
p71
I36
sS'[[Cotton Shirt]]'
p72
I9
sS'[[Honeycomb]]'
p73
I8
sS'[[Cream]]'
p74
I84
sS'[[Raspberry Jam]]'
p75
I33
sS'[[Cherry]]'
p76
I69
sS'[[Bread]]'
p77
I30
sS'[[Wheat]]'
p78
I4
sS'[[Casserole]]'
p79
I80
sS'[[Strawberry]]'
p80
I75
sS'[[Roasted Tomatoes]]'
p81
I41
sS'[[Potato Feta Cake]]'
p82
I64
sS'[[Sugarcane]]'
p83
I87
sS'[[Berry Juice]]'
p84
I54
sS'[[Indigo]]'
p85
I50
sS'[[Wool]]'
p86
I21
sS'[[Sweater]]'
p87
I73
sS'[[Blackberry Muffin]]'
p88
I13
sS'[[Chocolate Cake]]'
p89
I56
sS'[[Cow Feed]]'
p90
I59
sS'[[Spicy Pizza]]'
p91
I20
s.(dp0
S'[[Tomato]]'
p1
I4
sS'[[Casserole]]'
p2
I4
sS'[[Apple Pie]]'
p3
I5
sS'[[Cheesecake]]'
p4
I3
sS'[[Woolly Chaps]]'
p5
I1
sS'[[Corn Bread]]'
p6
I5
sS'[[Potato Feta Cake]]'
p7
I2
sS'[[Hamburger]]'
p8
I4
sS'[[Raspberry Jam]]'
p9
I0
sS"[[Shepherd's Pie]]"
p10
I0
sS'[[Violet Dress]]'
p11
I5
s.