(dp0
S'[[Carrot]]'
p1
I60
sS'[[Apple Pie]]'
p2
I12
sS'[[Cacao]]'
p3
I36
sS'[[Woolly Chaps]]'
p4
I44
sS'[[Honey]]'
p5
I88
sS'[[Blackberry Jam]]'
p6
I47
sS'[[Strawberry Cake]]'
p7
I6
sS'[[Potato]]'
p8
I85
sS'[[Fish Burger]]'
p9
I18
sS'[[Tomato Juice]]'
p10
I77
sS'[[Buttered Popcorn]]'
p11
I13
sS'[[Cream Cake]]'
p12
I87
sS'[[Violet Dress]]'
p13
I40
sS'[[Soybean]]'
p14
I27
sS'[[Apple]]'
p15
I34
sS'[[Strawberry Ice Cream]]'
p16
I29
sS'[[Raspberry Muffin]]'
p17
I81
sS'[[Blue Woolly Hat]]'
p18
I20
sS'[[Goat Milk]]'
p19
I37
sS'[[Hamburger]]'
p20
I90
sS'[[White Sugar]]'
p21
I66
sS'[[Blue Sweater]]'
p22
I10
sS'[[Cherry Jam]]'
p23
I39
sS'[[Vanilla Ice Cream]]'
p24
I26
sS'[[Lure]]'
p25
I2
sS'[[Carrot Pie]]'
p26
I80
sS"[[Shepherd's Pie]]"
p27
I9
sS'[[Milk]]'
p28
I83
sS'[[Tomato]]'
p29
I65
sS'[[Cherry Juice]]'
p30
I84
sS'[[Cheesecake]]'
p31
I57
sS'[[Fish Pie]]'
p32
I72
sS'[[Butter]]'
p33
I7
sS'[[Pancake]]'
p34
I76
sS'[[Bacon Pie]]'
p35
I78
sS'[[Strawberry]]'
p36
I69
sS'[[Corn]]'
p37
I11
sS'[[Popcorn]]'
p38
I89
sS'[[Fish Fillet]]'
p39
I74
sS'[[Egg]]'
p40
I64
sS'[[Chili Popcorn]]'
p41
I32
sS'[[Goat Cheese]]'
p42
I14
sS'[[Bacon]]'
p43
I38
sS'[[Cotton Fabric]]'
p44
I46
sS'[[Potato Bread]]'
p45
I55
sS'[[Carrot Cake]]'
p46
I16
sS'[[Pumpkin Pie]]'
p47
I1
sS'[[Honey Popcorn]]'
p48
I3
sS'[[Red Berry Cake]]'
p49
I17
sS'[[Cookie]]'
p50
I42
sS'[[Pizza]]'
p51
I19
sS'[[Syrup]]'
p52
I51
sS'[[Pig Feed]]'
p53
I61
sS'[[Sheep Feed]]'
p54
I0
sS'[[Apple Juice]]'
p55
I43
sS'[[Cherry Popsicle]]'
p56
I21
sS'[[Bacon and Eggs]]'
p57
I25
sS'[[Cotton]]'
p58
I24
sS'[[Feta Pie]]'
p59
I52
sS'[[Carrot Juice]]'
p60
I62
sS'[[Baked Potato]]'
p61
I73
sS'[[Raspberry]]'
p62
I54
sS'[[Cheese]]'
p63
I79
sS'[[Chocolate Ice Cream]]'
p64
I48
sS'[[Apple Jam]]'
p65
I63
sS'[[Chicken Feed]]'
p66
I86
sS'[[Pumpkin]]'
p67
I50
sS'[[Brown Sugar]]'
p68
I75
sS'[[Blackberry]]'
p69
I67
sS'[[Corn Bread]]'
p70
I68
sS'[[Cotton Shirt]]'
p71
I45
sS'[[Honeycomb]]'
p72
I4
sS'[[Cream]]'
p73
I8
sS'[[Raspberry Jam]]'
p74
I15
sS'[[Cherry]]'
p75
I71
sS'[[Bread]]'
p76
I49
sS'[[Wheat]]'
p77
I22
sS'[[Casserole]]'
p78
I28
sS'[[Chili Pepper]]'
p79
I70
sS'[[Roasted Tomatoes]]'
p80
I59
sS'[[Potato Feta Cake]]'
p81
I82
sS'[[Sugarcane]]'
p82
I56
sS'[[Berry Juice]]'
p83
I30
sS'[[Indigo]]'
p84
I35
sS'[[Wool]]'
p85
I58
sS'[[Goat Feed]]'
p86
I41
sS'[[Sweater]]'
p87
I53
sS'[[Blackberry Muffin]]'
p88
I5
sS'[[Chocolate Cake]]'
p89
I31
sS'[[Cow Feed]]'
p90
I33
sS'[[Spicy Pizza]]'
p91
I23
s.(dp0
S'[[Goat Cheese]]'
p1
I2
sS'[[Strawberry Ice Cream]]'
p2
I3
sS'[[Apple Pie]]'
p3
I3
sS'[[Fish Pie]]'
p4
I2
sS'[[Cotton Shirt]]'
p5
I5
sS'[[Cream]]'
p6
I2
sS'[[Vanilla Ice Cream]]'
p7
I3
sS'[[Lure]]'
p8
I4
sS'[[Buttered Popcorn]]'
p9
I5
sS'[[Violet Dress]]'
p10
I4
sS'[[Goat Feed]]'
p11
I0
sS'[[Chili Pepper]]'
p12
I5
s.