(dp0
S'[[Pumpkin]]'
p1
I35
sS'[[Blackberry Jam]]'
p2
I48
sS'[[Violet Dress]]'
p3
I84
sS'[[Strawberry Ice Cream]]'
p4
I24
sS'[[Raspberry Muffin]]'
p5
I18
sS'[[Apple Pie]]'
p6
I75
sS'[[Tomato Juice]]'
p7
I87
sS'[[Blue Sweater]]'
p8
I2
sS'[[Honey]]'
p9
I90
sS'[[Vanilla Ice Cream]]'
p10
I3
sS'[[Lure]]'
p11
I14
sS'[[Carrot Pie]]'
p12
I63
sS'[[Tomato]]'
p13
I12
sS'[[Potato]]'
p14
I77
sS'[[Cheesecake]]'
p15
I17
sS'[[Fish Pie]]'
p16
I56
sS'[[Pancake]]'
p17
I41
sS'[[Popcorn]]'
p18
I34
sS'[[Goat Cheese]]'
p19
I40
sS'[[Potato Bread]]'
p20
I65
sS'[[Goat Feed]]'
p21
I4
sS'[[Red Berry Cake]]'
p22
I50
sS'[[Pizza]]'
p23
I27
sS'[[Syrup]]'
p24
I55
sS'[[Sheep Feed]]'
p25
I25
sS'[[Cherry Popsicle]]'
p26
I61
sS'[[Bacon and Eggs]]'
p27
I52
sS'[[Carrot]]'
p28
I62
sS'[[Carrot Juice]]'
p29
I53
sS'[[Baked Potato]]'
p30
I88
sS'[[Milk]]'
p31
I13
sS'[[Apple Jam]]'
p32
I45
sS'[[Apple]]'
p33
I83
sS'[[Blackberry]]'
p34
I71
sS'[[Cotton Shirt]]'
p35
I67
sS'[[Cream]]'
p36
I59
sS'[[Raspberry Jam]]'
p37
I74
sS'[[Cherry]]'
p38
I57
sS'[[Bread]]'
p39
I70
sS'[[Wheat]]'
p40
I11
sS'[[Casserole]]'
p41
I64
sS'[[Strawberry]]'
p42
I69
sS'[[Honey Popcorn]]'
p43
I5
sS'[[Honeycomb]]'
p44
I82
sS'[[Indigo]]'
p45
I86
sS'[[Raspberry]]'
p46
I21
sS'[[Chocolate Cake]]'
p47
I39
sS'[[Spicy Pizza]]'
p48
I47
sS'[[Cacao]]'
p49
I1
sS'[[Woolly Chaps]]'
p50
I89
sS'[[Carrot Cake]]'
p51
I80
sS'[[Egg]]'
p52
I54
sS'[[Strawberry Cake]]'
p53
I73
sS'[[Cherry Juice]]'
p54
I0
sS'[[Fish Burger]]'
p55
I22
sS'[[White Sugar]]'
p56
I38
sS'[[Buttered Popcorn]]'
p57
I32
sS'[[Cream Cake]]'
p58
I79
sS'[[Soybean]]'
p59
I6
sS'[[Brown Sugar]]'
p60
I31
sS'[[Blue Woolly Hat]]'
p61
I28
sS'[[Goat Milk]]'
p62
I46
sS'[[Hamburger]]'
p63
I60
sS'[[Cherry Jam]]'
p64
I8
sS"[[Shepherd's Pie]]"
p65
I36
sS'[[Butter]]'
p66
I26
sS'[[Bacon Pie]]'
p67
I19
sS'[[Chili Pepper]]'
p68
I58
sS'[[Corn]]'
p69
I33
sS'[[Fish Fillet]]'
p70
I43
sS'[[Chili Popcorn]]'
p71
I85
sS'[[Bacon]]'
p72
I10
sS'[[Cotton Fabric]]'
p73
I37
sS'[[Pumpkin Pie]]'
p74
I68
sS'[[Potato Feta Cake]]'
p75
I15
sS'[[Sugarcane]]'
p76
I30
sS'[[Cookie]]'
p77
I78
sS'[[Apple Juice]]'
p78
I44
sS'[[Pig Feed]]'
p79
I23
sS'[[Cotton]]'
p80
I16
sS'[[Feta Pie]]'
p81
I81
sS'[[Cheese]]'
p82
I72
sS'[[Chocolate Ice Cream]]'
p83
I9
sS'[[Chicken Feed]]'
p84
I7
sS'[[Corn Bread]]'
p85
I29
sS'[[Wool]]'
p86
I66
sS'[[Roasted Tomatoes]]'
p87
I76
sS'[[Berry Juice]]'
p88
I42
sS'[[Sweater]]'
p89
I20
sS'[[Blackberry Muffin]]'
p90
I51
sS'[[Cow Feed]]'
p91
I49
s.(dp0
S'[[Brown Sugar]]'
p1
I5
sS'[[Potato Bread]]'
p2
I5
sS'[[Raspberry Muffin]]'
p3
I3
sS'[[Carrot Cake]]'
p4
I5
sS'[[Bacon and Eggs]]'
p5
I4
sS'[[Butter]]'
p6
I1
sS'[[Pancake]]'
p7
I3
sS'[[Sugarcane]]'
p8
I3
sS"[[Shepherd's Pie]]"
p9
I1
sS'[[Cheesecake]]'
p10
I4
s.