(dp0
S'[[Pumpkin]]'
p1
I6
sS'[[Blackberry Jam]]'
p2
I76
sS'[[Violet Dress]]'
p3
I11
sS'[[Strawberry Ice Cream]]'
p4
I89
sS'[[Raspberry Muffin]]'
p5
I49
sS'[[Apple Pie]]'
p6
I33
sS'[[Tomato Juice]]'
p7
I1
sS'[[Carrot Cake]]'
p8
I56
sS'[[Vanilla Ice Cream]]'
p9
I88
sS'[[Lure]]'
p10
I51
sS'[[Carrot Pie]]'
p11
I19
sS'[[Tomato]]'
p12
I80
sS'[[Cherry Juice]]'
p13
I83
sS'[[Cheesecake]]'
p14
I12
sS'[[Fish Pie]]'
p15
I50
sS'[[Pancake]]'
p16
I85
sS'[[Popcorn]]'
p17
I87
sS'[[Goat Cheese]]'
p18
I22
sS'[[Potato Bread]]'
p19
I26
sS'[[Goat Feed]]'
p20
I86
sS'[[Red Berry Cake]]'
p21
I73
sS'[[Pizza]]'
p22
I21
sS'[[Syrup]]'
p23
I9
sS'[[Sheep Feed]]'
p24
I36
sS'[[Cherry Popsicle]]'
p25
I63
sS'[[Bacon and Eggs]]'
p26
I13
sS'[[Carrot Juice]]'
p27
I2
sS'[[Baked Potato]]'
p28
I10
sS'[[Milk]]'
p29
I28
sS'[[Apple Jam]]'
p30
I67
sS'[[Carrot]]'
p31
I58
sS'[[Blackberry]]'
p32
I40
sS'[[Cotton Shirt]]'
p33
I16
sS'[[Cream]]'
p34
I17
sS'[[Raspberry Jam]]'
p35
I72
sS'[[Cherry]]'
p36
I25
sS'[[Bread]]'
p37
I78
sS'[[Wheat]]'
p38
I42
sS'[[Casserole]]'
p39
I53
sS'[[Chili Pepper]]'
p40
I81
sS'[[Honey Popcorn]]'
p41
I30
sS'[[Honeycomb]]'
p42
I31
sS'[[Indigo]]'
p43
I0
sS'[[Raspberry]]'
p44
I65
sS'[[Chocolate Cake]]'
p45
I84
sS'[[Spicy Pizza]]'
p46
I61
sS'[[Cacao]]'
p47
I20
sS'[[Woolly Chaps]]'
p48
I29
sS'[[Honey]]'
p49
I54
sS'[[Egg]]'
p50
I71
sS'[[Strawberry Cake]]'
p51
I74
sS'[[Potato]]'
p52
I60
sS'[[Fish Burger]]'
p53
I23
sS'[[White Sugar]]'
p54
I4
sS'[[Buttered Popcorn]]'
p55
I69
sS'[[Cream Cake]]'
p56
I14
sS'[[Soybean]]'
p57
I66
sS'[[Apple]]'
p58
I24
sS'[[Blue Woolly Hat]]'
p59
I35
sS'[[Goat Milk]]'
p60
I46
sS'[[Hamburger]]'
p61
I43
sS'[[Cherry Jam]]'
p62
I5
sS"[[Shepherd's Pie]]"
p63
I15
sS'[[Brown Sugar]]'
p64
I45
sS'[[Butter]]'
p65
I37
sS'[[Bacon Pie]]'
p66
I8
sS'[[Strawberry]]'
p67
I75
sS'[[Pumpkin Pie]]'
p68
I79
sS'[[Corn]]'
p69
I70
sS'[[Fish Fillet]]'
p70
I39
sS'[[Chili Popcorn]]'
p71
I34
sS'[[Sugarcane]]'
p72
I7
sS'[[Cotton Fabric]]'
p73
I77
sS'[[Blue Sweater]]'
p74
I64
sS'[[Potato Feta Cake]]'
p75
I44
sS'[[Cookie]]'
p76
I59
sS'[[Apple Juice]]'
p77
I52
sS'[[Pig Feed]]'
p78
I82
sS'[[Cotton]]'
p79
I68
sS'[[Feta Pie]]'
p80
I90
sS'[[Cheese]]'
p81
I3
sS'[[Chocolate Ice Cream]]'
p82
I18
sS'[[Bacon]]'
p83
I41
sS'[[Chicken Feed]]'
p84
I55
sS'[[Corn Bread]]'
p85
I48
sS'[[Wool]]'
p86
I62
sS'[[Roasted Tomatoes]]'
p87
I47
sS'[[Berry Juice]]'
p88
I38
sS'[[Sweater]]'
p89
I27
sS'[[Blackberry Muffin]]'
p90
I32
sS'[[Cow Feed]]'
p91
I57
s.(dp0
S'[[Tomato]]'
p1
I0
sS'[[Popcorn]]'
p2
I5
sS'[[Raspberry Muffin]]'
p3
I1
sS'[[Woolly Chaps]]'
p4
I3
sS'[[Carrot Cake]]'
p5
I3
sS'[[Blackberry]]'
p6
I2
sS'[[Strawberry Cake]]'
p7
I0
sS'[[Honey Popcorn]]'
p8
I5
sS'[[Cherry Jam]]'
p9
I3
sS'[[Fish Burger]]'
p10
I2
sS'[[Buttered Popcorn]]'
p11
I2
sS'[[Bacon and Eggs]]'
p12
I4
sS'[[Soybean]]'
p13
I0
s.