(dp0
S'[[Pumpkin]]'
p1
I30
sS'[[Carrot Pie]]'
p2
I0
sS'[[Violet Dress]]'
p3
I10
sS'[[Strawberry Ice Cream]]'
p4
I80
sS'[[Raspberry Muffin]]'
p5
I44
sS'[[Woolly Chaps]]'
p6
I46
sS'[[Tomato Juice]]'
p7
I17
sS'[[Honey]]'
p8
I25
sS'[[Vanilla Ice Cream]]'
p9
I58
sS'[[Lure]]'
p10
I69
sS'[[Blackberry Jam]]'
p11
I1
sS'[[Tomato]]'
p12
I43
sS'[[Potato]]'
p13
I12
sS'[[Cheesecake]]'
p14
I11
sS'[[Fish Pie]]'
p15
I4
sS'[[Pancake]]'
p16
I71
sS'[[Popcorn]]'
p17
I45
sS'[[Goat Cheese]]'
p18
I81
sS'[[Potato Bread]]'
p19
I85
sS'[[Goat Feed]]'
p20
I48
sS'[[Red Berry Cake]]'
p21
I63
sS'[[Pizza]]'
p22
I53
sS'[[Syrup]]'
p23
I15
sS'[[Sheep Feed]]'
p24
I59
sS'[[Cherry Popsicle]]'
p25
I23
sS'[[Bacon and Eggs]]'
p26
I52
sS'[[Carrot Juice]]'
p27
I19
sS'[[Baked Potato]]'
p28
I79
sS'[[Milk]]'
p29
I27
sS'[[Apple Jam]]'
p30
I49
sS'[[Carrot]]'
p31
I41
sS'[[Blackberry]]'
p32
I62
sS'[[Cotton Shirt]]'
p33
I66
sS'[[Cream]]'
p34
I8
sS'[[Raspberry Jam]]'
p35
I5
sS'[[Cherry]]'
p36
I3
sS'[[Bread]]'
p37
I61
sS'[[Wheat]]'
p38
I67
sS'[[Casserole]]'
p39
I33
sS'[[Strawberry]]'
p40
I76
sS'[[Potato Feta Cake]]'
p41
I18
sS'[[Spicy Pizza]]'
p42
I78
sS'[[Indigo]]'
p43
I39
sS'[[Raspberry]]'
p44
I73
sS'[[Chocolate Cake]]'
p45
I16
sS'[[Apple Pie]]'
p46
I22
sS'[[Cacao]]'
p47
I6
sS'[[Blue Sweater]]'
p48
I7
sS'[[Carrot Cake]]'
p49
I42
sS'[[Egg]]'
p50
I74
sS'[[Strawberry Cake]]'
p51
I32
sS'[[Cherry Juice]]'
p52
I83
sS'[[Fish Burger]]'
p53
I20
sS'[[White Sugar]]'
p54
I9
sS'[[Buttered Popcorn]]'
p55
I55
sS'[[Cream Cake]]'
p56
I87
sS'[[Soybean]]'
p57
I82
sS'[[Brown Sugar]]'
p58
I89
sS'[[Blue Woolly Hat]]'
p59
I75
sS'[[Goat Milk]]'
p60
I51
sS'[[Hamburger]]'
p61
I50
sS'[[Cherry Jam]]'
p62
I54
sS"[[Shepherd's Pie]]"
p63
I40
sS'[[Apple]]'
p64
I64
sS'[[Butter]]'
p65
I21
sS'[[Bacon Pie]]'
p66
I60
sS'[[Chili Pepper]]'
p67
I28
sS'[[Corn]]'
p68
I84
sS'[[Fish Fillet]]'
p69
I57
sS'[[Chili Popcorn]]'
p70
I35
sS'[[Bacon]]'
p71
I13
sS'[[Cotton Fabric]]'
p72
I34
sS'[[Pumpkin Pie]]'
p73
I26
sS'[[Honey Popcorn]]'
p74
I70
sS'[[Sugarcane]]'
p75
I86
sS'[[Cookie]]'
p76
I88
sS'[[Apple Juice]]'
p77
I36
sS'[[Pig Feed]]'
p78
I90
sS'[[Cotton]]'
p79
I68
sS'[[Feta Pie]]'
p80
I29
sS'[[Cheese]]'
p81
I31
sS'[[Chocolate Ice Cream]]'
p82
I72
sS'[[Chicken Feed]]'
p83
I37
sS'[[Corn Bread]]'
p84
I47
sS'[[Honeycomb]]'
p85
I77
sS'[[Wool]]'
p86
I56
sS'[[Roasted Tomatoes]]'
p87
I2
sS'[[Berry Juice]]'
p88
I14
sS'[[Sweater]]'
p89
I65
sS'[[Blackberry Muffin]]'
p90
I38
sS'[[Cow Feed]]'
p91
I24
s.(dp0
S'[[Bread]]'
p1
I5
sS'[[Popcorn]]'
p2
I0
sS'[[Woolly Chaps]]'
p3
I4
sS'[[Blackberry Jam]]'
p4
I3
sS'[[Strawberry Cake]]'
p5
I2
sS'[[Cotton Shirt]]'
p6
I5
sS'[[Baked Potato]]'
p7
I3
sS'[[Milk]]'
p8
I1
sS'[[Bacon Pie]]'
p9
I2
sS'[[Pizza]]'
p10
I1
s.