(dp0
S'[[Pumpkin]]'
p1
I41
sS'[[Blackberry Jam]]'
p2
I49
sS'[[Violet Dress]]'
p3
I20
sS'[[Strawberry Ice Cream]]'
p4
I77
sS'[[Raspberry Muffin]]'
p5
I42
sS'[[Apple Pie]]'
p6
I37
sS'[[Tomato Juice]]'
p7
I6
sS'[[Blue Sweater]]'
p8
I0
sS'[[Honey]]'
p9
I44
sS'[[Vanilla Ice Cream]]'
p10
I1
sS'[[Lure]]'
p11
I32
sS'[[Carrot Pie]]'
p12
I25
sS'[[Tomato]]'
p13
I19
sS'[[Potato]]'
p14
I15
sS'[[Cheesecake]]'
p15
I88
sS'[[Fish Pie]]'
p16
I55
sS'[[Pancake]]'
p17
I11
sS'[[Popcorn]]'
p18
I52
sS'[[Goat Cheese]]'
p19
I10
sS'[[Potato Bread]]'
p20
I34
sS'[[Goat Feed]]'
p21
I86
sS'[[Red Berry Cake]]'
p22
I35
sS'[[Pizza]]'
p23
I79
sS'[[Syrup]]'
p24
I61
sS'[[Sheep Feed]]'
p25
I40
sS'[[Cherry Popsicle]]'
p26
I76
sS'[[Bacon and Eggs]]'
p27
I85
sS'[[Carrot Juice]]'
p28
I74
sS'[[Baked Potato]]'
p29
I56
sS'[[Milk]]'
p30
I8
sS'[[Apple Jam]]'
p31
I38
sS'[[Carrot]]'
p32
I4
sS'[[Blackberry]]'
p33
I70
sS'[[Cotton Shirt]]'
p34
I9
sS'[[Cream]]'
p35
I29
sS'[[Raspberry Jam]]'
p36
I69
sS'[[Cherry]]'
p37
I33
sS'[[Bread]]'
p38
I54
sS'[[Wheat]]'
p39
I26
sS'[[Casserole]]'
p40
I27
sS'[[Chili Pepper]]'
p41
I51
sS'[[Honey Popcorn]]'
p42
I66
sS'[[Honeycomb]]'
p43
I53
sS'[[Indigo]]'
p44
I65
sS'[[Raspberry]]'
p45
I5
sS'[[Chocolate Cake]]'
p46
I24
sS'[[Spicy Pizza]]'
p47
I87
sS'[[Cacao]]'
p48
I3
sS'[[Woolly Chaps]]'
p49
I13
sS'[[Carrot Cake]]'
p50
I90
sS'[[Egg]]'
p51
I14
sS'[[Strawberry Cake]]'
p52
I71
sS'[[Cherry Juice]]'
p53
I80
sS'[[Fish Burger]]'
p54
I16
sS'[[White Sugar]]'
p55
I31
sS'[[Buttered Popcorn]]'
p56
I43
sS'[[Cream Cake]]'
p57
I39
sS'[[Soybean]]'
p58
I2
sS'[[Apple]]'
p59
I63
sS'[[Blue Woolly Hat]]'
p60
I47
sS'[[Goat Milk]]'
p61
I58
sS'[[Hamburger]]'
p62
I72
sS'[[Cherry Jam]]'
p63
I57
sS"[[Shepherd's Pie]]"
p64
I62
sS'[[Brown Sugar]]'
p65
I18
sS'[[Butter]]'
p66
I21
sS'[[Bacon Pie]]'
p67
I81
sS'[[Strawberry]]'
p68
I30
sS'[[Corn]]'
p69
I28
sS'[[Fish Fillet]]'
p70
I75
sS'[[Chili Popcorn]]'
p71
I83
sS'[[Bacon]]'
p72
I78
sS'[[Cotton Fabric]]'
p73
I46
sS'[[Pumpkin Pie]]'
p74
I22
sS'[[Potato Feta Cake]]'
p75
I7
sS'[[Sugarcane]]'
p76
I89
sS'[[Cookie]]'
p77
I23
sS'[[Apple Juice]]'
p78
I67
sS'[[Pig Feed]]'
p79
I82
sS'[[Cotton]]'
p80
I36
sS'[[Feta Pie]]'
p81
I60
sS'[[Cheese]]'
p82
I59
sS'[[Chocolate Ice Cream]]'
p83
I64
sS'[[Chicken Feed]]'
p84
I73
sS'[[Corn Bread]]'
p85
I50
sS'[[Wool]]'
p86
I84
sS'[[Roasted Tomatoes]]'
p87
I17
sS'[[Berry Juice]]'
p88
I12
sS'[[Sweater]]'
p89
I45
sS'[[Blackberry Muffin]]'
p90
I48
sS'[[Cow Feed]]'
p91
I68
s.(dp0
S'[[Tomato]]'
p1
I2
sS'[[Sheep Feed]]'
p2
I4
sS'[[Honey Popcorn]]'
p3
I5
sS'[[Lure]]'
p4
I1
sS'[[Woolly Chaps]]'
p5
I5
sS'[[Carrot Cake]]'
p6
I3
sS'[[Strawberry Cake]]'
p7
I5
sS'[[Apple Pie]]'
p8
I0
sS'[[Cookie]]'
p9
I4
sS'[[Brown Sugar]]'
p10
I0
sS'[[Spicy Pizza]]'
p11
I1
sS'[[Chocolate Ice Cream]]'
p12
I4
sS'[[Bacon Pie]]'
p13
I5
sS'[[Potato Bread]]'
p14
I3
sS'[[Violet Dress]]'
p15
I4
sS'[[Apple]]'
p16
I0
s.