(dp0
S'[[Pumpkin]]'
p1
I8
sS'[[Blackberry Jam]]'
p2
I17
sS'[[Violet Dress]]'
p3
I42
sS'[[Strawberry Ice Cream]]'
p4
I74
sS'[[Raspberry Muffin]]'
p5
I25
sS'[[Apple Pie]]'
p6
I4
sS'[[Tomato Juice]]'
p7
I33
sS'[[Blue Sweater]]'
p8
I87
sS'[[Honey]]'
p9
I51
sS'[[Vanilla Ice Cream]]'
p10
I88
sS'[[Lure]]'
p11
I40
sS'[[Carrot Pie]]'
p12
I34
sS'[[Tomato]]'
p13
I77
sS'[[Potato]]'
p14
I58
sS'[[Cheesecake]]'
p15
I56
sS'[[Fish Pie]]'
p16
I68
sS'[[Pancake]]'
p17
I39
sS'[[Popcorn]]'
p18
I12
sS'[[Goat Cheese]]'
p19
I73
sS'[[Potato Bread]]'
p20
I65
sS'[[Goat Feed]]'
p21
I36
sS'[[Red Berry Cake]]'
p22
I30
sS'[[Pizza]]'
p23
I82
sS'[[Syrup]]'
p24
I27
sS'[[Sheep Feed]]'
p25
I63
sS'[[Cherry Popsicle]]'
p26
I26
sS'[[Bacon and Eggs]]'
p27
I62
sS'[[Carrot]]'
p28
I86
sS'[[Carrot Juice]]'
p29
I71
sS'[[Baked Potato]]'
p30
I53
sS'[[Milk]]'
p31
I10
sS'[[Apple Jam]]'
p32
I50
sS'[[Apple]]'
p33
I80
sS'[[Blackberry]]'
p34
I70
sS'[[Cotton Shirt]]'
p35
I83
sS'[[Cream]]'
p36
I9
sS'[[Raspberry Jam]]'
p37
I18
sS'[[Cherry]]'
p38
I2
sS'[[Bread]]'
p39
I35
sS'[[Wheat]]'
p40
I75
sS'[[Casserole]]'
p41
I52
sS'[[Strawberry]]'
p42
I11
sS'[[Honey Popcorn]]'
p43
I44
sS'[[Honeycomb]]'
p44
I57
sS'[[Indigo]]'
p45
I5
sS'[[Raspberry]]'
p46
I59
sS'[[Chocolate Cake]]'
p47
I90
sS'[[Spicy Pizza]]'
p48
I6
sS'[[Cacao]]'
p49
I23
sS'[[Woolly Chaps]]'
p50
I45
sS'[[Carrot Cake]]'
p51
I61
sS'[[Egg]]'
p52
I81
sS'[[Strawberry Cake]]'
p53
I28
sS'[[Cherry Juice]]'
p54
I32
sS'[[Fish Burger]]'
p55
I49
sS'[[White Sugar]]'
p56
I89
sS'[[Buttered Popcorn]]'
p57
I64
sS'[[Cream Cake]]'
p58
I7
sS'[[Soybean]]'
p59
I22
sS'[[Brown Sugar]]'
p60
I43
sS'[[Blue Woolly Hat]]'
p61
I13
sS'[[Goat Milk]]'
p62
I66
sS'[[Hamburger]]'
p63
I55
sS'[[Cherry Jam]]'
p64
I67
sS"[[Shepherd's Pie]]"
p65
I31
sS'[[Butter]]'
p66
I78
sS'[[Bacon Pie]]'
p67
I79
sS'[[Chili Pepper]]'
p68
I60
sS'[[Corn]]'
p69
I37
sS'[[Fish Fillet]]'
p70
I24
sS'[[Chili Popcorn]]'
p71
I16
sS'[[Bacon]]'
p72
I85
sS'[[Cotton Fabric]]'
p73
I38
sS'[[Pumpkin Pie]]'
p74
I29
sS'[[Potato Feta Cake]]'
p75
I15
sS'[[Sugarcane]]'
p76
I0
sS'[[Cookie]]'
p77
I20
sS'[[Apple Juice]]'
p78
I41
sS'[[Pig Feed]]'
p79
I19
sS'[[Cotton]]'
p80
I3
sS'[[Feta Pie]]'
p81
I84
sS'[[Cheese]]'
p82
I47
sS'[[Chocolate Ice Cream]]'
p83
I48
sS'[[Chicken Feed]]'
p84
I21
sS'[[Corn Bread]]'
p85
I76
sS'[[Wool]]'
p86
I14
sS'[[Roasted Tomatoes]]'
p87
I69
sS'[[Berry Juice]]'
p88
I72
sS'[[Sweater]]'
p89
I1
sS'[[Blackberry Muffin]]'
p90
I54
sS'[[Cow Feed]]'
p91
I46
s.(dp0
S'[[Pumpkin Pie]]'
p1
I5
sS'[[Corn]]'
p2
I1
sS'[[Fish Fillet]]'
p3
I3
sS'[[Roasted Tomatoes]]'
p4
I5
sS'[[Sheep Feed]]'
p5
I0
sS'[[Blackberry]]'
p6
I0
sS'[[Woolly Chaps]]'
p7
I4
sS'[[Cotton Shirt]]'
p8
I5
sS'[[White Sugar]]'
p9
I2
sS'[[Cream]]'
p10
I3
sS'[[Baked Potato]]'
p11
I5
sS"[[Shepherd's Pie]]"
p12
I2
s.