(dp0
S'[[Pumpkin]]'
p1
I87
sS'[[Blackberry Jam]]'
p2
I30
sS'[[Violet Dress]]'
p3
I71
sS'[[Strawberry Ice Cream]]'
p4
I76
sS'[[Raspberry Muffin]]'
p5
I53
sS'[[Apple Pie]]'
p6
I2
sS'[[Tomato Juice]]'
p7
I64
sS'[[Blue Sweater]]'
p8
I52
sS'[[Honey]]'
p9
I90
sS'[[Vanilla Ice Cream]]'
p10
I14
sS'[[Lure]]'
p11
I68
sS'[[Carrot Pie]]'
p12
I23
sS'[[Tomato]]'
p13
I43
sS'[[Potato]]'
p14
I41
sS'[[Cheesecake]]'
p15
I70
sS'[[Fish Pie]]'
p16
I24
sS'[[Pancake]]'
p17
I4
sS'[[Popcorn]]'
p18
I62
sS'[[Goat Cheese]]'
p19
I38
sS'[[Potato Bread]]'
p20
I81
sS'[[Goat Feed]]'
p21
I65
sS'[[Red Berry Cake]]'
p22
I25
sS'[[Pizza]]'
p23
I33
sS'[[Syrup]]'
p24
I86
sS'[[Sheep Feed]]'
p25
I45
sS'[[Cherry Popsicle]]'
p26
I0
sS'[[Bacon and Eggs]]'
p27
I67
sS'[[Carrot]]'
p28
I7
sS'[[Carrot Juice]]'
p29
I8
sS'[[Baked Potato]]'
p30
I50
sS'[[Milk]]'
p31
I77
sS'[[Apple Jam]]'
p32
I44
sS'[[Apple]]'
p33
I27
sS'[[Blackberry]]'
p34
I66
sS'[[Cotton Shirt]]'
p35
I31
sS'[[Cream]]'
p36
I29
sS'[[Raspberry Jam]]'
p37
I35
sS'[[Cherry]]'
p38
I59
sS'[[Bread]]'
p39
I47
sS'[[Wheat]]'
p40
I26
sS'[[Casserole]]'
p41
I51
sS'[[Strawberry]]'
p42
I60
sS'[[Honey Popcorn]]'
p43
I40
sS'[[Honeycomb]]'
p44
I72
sS'[[Indigo]]'
p45
I10
sS'[[Raspberry]]'
p46
I19
sS'[[Chocolate Cake]]'
p47
I54
sS'[[Spicy Pizza]]'
p48
I42
sS'[[Cacao]]'
p49
I83
sS'[[Woolly Chaps]]'
p50
I73
sS'[[Carrot Cake]]'
p51
I36
sS'[[Egg]]'
p52
I84
sS'[[Strawberry Cake]]'
p53
I13
sS'[[Cherry Juice]]'
p54
I21
sS'[[Fish Burger]]'
p55
I74
sS'[[White Sugar]]'
p56
I6
sS'[[Buttered Popcorn]]'
p57
I9
sS'[[Cream Cake]]'
p58
I22
sS'[[Soybean]]'
p59
I16
sS'[[Brown Sugar]]'
p60
I88
sS'[[Blue Woolly Hat]]'
p61
I1
sS'[[Goat Milk]]'
p62
I56
sS'[[Hamburger]]'
p63
I69
sS'[[Cherry Jam]]'
p64
I18
sS"[[Shepherd's Pie]]"
p65
I17
sS'[[Butter]]'
p66
I89
sS'[[Bacon Pie]]'
p67
I5
sS'[[Chili Pepper]]'
p68
I55
sS'[[Corn]]'
p69
I61
sS'[[Fish Fillet]]'
p70
I12
sS'[[Chili Popcorn]]'
p71
I78
sS'[[Bacon]]'
p72
I58
sS'[[Cotton Fabric]]'
p73
I82
sS'[[Pumpkin Pie]]'
p74
I37
sS'[[Potato Feta Cake]]'
p75
I39
sS'[[Sugarcane]]'
p76
I46
sS'[[Cookie]]'
p77
I80
sS'[[Apple Juice]]'
p78
I63
sS'[[Pig Feed]]'
p79
I57
sS'[[Cotton]]'
p80
I34
sS'[[Feta Pie]]'
p81
I75
sS'[[Cheese]]'
p82
I3
sS'[[Chocolate Ice Cream]]'
p83
I28
sS'[[Chicken Feed]]'
p84
I49
sS'[[Corn Bread]]'
p85
I11
sS'[[Wool]]'
p86
I79
sS'[[Roasted Tomatoes]]'
p87
I15
sS'[[Berry Juice]]'
p88
I48
sS'[[Sweater]]'
p89
I32
sS'[[Blackberry Muffin]]'
p90
I20
sS'[[Cow Feed]]'
p91
I85
s.(dp0
S'[[Sheep Feed]]'
p1
I4
sS'[[Bread]]'
p2
I3
sS'[[Cheesecake]]'
p3
I0
sS'[[Honey Popcorn]]'
p4
I3
sS'[[Apple Pie]]'
p5
I5
sS'[[Baked Potato]]'
p6
I3
sS'[[Indigo]]'
p7
I5
sS'[[Goat Cheese]]'
p8
I5
sS'[[Sweater]]'
p9
I2
sS"[[Shepherd's Pie]]"
p10
I3
sS'[[Apple Juice]]'
p11
I3
sS'[[Cherry Popsicle]]'
p12
I2
sS'[[Wool]]'
p13
I0
s.