(dp0
S'[[Goat Milk]]'
p1
I32
sS'[[Cacao]]'
p2
I45
sS'[[Woolly Chaps]]'
p3
I83
sS'[[Honey]]'
p4
I48
sS'[[Blackberry Jam]]'
p5
I67
sS'[[Strawberry Cake]]'
p6
I20
sS'[[Potato]]'
p7
I53
sS'[[Fish Burger]]'
p8
I40
sS'[[White Sugar]]'
p9
I55
sS'[[Buttered Popcorn]]'
p10
I64
sS'[[Cream Cake]]'
p11
I66
sS'[[Violet Dress]]'
p12
I16
sS'[[Soybean]]'
p13
I75
sS'[[Brown Sugar]]'
p14
I65
sS'[[Strawberry Ice Cream]]'
p15
I87
sS'[[Raspberry Muffin]]'
p16
I72
sS'[[Cherry Jam]]'
p17
I0
sS'[[Hamburger]]'
p18
I21
sS'[[Blue Woolly Hat]]'
p19
I71
sS'[[Apple Pie]]'
p20
I61
sS'[[Egg]]'
p21
I74
sS'[[Tomato Juice]]'
p22
I31
sS'[[Blue Sweater]]'
p23
I60
sS'[[Carrot Cake]]'
p24
I68
sS'[[Vanilla Ice Cream]]'
p25
I35
sS'[[Lure]]'
p26
I69
sS'[[Carrot Pie]]'
p27
I25
sS"[[Shepherd's Pie]]"
p28
I1
sS'[[Cheese]]'
p29
I41
sS'[[Tomato]]'
p30
I54
sS'[[Cherry Juice]]'
p31
I18
sS'[[Cheesecake]]'
p32
I62
sS'[[Fish Pie]]'
p33
I3
sS'[[Apple]]'
p34
I11
sS'[[Butter]]'
p35
I27
sS'[[Pancake]]'
p36
I4
sS'[[Bacon Pie]]'
p37
I19
sS'[[Strawberry]]'
p38
I88
sS'[[Corn]]'
p39
I5
sS'[[Popcorn]]'
p40
I52
sS'[[Fish Fillet]]'
p41
I89
sS'[[Chili Popcorn]]'
p42
I39
sS'[[Goat Cheese]]'
p43
I26
sS'[[Bacon]]'
p44
I10
sS'[[Cotton Fabric]]'
p45
I7
sS'[[Potato Bread]]'
p46
I79
sS'[[Goat Feed]]'
p47
I8
sS'[[Pumpkin Pie]]'
p48
I80
sS'[[Honey Popcorn]]'
p49
I51
sS'[[Wool]]'
p50
I78
sS'[[Red Berry Cake]]'
p51
I23
sS'[[Cookie]]'
p52
I34
sS'[[Pizza]]'
p53
I33
sS'[[Syrup]]'
p54
I12
sS'[[Cotton]]'
p55
I81
sS'[[Pig Feed]]'
p56
I22
sS'[[Sheep Feed]]'
p57
I37
sS'[[Apple Juice]]'
p58
I76
sS'[[Cherry Popsicle]]'
p59
I90
sS'[[Bacon and Eggs]]'
p60
I42
sS'[[Pumpkin]]'
p61
I38
sS'[[Feta Pie]]'
p62
I86
sS'[[Carrot Juice]]'
p63
I36
sS'[[Baked Potato]]'
p64
I28
sS'[[Milk]]'
p65
I73
sS'[[Chocolate Ice Cream]]'
p66
I58
sS'[[Berry Juice]]'
p67
I29
sS'[[Apple Jam]]'
p68
I15
sS'[[Chicken Feed]]'
p69
I9
sS'[[Carrot]]'
p70
I82
sS'[[Blackberry]]'
p71
I63
sS'[[Corn Bread]]'
p72
I30
sS'[[Cotton Shirt]]'
p73
I43
sS'[[Cream]]'
p74
I49
sS'[[Raspberry Jam]]'
p75
I2
sS'[[Cherry]]'
p76
I56
sS'[[Bread]]'
p77
I59
sS'[[Wheat]]'
p78
I46
sS'[[Casserole]]'
p79
I84
sS'[[Chili Pepper]]'
p80
I70
sS'[[Roasted Tomatoes]]'
p81
I17
sS'[[Potato Feta Cake]]'
p82
I57
sS'[[Sugarcane]]'
p83
I44
sS'[[Honeycomb]]'
p84
I85
sS'[[Indigo]]'
p85
I6
sS'[[Raspberry]]'
p86
I47
sS'[[Sweater]]'
p87
I50
sS'[[Blackberry Muffin]]'
p88
I77
sS'[[Chocolate Cake]]'
p89
I24
sS'[[Cow Feed]]'
p90
I14
sS'[[Spicy Pizza]]'
p91
I13
s.(dp0
S'[[Pumpkin Pie]]'
p1
I5
sS'[[Casserole]]'
p2
I2
sS'[[Cherry Popsicle]]'
p3
I2
sS'[[Carrot Cake]]'
p4
I4
sS'[[Fish Pie]]'
p5
I5
sS'[[Carrot]]'
p6
I2
sS'[[Hamburger]]'
p7
I3
sS'[[White Sugar]]'
p8
I3
sS'[[Spicy Pizza]]'
p9
I4
sS'[[Woolly Chaps]]'
p10
I1
sS'[[Cherry]]'
p11
I4
sS'[[Cookie]]'
p12
I5
s.