(dp0
S'[[Pumpkin]]'
p1
I70
sS'[[Blackberry Jam]]'
p2
I16
sS'[[Violet Dress]]'
p3
I40
sS'[[Strawberry Ice Cream]]'
p4
I58
sS'[[Raspberry Muffin]]'
p5
I31
sS'[[Apple Pie]]'
p6
I53
sS'[[Tomato Juice]]'
p7
I30
sS'[[Carrot Cake]]'
p8
I42
sS'[[Vanilla Ice Cream]]'
p9
I15
sS'[[Lure]]'
p10
I49
sS'[[Carrot Pie]]'
p11
I78
sS'[[Tomato]]'
p12
I18
sS'[[Cherry Juice]]'
p13
I57
sS'[[Cheesecake]]'
p14
I87
sS'[[Fish Pie]]'
p15
I11
sS'[[Pancake]]'
p16
I6
sS'[[Popcorn]]'
p17
I33
sS'[[Goat Cheese]]'
p18
I47
sS'[[Potato Bread]]'
p19
I1
sS'[[Goat Feed]]'
p20
I88
sS'[[Red Berry Cake]]'
p21
I46
sS'[[Pizza]]'
p22
I52
sS'[[Syrup]]'
p23
I60
sS'[[Sheep Feed]]'
p24
I23
sS'[[Cherry Popsicle]]'
p25
I37
sS'[[Bacon and Eggs]]'
p26
I76
sS'[[Carrot]]'
p27
I39
sS'[[Carrot Juice]]'
p28
I10
sS'[[Baked Potato]]'
p29
I67
sS'[[Milk]]'
p30
I26
sS'[[Apple Jam]]'
p31
I69
sS'[[Apple]]'
p32
I7
sS'[[Blackberry]]'
p33
I14
sS'[[Cotton Shirt]]'
p34
I63
sS'[[Cream]]'
p35
I64
sS'[[Raspberry Jam]]'
p36
I56
sS'[[Cherry]]'
p37
I20
sS'[[Bread]]'
p38
I45
sS'[[Wheat]]'
p39
I44
sS'[[Casserole]]'
p40
I27
sS'[[Strawberry]]'
p41
I77
sS'[[Honey Popcorn]]'
p42
I81
sS'[[Honeycomb]]'
p43
I29
sS'[[Indigo]]'
p44
I25
sS'[[Raspberry]]'
p45
I90
sS'[[Chocolate Cake]]'
p46
I36
sS'[[Spicy Pizza]]'
p47
I48
sS'[[Cacao]]'
p48
I34
sS'[[Woolly Chaps]]'
p49
I71
sS'[[Honey]]'
p50
I54
sS'[[Egg]]'
p51
I2
sS'[[Strawberry Cake]]'
p52
I59
sS'[[Potato]]'
p53
I62
sS'[[Fish Burger]]'
p54
I68
sS'[[White Sugar]]'
p55
I4
sS'[[Buttered Popcorn]]'
p56
I75
sS'[[Cream Cake]]'
p57
I21
sS'[[Soybean]]'
p58
I32
sS'[[Brown Sugar]]'
p59
I50
sS'[[Blue Woolly Hat]]'
p60
I35
sS'[[Goat Milk]]'
p61
I13
sS'[[Hamburger]]'
p62
I85
sS'[[Cherry Jam]]'
p63
I61
sS"[[Shepherd's Pie]]"
p64
I8
sS'[[Butter]]'
p65
I41
sS'[[Bacon Pie]]'
p66
I66
sS'[[Chili Pepper]]'
p67
I51
sS'[[Pumpkin Pie]]'
p68
I43
sS'[[Corn]]'
p69
I73
sS'[[Fish Fillet]]'
p70
I19
sS'[[Chili Popcorn]]'
p71
I72
sS'[[Bacon]]'
p72
I80
sS'[[Cotton Fabric]]'
p73
I83
sS'[[Blue Sweater]]'
p74
I79
sS'[[Potato Feta Cake]]'
p75
I3
sS'[[Sugarcane]]'
p76
I28
sS'[[Cookie]]'
p77
I12
sS'[[Apple Juice]]'
p78
I89
sS'[[Pig Feed]]'
p79
I84
sS'[[Cotton]]'
p80
I82
sS'[[Feta Pie]]'
p81
I65
sS'[[Cheese]]'
p82
I24
sS'[[Chocolate Ice Cream]]'
p83
I0
sS'[[Chicken Feed]]'
p84
I17
sS'[[Corn Bread]]'
p85
I55
sS'[[Wool]]'
p86
I74
sS'[[Roasted Tomatoes]]'
p87
I5
sS'[[Berry Juice]]'
p88
I22
sS'[[Sweater]]'
p89
I86
sS'[[Blackberry Muffin]]'
p90
I38
sS'[[Cow Feed]]'
p91
I9
s.(dp0
S'[[Corn]]'
p1
I1
sS'[[Strawberry]]'
p2
I2
sS'[[Carrot Cake]]'
p3
I3
sS'[[Goat Milk]]'
p4
I4
sS'[[Hamburger]]'
p5
I3
sS'[[Carrot Juice]]'
p6
I2
sS'[[Honey]]'
p7
I2
sS'[[Bacon]]'
p8
I5
sS'[[Bread]]'
p9
I5
sS'[[Raspberry Muffin]]'
p10
I0
sS'[[Chili Pepper]]'
p11
I5
s.