(dp0
S'[[Pumpkin]]'
p1
I88
sS'[[Blackberry Jam]]'
p2
I1
sS'[[Violet Dress]]'
p3
I48
sS'[[Strawberry Ice Cream]]'
p4
I60
sS'[[Raspberry Muffin]]'
p5
I80
sS'[[Apple Pie]]'
p6
I77
sS'[[Tomato Juice]]'
p7
I28
sS'[[Blue Sweater]]'
p8
I50
sS'[[Honey]]'
p9
I17
sS'[[Vanilla Ice Cream]]'
p10
I49
sS'[[Lure]]'
p11
I22
sS'[[Carrot Pie]]'
p12
I15
sS'[[Tomato]]'
p13
I81
sS'[[Potato]]'
p14
I18
sS'[[Cheesecake]]'
p15
I86
sS'[[Fish Pie]]'
p16
I25
sS'[[Pancake]]'
p17
I70
sS'[[Popcorn]]'
p18
I9
sS'[[Goat Cheese]]'
p19
I55
sS'[[Potato Bread]]'
p20
I54
sS'[[Goat Feed]]'
p21
I76
sS'[[Red Berry Cake]]'
p22
I74
sS'[[Pizza]]'
p23
I64
sS'[[Syrup]]'
p24
I47
sS'[[Sheep Feed]]'
p25
I58
sS'[[Cherry Popsicle]]'
p26
I67
sS'[[Bacon and Eggs]]'
p27
I57
sS'[[Carrot]]'
p28
I73
sS'[[Carrot Juice]]'
p29
I41
sS'[[Baked Potato]]'
p30
I14
sS'[[Milk]]'
p31
I42
sS'[[Apple Jam]]'
p32
I52
sS'[[Apple]]'
p33
I71
sS'[[Blackberry]]'
p34
I75
sS'[[Cotton Shirt]]'
p35
I40
sS'[[Cream]]'
p36
I44
sS'[[Raspberry Jam]]'
p37
I23
sS'[[Cherry]]'
p38
I36
sS'[[Bread]]'
p39
I16
sS'[[Wheat]]'
p40
I61
sS'[[Casserole]]'
p41
I5
sS'[[Strawberry]]'
p42
I53
sS'[[Honey Popcorn]]'
p43
I24
sS'[[Honeycomb]]'
p44
I6
sS'[[Indigo]]'
p45
I84
sS'[[Raspberry]]'
p46
I8
sS'[[Chocolate Cake]]'
p47
I29
sS'[[Spicy Pizza]]'
p48
I62
sS'[[Cacao]]'
p49
I2
sS'[[Woolly Chaps]]'
p50
I38
sS'[[Carrot Cake]]'
p51
I85
sS'[[Egg]]'
p52
I46
sS'[[Strawberry Cake]]'
p53
I35
sS'[[Cherry Juice]]'
p54
I7
sS'[[Fish Burger]]'
p55
I68
sS'[[White Sugar]]'
p56
I12
sS'[[Buttered Popcorn]]'
p57
I69
sS'[[Cream Cake]]'
p58
I3
sS'[[Soybean]]'
p59
I20
sS'[[Brown Sugar]]'
p60
I82
sS'[[Blue Woolly Hat]]'
p61
I66
sS'[[Goat Milk]]'
p62
I59
sS'[[Hamburger]]'
p63
I11
sS'[[Cherry Jam]]'
p64
I56
sS"[[Shepherd's Pie]]"
p65
I79
sS'[[Butter]]'
p66
I30
sS'[[Bacon Pie]]'
p67
I26
sS'[[Chili Pepper]]'
p68
I90
sS'[[Corn]]'
p69
I63
sS'[[Fish Fillet]]'
p70
I27
sS'[[Chili Popcorn]]'
p71
I0
sS'[[Bacon]]'
p72
I37
sS'[[Cotton Fabric]]'
p73
I87
sS'[[Pumpkin Pie]]'
p74
I19
sS'[[Potato Feta Cake]]'
p75
I45
sS'[[Sugarcane]]'
p76
I32
sS'[[Cookie]]'
p77
I4
sS'[[Apple Juice]]'
p78
I34
sS'[[Pig Feed]]'
p79
I39
sS'[[Cotton]]'
p80
I78
sS'[[Feta Pie]]'
p81
I89
sS'[[Cheese]]'
p82
I31
sS'[[Chocolate Ice Cream]]'
p83
I13
sS'[[Chicken Feed]]'
p84
I10
sS'[[Corn Bread]]'
p85
I83
sS'[[Wool]]'
p86
I65
sS'[[Roasted Tomatoes]]'
p87
I43
sS'[[Berry Juice]]'
p88
I51
sS'[[Sweater]]'
p89
I21
sS'[[Blackberry Muffin]]'
p90
I33
sS'[[Cow Feed]]'
p91
I72
s.(dp0
S'[[Wheat]]'
p1
I4
sS'[[Sheep Feed]]'
p2
I3
sS'[[Sweater]]'
p3
I0
sS'[[Apple]]'
p4
I0
sS'[[Carrot Cake]]'
p5
I0
sS'[[Apple Pie]]'
p6
I0
sS'[[Feta Pie]]'
p7
I0
sS'[[Berry Juice]]'
p8
I0
sS'[[Buttered Popcorn]]'
p9
I1
sS'[[Cow Feed]]'
p10
I2
sS'[[Syrup]]'
p11
I0
s.