(dp0
S'[[Pumpkin]]'
p1
I11
sS'[[Blackberry Jam]]'
p2
I60
sS'[[Violet Dress]]'
p3
I50
sS'[[Strawberry Ice Cream]]'
p4
I73
sS'[[Raspberry Muffin]]'
p5
I24
sS'[[Apple Pie]]'
p6
I3
sS'[[Tomato Juice]]'
p7
I79
sS'[[Blue Sweater]]'
p8
I1
sS'[[Honey]]'
p9
I39
sS'[[Vanilla Ice Cream]]'
p10
I48
sS'[[Lure]]'
p11
I72
sS'[[Carrot Pie]]'
p12
I21
sS'[[Tomato]]'
p13
I34
sS'[[Potato]]'
p14
I64
sS'[[Cheesecake]]'
p15
I49
sS'[[Fish Pie]]'
p16
I33
sS'[[Pancake]]'
p17
I86
sS'[[Popcorn]]'
p18
I12
sS'[[Goat Cheese]]'
p19
I42
sS'[[Potato Bread]]'
p20
I36
sS'[[Goat Feed]]'
p21
I0
sS'[[Red Berry Cake]]'
p22
I62
sS'[[Pizza]]'
p23
I17
sS'[[Syrup]]'
p24
I38
sS'[[Sheep Feed]]'
p25
I52
sS'[[Cherry Popsicle]]'
p26
I63
sS'[[Bacon and Eggs]]'
p27
I56
sS'[[Carrot Juice]]'
p28
I8
sS'[[Baked Potato]]'
p29
I22
sS'[[Milk]]'
p30
I40
sS'[[Apple Jam]]'
p31
I53
sS'[[Carrot]]'
p32
I20
sS'[[Blackberry]]'
p33
I66
sS'[[Cotton Shirt]]'
p34
I41
sS'[[Cream]]'
p35
I74
sS'[[Raspberry Jam]]'
p36
I82
sS'[[Cherry]]'
p37
I44
sS'[[Bread]]'
p38
I25
sS'[[Wheat]]'
p39
I47
sS'[[Casserole]]'
p40
I68
sS'[[Chili Pepper]]'
p41
I57
sS'[[Honey Popcorn]]'
p42
I46
sS'[[Honeycomb]]'
p43
I6
sS'[[Indigo]]'
p44
I75
sS'[[Raspberry]]'
p45
I35
sS'[[Chocolate Cake]]'
p46
I70
sS'[[Spicy Pizza]]'
p47
I81
sS'[[Cacao]]'
p48
I77
sS'[[Woolly Chaps]]'
p49
I85
sS'[[Carrot Cake]]'
p50
I5
sS'[[Egg]]'
p51
I32
sS'[[Strawberry Cake]]'
p52
I37
sS'[[Cherry Juice]]'
p53
I65
sS'[[Fish Burger]]'
p54
I16
sS'[[White Sugar]]'
p55
I88
sS'[[Buttered Popcorn]]'
p56
I71
sS'[[Cream Cake]]'
p57
I76
sS'[[Soybean]]'
p58
I26
sS'[[Apple]]'
p59
I55
sS'[[Blue Woolly Hat]]'
p60
I4
sS'[[Goat Milk]]'
p61
I19
sS'[[Hamburger]]'
p62
I10
sS'[[Cherry Jam]]'
p63
I54
sS"[[Shepherd's Pie]]"
p64
I84
sS'[[Brown Sugar]]'
p65
I2
sS'[[Butter]]'
p66
I45
sS'[[Bacon Pie]]'
p67
I90
sS'[[Strawberry]]'
p68
I18
sS'[[Corn]]'
p69
I27
sS'[[Fish Fillet]]'
p70
I31
sS'[[Chili Popcorn]]'
p71
I29
sS'[[Bacon]]'
p72
I87
sS'[[Cotton Fabric]]'
p73
I89
sS'[[Pumpkin Pie]]'
p74
I61
sS'[[Potato Feta Cake]]'
p75
I67
sS'[[Sugarcane]]'
p76
I30
sS'[[Cookie]]'
p77
I43
sS'[[Apple Juice]]'
p78
I9
sS'[[Pig Feed]]'
p79
I13
sS'[[Cotton]]'
p80
I69
sS'[[Feta Pie]]'
p81
I51
sS'[[Cheese]]'
p82
I15
sS'[[Chocolate Ice Cream]]'
p83
I78
sS'[[Chicken Feed]]'
p84
I80
sS'[[Corn Bread]]'
p85
I59
sS'[[Wool]]'
p86
I14
sS'[[Roasted Tomatoes]]'
p87
I28
sS'[[Berry Juice]]'
p88
I23
sS'[[Sweater]]'
p89
I7
sS'[[Blackberry Muffin]]'
p90
I83
sS'[[Cow Feed]]'
p91
I58
s.(dp0
S'[[Bacon]]'
p1
I3
sS'[[Syrup]]'
p2
I3
sS'[[Honey Popcorn]]'
p3
I0
sS'[[Fish Pie]]'
p4
I1
sS'[[Wool]]'
p5
I1
s.