(dp0
S'[[Pumpkin]]'
p1
I83
sS'[[Blackberry Jam]]'
p2
I89
sS'[[Violet Dress]]'
p3
I84
sS'[[Strawberry Ice Cream]]'
p4
I60
sS'[[Raspberry Muffin]]'
p5
I61
sS'[[Apple Pie]]'
p6
I42
sS'[[Tomato Juice]]'
p7
I56
sS'[[Carrot Cake]]'
p8
I10
sS'[[Vanilla Ice Cream]]'
p9
I34
sS'[[Lure]]'
p10
I19
sS'[[Carrot Pie]]'
p11
I13
sS'[[Tomato]]'
p12
I4
sS'[[Cherry Juice]]'
p13
I69
sS'[[Cheesecake]]'
p14
I39
sS'[[Fish Pie]]'
p15
I62
sS'[[Pancake]]'
p16
I2
sS'[[Popcorn]]'
p17
I75
sS'[[Goat Cheese]]'
p18
I49
sS'[[Potato Bread]]'
p19
I54
sS'[[Goat Feed]]'
p20
I67
sS'[[Red Berry Cake]]'
p21
I24
sS'[[Pizza]]'
p22
I8
sS'[[Syrup]]'
p23
I9
sS'[[Sheep Feed]]'
p24
I32
sS'[[Cherry Popsicle]]'
p25
I58
sS'[[Bacon and Eggs]]'
p26
I41
sS'[[Carrot]]'
p27
I45
sS'[[Carrot Juice]]'
p28
I74
sS'[[Baked Potato]]'
p29
I12
sS'[[Milk]]'
p30
I70
sS'[[Apple Jam]]'
p31
I7
sS'[[Apple]]'
p32
I26
sS'[[Blackberry]]'
p33
I25
sS'[[Cotton Shirt]]'
p34
I37
sS'[[Cream]]'
p35
I55
sS'[[Raspberry Jam]]'
p36
I50
sS'[[Cherry]]'
p37
I76
sS'[[Bread]]'
p38
I59
sS'[[Wheat]]'
p39
I21
sS'[[Casserole]]'
p40
I71
sS'[[Strawberry]]'
p41
I27
sS'[[Honey Popcorn]]'
p42
I66
sS'[[Honeycomb]]'
p43
I6
sS'[[Indigo]]'
p44
I30
sS'[[Raspberry]]'
p45
I64
sS'[[Chocolate Cake]]'
p46
I5
sS'[[Spicy Pizza]]'
p47
I47
sS'[[Cacao]]'
p48
I44
sS'[[Woolly Chaps]]'
p49
I68
sS'[[Honey]]'
p50
I36
sS'[[Egg]]'
p51
I28
sS'[[Strawberry Cake]]'
p52
I53
sS'[[Potato]]'
p53
I17
sS'[[Fish Burger]]'
p54
I31
sS'[[White Sugar]]'
p55
I16
sS'[[Buttered Popcorn]]'
p56
I38
sS'[[Cream Cake]]'
p57
I23
sS'[[Soybean]]'
p58
I81
sS'[[Brown Sugar]]'
p59
I79
sS'[[Blue Woolly Hat]]'
p60
I87
sS'[[Goat Milk]]'
p61
I43
sS'[[Hamburger]]'
p62
I3
sS'[[Cherry Jam]]'
p63
I29
sS"[[Shepherd's Pie]]"
p64
I40
sS'[[Butter]]'
p65
I33
sS'[[Bacon Pie]]'
p66
I11
sS'[[Chili Pepper]]'
p67
I18
sS'[[Pumpkin Pie]]'
p68
I63
sS'[[Corn]]'
p69
I46
sS'[[Fish Fillet]]'
p70
I48
sS'[[Chili Popcorn]]'
p71
I82
sS'[[Bacon]]'
p72
I20
sS'[[Cotton Fabric]]'
p73
I22
sS'[[Blue Sweater]]'
p74
I77
sS'[[Potato Feta Cake]]'
p75
I88
sS'[[Sugarcane]]'
p76
I78
sS'[[Cookie]]'
p77
I90
sS'[[Apple Juice]]'
p78
I1
sS'[[Pig Feed]]'
p79
I0
sS'[[Cotton]]'
p80
I80
sS'[[Feta Pie]]'
p81
I73
sS'[[Cheese]]'
p82
I51
sS'[[Chocolate Ice Cream]]'
p83
I65
sS'[[Chicken Feed]]'
p84
I52
sS'[[Corn Bread]]'
p85
I57
sS'[[Wool]]'
p86
I85
sS'[[Roasted Tomatoes]]'
p87
I86
sS'[[Berry Juice]]'
p88
I14
sS'[[Sweater]]'
p89
I15
sS'[[Blackberry Muffin]]'
p90
I72
sS'[[Cow Feed]]'
p91
I35
s.(dp0
S'[[Blackberry Jam]]'
p1
I0
sS'[[Blue Woolly Hat]]'
p2
I1
sS'[[Honey Popcorn]]'
p3
I5
sS'[[Fish Pie]]'
p4
I4
sS'[[Chili Popcorn]]'
p5
I1
sS'[[Bacon]]'
p6
I2
sS'[[Raspberry Jam]]'
p7
I2
s.