(dp0
S'[[Pumpkin]]'
p1
I47
sS'[[Blackberry Jam]]'
p2
I76
sS'[[Violet Dress]]'
p3
I29
sS'[[Strawberry Ice Cream]]'
p4
I11
sS'[[Raspberry Muffin]]'
p5
I51
sS'[[Apple Pie]]'
p6
I35
sS'[[Tomato Juice]]'
p7
I10
sS'[[Blue Sweater]]'
p8
I28
sS'[[Honey]]'
p9
I3
sS'[[Vanilla Ice Cream]]'
p10
I24
sS'[[Lure]]'
p11
I5
sS'[[Carrot Pie]]'
p12
I66
sS'[[Tomato]]'
p13
I72
sS'[[Potato]]'
p14
I80
sS'[[Cheesecake]]'
p15
I37
sS'[[Fish Pie]]'
p16
I13
sS'[[Pancake]]'
p17
I9
sS'[[Popcorn]]'
p18
I39
sS'[[Goat Cheese]]'
p19
I60
sS'[[Potato Bread]]'
p20
I38
sS'[[Goat Feed]]'
p21
I49
sS'[[Red Berry Cake]]'
p22
I41
sS'[[Pizza]]'
p23
I21
sS'[[Syrup]]'
p24
I87
sS'[[Sheep Feed]]'
p25
I68
sS'[[Cherry Popsicle]]'
p26
I27
sS'[[Bacon and Eggs]]'
p27
I50
sS'[[Carrot Juice]]'
p28
I4
sS'[[Baked Potato]]'
p29
I43
sS'[[Milk]]'
p30
I2
sS'[[Apple Jam]]'
p31
I78
sS'[[Carrot]]'
p32
I31
sS'[[Blackberry]]'
p33
I44
sS'[[Cotton Shirt]]'
p34
I20
sS'[[Cream]]'
p35
I23
sS'[[Raspberry Jam]]'
p36
I84
sS'[[Cherry]]'
p37
I56
sS'[[Bread]]'
p38
I15
sS'[[Wheat]]'
p39
I61
sS'[[Casserole]]'
p40
I73
sS'[[Chili Pepper]]'
p41
I79
sS'[[Honey Popcorn]]'
p42
I64
sS'[[Honeycomb]]'
p43
I57
sS'[[Indigo]]'
p44
I59
sS'[[Raspberry]]'
p45
I26
sS'[[Chocolate Cake]]'
p46
I32
sS'[[Spicy Pizza]]'
p47
I88
sS'[[Cacao]]'
p48
I77
sS'[[Woolly Chaps]]'
p49
I14
sS'[[Carrot Cake]]'
p50
I45
sS'[[Egg]]'
p51
I36
sS'[[Strawberry Cake]]'
p52
I81
sS'[[Cherry Juice]]'
p53
I62
sS'[[Fish Burger]]'
p54
I17
sS'[[White Sugar]]'
p55
I0
sS'[[Buttered Popcorn]]'
p56
I25
sS'[[Cream Cake]]'
p57
I65
sS'[[Soybean]]'
p58
I19
sS'[[Apple]]'
p59
I40
sS'[[Blue Woolly Hat]]'
p60
I1
sS'[[Goat Milk]]'
p61
I90
sS'[[Hamburger]]'
p62
I7
sS'[[Cherry Jam]]'
p63
I82
sS"[[Shepherd's Pie]]"
p64
I83
sS'[[Brown Sugar]]'
p65
I30
sS'[[Butter]]'
p66
I70
sS'[[Bacon Pie]]'
p67
I8
sS'[[Strawberry]]'
p68
I71
sS'[[Corn]]'
p69
I22
sS'[[Fish Fillet]]'
p70
I52
sS'[[Chili Popcorn]]'
p71
I63
sS'[[Bacon]]'
p72
I89
sS'[[Cotton Fabric]]'
p73
I46
sS'[[Pumpkin Pie]]'
p74
I55
sS'[[Potato Feta Cake]]'
p75
I74
sS'[[Sugarcane]]'
p76
I53
sS'[[Cookie]]'
p77
I86
sS'[[Apple Juice]]'
p78
I85
sS'[[Pig Feed]]'
p79
I18
sS'[[Cotton]]'
p80
I54
sS'[[Feta Pie]]'
p81
I33
sS'[[Cheese]]'
p82
I58
sS'[[Chocolate Ice Cream]]'
p83
I12
sS'[[Chicken Feed]]'
p84
I42
sS'[[Corn Bread]]'
p85
I67
sS'[[Wool]]'
p86
I6
sS'[[Roasted Tomatoes]]'
p87
I16
sS'[[Berry Juice]]'
p88
I48
sS'[[Sweater]]'
p89
I34
sS'[[Blackberry Muffin]]'
p90
I69
sS'[[Cow Feed]]'
p91
I75
s.(dp0
S'[[Wheat]]'
p1
I5
sS'[[Apple]]'
p2
I0
sS'[[Casserole]]'
p3
I5
sS'[[Strawberry]]'
p4
I1
sS'[[Cherry Popsicle]]'
p5
I1
sS'[[Carrot Cake]]'
p6
I5
sS'[[Sheep Feed]]'
p7
I2
sS'[[Carrot Juice]]'
p8
I1
sS'[[Chocolate Cake]]'
p9
I2
sS'[[Blackberry]]'
p10
I2
sS'[[Cream Cake]]'
p11
I2
s.