(dp0
S'[[Pumpkin]]'
p1
I81
sS'[[Blackberry Jam]]'
p2
I82
sS'[[Violet Dress]]'
p3
I9
sS'[[Strawberry Ice Cream]]'
p4
I51
sS'[[Raspberry Muffin]]'
p5
I40
sS'[[Apple Pie]]'
p6
I72
sS'[[Tomato Juice]]'
p7
I31
sS'[[Blue Sweater]]'
p8
I7
sS'[[Honey]]'
p9
I64
sS'[[Vanilla Ice Cream]]'
p10
I18
sS'[[Lure]]'
p11
I85
sS'[[Carrot Pie]]'
p12
I20
sS'[[Tomato]]'
p13
I22
sS'[[Potato]]'
p14
I41
sS'[[Cheesecake]]'
p15
I74
sS'[[Fish Pie]]'
p16
I27
sS'[[Pancake]]'
p17
I21
sS'[[Popcorn]]'
p18
I36
sS'[[Goat Cheese]]'
p19
I65
sS'[[Potato Bread]]'
p20
I1
sS'[[Goat Feed]]'
p21
I61
sS'[[Red Berry Cake]]'
p22
I44
sS'[[Pizza]]'
p23
I13
sS'[[Syrup]]'
p24
I63
sS'[[Sheep Feed]]'
p25
I70
sS'[[Cherry Popsicle]]'
p26
I58
sS'[[Bacon and Eggs]]'
p27
I87
sS'[[Carrot Juice]]'
p28
I53
sS'[[Baked Potato]]'
p29
I80
sS'[[Milk]]'
p30
I23
sS'[[Apple Jam]]'
p31
I2
sS'[[Carrot]]'
p32
I17
sS'[[Blackberry]]'
p33
I66
sS'[[Cotton Shirt]]'
p34
I89
sS'[[Cream]]'
p35
I43
sS'[[Raspberry Jam]]'
p36
I69
sS'[[Cherry]]'
p37
I8
sS'[[Bread]]'
p38
I68
sS'[[Wheat]]'
p39
I25
sS'[[Casserole]]'
p40
I14
sS'[[Chili Pepper]]'
p41
I46
sS'[[Honey Popcorn]]'
p42
I57
sS'[[Honeycomb]]'
p43
I59
sS'[[Indigo]]'
p44
I39
sS'[[Raspberry]]'
p45
I84
sS'[[Chocolate Cake]]'
p46
I52
sS'[[Spicy Pizza]]'
p47
I4
sS'[[Cacao]]'
p48
I88
sS'[[Woolly Chaps]]'
p49
I48
sS'[[Carrot Cake]]'
p50
I15
sS'[[Egg]]'
p51
I55
sS'[[Strawberry Cake]]'
p52
I29
sS'[[Cherry Juice]]'
p53
I50
sS'[[Fish Burger]]'
p54
I60
sS'[[White Sugar]]'
p55
I16
sS'[[Buttered Popcorn]]'
p56
I75
sS'[[Cream Cake]]'
p57
I33
sS'[[Soybean]]'
p58
I10
sS'[[Apple]]'
p59
I0
sS'[[Blue Woolly Hat]]'
p60
I11
sS'[[Goat Milk]]'
p61
I28
sS'[[Hamburger]]'
p62
I77
sS'[[Cherry Jam]]'
p63
I3
sS"[[Shepherd's Pie]]"
p64
I6
sS'[[Brown Sugar]]'
p65
I67
sS'[[Butter]]'
p66
I38
sS'[[Bacon Pie]]'
p67
I24
sS'[[Strawberry]]'
p68
I35
sS'[[Corn]]'
p69
I78
sS'[[Fish Fillet]]'
p70
I12
sS'[[Chili Popcorn]]'
p71
I45
sS'[[Bacon]]'
p72
I56
sS'[[Cotton Fabric]]'
p73
I83
sS'[[Pumpkin Pie]]'
p74
I76
sS'[[Potato Feta Cake]]'
p75
I26
sS'[[Sugarcane]]'
p76
I42
sS'[[Cookie]]'
p77
I49
sS'[[Apple Juice]]'
p78
I5
sS'[[Pig Feed]]'
p79
I47
sS'[[Cotton]]'
p80
I62
sS'[[Feta Pie]]'
p81
I19
sS'[[Cheese]]'
p82
I30
sS'[[Chocolate Ice Cream]]'
p83
I71
sS'[[Chicken Feed]]'
p84
I32
sS'[[Corn Bread]]'
p85
I79
sS'[[Wool]]'
p86
I37
sS'[[Roasted Tomatoes]]'
p87
I54
sS'[[Berry Juice]]'
p88
I90
sS'[[Sweater]]'
p89
I73
sS'[[Blackberry Muffin]]'
p90
I34
sS'[[Cow Feed]]'
p91
I86
s.(dp0
S'[[Tomato]]'
p1
I2
sS'[[Cheesecake]]'
p2
I4
sS'[[Roasted Tomatoes]]'
p3
I1
sS'[[Woolly Chaps]]'
p4
I4
sS'[[Blue Woolly Hat]]'
p5
I2
sS'[[Honey Popcorn]]'
p6
I4
sS'[[Cotton Shirt]]'
p7
I5
sS'[[Butter]]'
p8
I1
sS'[[Sugarcane]]'
p9
I0
sS'[[Cream Cake]]'
p10
I2
sS'[[Potato Bread]]'
p11
I0
s.