(dp0
S'[[Pumpkin]]'
p1
I21
sS'[[Blackberry Jam]]'
p2
I86
sS'[[Violet Dress]]'
p3
I82
sS'[[Strawberry Ice Cream]]'
p4
I66
sS'[[Raspberry Muffin]]'
p5
I28
sS'[[Apple Pie]]'
p6
I39
sS'[[Tomato Juice]]'
p7
I45
sS'[[Blue Sweater]]'
p8
I52
sS'[[Honey]]'
p9
I50
sS'[[Vanilla Ice Cream]]'
p10
I40
sS'[[Lure]]'
p11
I74
sS'[[Carrot Pie]]'
p12
I4
sS'[[Tomato]]'
p13
I24
sS'[[Potato]]'
p14
I27
sS'[[Cheesecake]]'
p15
I75
sS'[[Fish Pie]]'
p16
I8
sS'[[Pancake]]'
p17
I54
sS'[[Popcorn]]'
p18
I77
sS'[[Goat Cheese]]'
p19
I2
sS'[[Potato Bread]]'
p20
I68
sS'[[Goat Feed]]'
p21
I14
sS'[[Red Berry Cake]]'
p22
I30
sS'[[Pizza]]'
p23
I20
sS'[[Syrup]]'
p24
I37
sS'[[Sheep Feed]]'
p25
I5
sS'[[Cherry Popsicle]]'
p26
I80
sS'[[Bacon and Eggs]]'
p27
I12
sS'[[Carrot Juice]]'
p28
I87
sS'[[Baked Potato]]'
p29
I62
sS'[[Milk]]'
p30
I49
sS'[[Apple Jam]]'
p31
I19
sS'[[Carrot]]'
p32
I59
sS'[[Blackberry]]'
p33
I85
sS'[[Cotton Shirt]]'
p34
I48
sS'[[Cream]]'
p35
I60
sS'[[Raspberry Jam]]'
p36
I13
sS'[[Cherry]]'
p37
I51
sS'[[Bread]]'
p38
I79
sS'[[Wheat]]'
p39
I41
sS'[[Casserole]]'
p40
I53
sS'[[Chili Pepper]]'
p41
I69
sS'[[Honey Popcorn]]'
p42
I32
sS'[[Honeycomb]]'
p43
I6
sS'[[Indigo]]'
p44
I57
sS'[[Raspberry]]'
p45
I11
sS'[[Chocolate Cake]]'
p46
I67
sS'[[Spicy Pizza]]'
p47
I17
sS'[[Cacao]]'
p48
I23
sS'[[Woolly Chaps]]'
p49
I16
sS'[[Carrot Cake]]'
p50
I3
sS'[[Egg]]'
p51
I55
sS'[[Strawberry Cake]]'
p52
I25
sS'[[Cherry Juice]]'
p53
I64
sS'[[Fish Burger]]'
p54
I9
sS'[[White Sugar]]'
p55
I26
sS'[[Buttered Popcorn]]'
p56
I65
sS'[[Cream Cake]]'
p57
I73
sS'[[Soybean]]'
p58
I44
sS'[[Apple]]'
p59
I1
sS'[[Blue Woolly Hat]]'
p60
I31
sS'[[Goat Milk]]'
p61
I61
sS'[[Hamburger]]'
p62
I18
sS'[[Cherry Jam]]'
p63
I70
sS"[[Shepherd's Pie]]"
p64
I71
sS'[[Brown Sugar]]'
p65
I84
sS'[[Butter]]'
p66
I43
sS'[[Bacon Pie]]'
p67
I10
sS'[[Strawberry]]'
p68
I76
sS'[[Corn]]'
p69
I81
sS'[[Fish Fillet]]'
p70
I38
sS'[[Chili Popcorn]]'
p71
I63
sS'[[Bacon]]'
p72
I78
sS'[[Cotton Fabric]]'
p73
I35
sS'[[Pumpkin Pie]]'
p74
I90
sS'[[Potato Feta Cake]]'
p75
I7
sS'[[Sugarcane]]'
p76
I72
sS'[[Cookie]]'
p77
I33
sS'[[Apple Juice]]'
p78
I83
sS'[[Pig Feed]]'
p79
I42
sS'[[Cotton]]'
p80
I47
sS'[[Feta Pie]]'
p81
I58
sS'[[Cheese]]'
p82
I88
sS'[[Chocolate Ice Cream]]'
p83
I89
sS'[[Chicken Feed]]'
p84
I15
sS'[[Corn Bread]]'
p85
I46
sS'[[Wool]]'
p86
I0
sS'[[Roasted Tomatoes]]'
p87
I36
sS'[[Berry Juice]]'
p88
I34
sS'[[Sweater]]'
p89
I56
sS'[[Blackberry Muffin]]'
p90
I22
sS'[[Cow Feed]]'
p91
I29
s.(dp0
S'[[Wheat]]'
p1
I2
sS'[[Strawberry]]'
p2
I3
sS'[[Honeycomb]]'
p3
I0
sS'[[Indigo]]'
p4
I4
sS'[[Vanilla Ice Cream]]'
p5
I2
sS'[[Milk]]'
p6
I5
sS'[[Sweater]]'
p7
I1
sS'[[Raspberry Jam]]'
p8
I3
sS'[[Cow Feed]]'
p9
I1
sS'[[Syrup]]'
p10
I4
sS'[[Chocolate Ice Cream]]'
p11
I5
s.