(dp0
S'[[Pumpkin]]'
p1
I83
sS'[[Blackberry Jam]]'
p2
I58
sS'[[Violet Dress]]'
p3
I34
sS'[[Strawberry Ice Cream]]'
p4
I6
sS'[[Raspberry Muffin]]'
p5
I76
sS'[[Apple Pie]]'
p6
I0
sS'[[Tomato Juice]]'
p7
I59
sS'[[Carrot Cake]]'
p8
I14
sS'[[Vanilla Ice Cream]]'
p9
I87
sS'[[Lure]]'
p10
I25
sS'[[Carrot Pie]]'
p11
I17
sS'[[Tomato]]'
p12
I13
sS'[[Cherry Juice]]'
p13
I63
sS'[[Cheesecake]]'
p14
I44
sS'[[Fish Pie]]'
p15
I51
sS'[[Pancake]]'
p16
I60
sS'[[Popcorn]]'
p17
I70
sS'[[Goat Cheese]]'
p18
I80
sS'[[Potato Bread]]'
p19
I65
sS'[[Goat Feed]]'
p20
I47
sS'[[Red Berry Cake]]'
p21
I69
sS'[[Pizza]]'
p22
I41
sS'[[Syrup]]'
p23
I66
sS'[[Sheep Feed]]'
p24
I57
sS'[[Cherry Popsicle]]'
p25
I19
sS'[[Bacon and Eggs]]'
p26
I31
sS'[[Carrot Juice]]'
p27
I52
sS'[[Baked Potato]]'
p28
I9
sS'[[Milk]]'
p29
I88
sS'[[Apple Jam]]'
p30
I20
sS'[[Carrot]]'
p31
I3
sS'[[Blackberry]]'
p32
I4
sS'[[Cotton Shirt]]'
p33
I49
sS'[[Cream]]'
p34
I16
sS'[[Raspberry Jam]]'
p35
I8
sS'[[Cherry]]'
p36
I30
sS'[[Bread]]'
p37
I2
sS'[[Wheat]]'
p38
I42
sS'[[Casserole]]'
p39
I84
sS'[[Chili Pepper]]'
p40
I74
sS'[[Honey Popcorn]]'
p41
I72
sS'[[Honeycomb]]'
p42
I11
sS'[[Indigo]]'
p43
I77
sS'[[Raspberry]]'
p44
I67
sS'[[Chocolate Cake]]'
p45
I78
sS'[[Spicy Pizza]]'
p46
I21
sS'[[Cacao]]'
p47
I73
sS'[[Woolly Chaps]]'
p48
I26
sS'[[Honey]]'
p49
I36
sS'[[Egg]]'
p50
I35
sS'[[Strawberry Cake]]'
p51
I22
sS'[[Potato]]'
p52
I12
sS'[[Fish Burger]]'
p53
I89
sS'[[White Sugar]]'
p54
I39
sS'[[Buttered Popcorn]]'
p55
I29
sS'[[Cream Cake]]'
p56
I32
sS'[[Soybean]]'
p57
I5
sS'[[Apple]]'
p58
I85
sS'[[Blue Woolly Hat]]'
p59
I53
sS'[[Goat Milk]]'
p60
I23
sS'[[Hamburger]]'
p61
I45
sS'[[Cherry Jam]]'
p62
I62
sS"[[Shepherd's Pie]]"
p63
I37
sS'[[Brown Sugar]]'
p64
I27
sS'[[Butter]]'
p65
I81
sS'[[Bacon Pie]]'
p66
I10
sS'[[Strawberry]]'
p67
I33
sS'[[Pumpkin Pie]]'
p68
I43
sS'[[Corn]]'
p69
I18
sS'[[Fish Fillet]]'
p70
I61
sS'[[Chili Popcorn]]'
p71
I28
sS'[[Bacon]]'
p72
I64
sS'[[Cotton Fabric]]'
p73
I90
sS'[[Blue Sweater]]'
p74
I15
sS'[[Potato Feta Cake]]'
p75
I38
sS'[[Sugarcane]]'
p76
I1
sS'[[Cookie]]'
p77
I82
sS'[[Apple Juice]]'
p78
I40
sS'[[Pig Feed]]'
p79
I55
sS'[[Cotton]]'
p80
I24
sS'[[Feta Pie]]'
p81
I71
sS'[[Cheese]]'
p82
I79
sS'[[Chocolate Ice Cream]]'
p83
I56
sS'[[Chicken Feed]]'
p84
I86
sS'[[Corn Bread]]'
p85
I68
sS'[[Wool]]'
p86
I46
sS'[[Roasted Tomatoes]]'
p87
I48
sS'[[Berry Juice]]'
p88
I54
sS'[[Sweater]]'
p89
I7
sS'[[Blackberry Muffin]]'
p90
I50
sS'[[Cow Feed]]'
p91
I75
s.(dp0
S'[[Apple]]'
p1
I1
sS'[[Casserole]]'
p2
I5
sS'[[Cherry Popsicle]]'
p3
I0
sS'[[Carrot Pie]]'
p4
I2
sS'[[Potato]]'
p5
I4
sS'[[Cotton Shirt]]'
p6
I4
sS'[[Baked Potato]]'
p7
I2
sS'[[Vanilla Ice Cream]]'
p8
I5
sS'[[White Sugar]]'
p9
I1
sS'[[Chocolate Cake]]'
p10
I1
sS'[[Soybean]]'
p11
I3
s.