(dp0
S'[[Pumpkin]]'
p1
I72
sS'[[Blackberry Jam]]'
p2
I6
sS'[[Violet Dress]]'
p3
I50
sS'[[Strawberry Ice Cream]]'
p4
I32
sS'[[Raspberry Muffin]]'
p5
I74
sS'[[Apple Pie]]'
p6
I69
sS'[[Tomato Juice]]'
p7
I30
sS'[[Blue Sweater]]'
p8
I36
sS'[[Honey]]'
p9
I64
sS'[[Vanilla Ice Cream]]'
p10
I24
sS'[[Lure]]'
p11
I68
sS'[[Carrot Pie]]'
p12
I20
sS'[[Tomato]]'
p13
I26
sS'[[Potato]]'
p14
I23
sS'[[Cheesecake]]'
p15
I83
sS'[[Fish Pie]]'
p16
I45
sS'[[Pancake]]'
p17
I86
sS'[[Popcorn]]'
p18
I29
sS'[[Goat Cheese]]'
p19
I0
sS'[[Potato Bread]]'
p20
I79
sS'[[Goat Feed]]'
p21
I82
sS'[[Red Berry Cake]]'
p22
I61
sS'[[Pizza]]'
p23
I88
sS'[[Syrup]]'
p24
I3
sS'[[Sheep Feed]]'
p25
I10
sS'[[Cherry Popsicle]]'
p26
I76
sS'[[Bacon and Eggs]]'
p27
I22
sS'[[Carrot Juice]]'
p28
I54
sS'[[Baked Potato]]'
p29
I34
sS'[[Milk]]'
p30
I48
sS'[[Apple Jam]]'
p31
I59
sS'[[Carrot]]'
p32
I5
sS'[[Blackberry]]'
p33
I53
sS'[[Cotton Shirt]]'
p34
I25
sS'[[Cream]]'
p35
I15
sS'[[Raspberry Jam]]'
p36
I4
sS'[[Cherry]]'
p37
I39
sS'[[Bread]]'
p38
I35
sS'[[Wheat]]'
p39
I14
sS'[[Casserole]]'
p40
I55
sS'[[Chili Pepper]]'
p41
I12
sS'[[Honey Popcorn]]'
p42
I73
sS'[[Honeycomb]]'
p43
I60
sS'[[Indigo]]'
p44
I28
sS'[[Raspberry]]'
p45
I1
sS'[[Chocolate Cake]]'
p46
I41
sS'[[Spicy Pizza]]'
p47
I9
sS'[[Cacao]]'
p48
I42
sS'[[Woolly Chaps]]'
p49
I27
sS'[[Carrot Cake]]'
p50
I57
sS'[[Egg]]'
p51
I11
sS'[[Strawberry Cake]]'
p52
I90
sS'[[Cherry Juice]]'
p53
I33
sS'[[Fish Burger]]'
p54
I18
sS'[[White Sugar]]'
p55
I17
sS'[[Buttered Popcorn]]'
p56
I89
sS'[[Cream Cake]]'
p57
I71
sS'[[Soybean]]'
p58
I8
sS'[[Apple]]'
p59
I85
sS'[[Blue Woolly Hat]]'
p60
I21
sS'[[Goat Milk]]'
p61
I78
sS'[[Hamburger]]'
p62
I47
sS'[[Cherry Jam]]'
p63
I63
sS"[[Shepherd's Pie]]"
p64
I66
sS'[[Brown Sugar]]'
p65
I62
sS'[[Butter]]'
p66
I58
sS'[[Bacon Pie]]'
p67
I70
sS'[[Strawberry]]'
p68
I38
sS'[[Corn]]'
p69
I16
sS'[[Fish Fillet]]'
p70
I7
sS'[[Chili Popcorn]]'
p71
I56
sS'[[Bacon]]'
p72
I75
sS'[[Cotton Fabric]]'
p73
I84
sS'[[Pumpkin Pie]]'
p74
I43
sS'[[Potato Feta Cake]]'
p75
I2
sS'[[Sugarcane]]'
p76
I65
sS'[[Cookie]]'
p77
I37
sS'[[Apple Juice]]'
p78
I77
sS'[[Pig Feed]]'
p79
I67
sS'[[Cotton]]'
p80
I80
sS'[[Feta Pie]]'
p81
I40
sS'[[Cheese]]'
p82
I31
sS'[[Chocolate Ice Cream]]'
p83
I19
sS'[[Chicken Feed]]'
p84
I87
sS'[[Corn Bread]]'
p85
I52
sS'[[Wool]]'
p86
I49
sS'[[Roasted Tomatoes]]'
p87
I46
sS'[[Berry Juice]]'
p88
I81
sS'[[Sweater]]'
p89
I51
sS'[[Blackberry Muffin]]'
p90
I13
sS'[[Cow Feed]]'
p91
I44
s.(dp0
S'[[Pumpkin Pie]]'
p1
I2
sS'[[Bread]]'
p2
I4
sS'[[Popcorn]]'
p3
I0
sS'[[Raspberry Muffin]]'
p4
I2
sS'[[Egg]]'
p5
I4
sS'[[Pancake]]'
p6
I2
sS'[[Sugarcane]]'
p7
I0
sS'[[Cheese]]'
p8
I0
sS'[[Chocolate Cake]]'
p9
I2
sS'[[Apple Juice]]'
p10
I1
sS'[[Goat Feed]]'
p11
I3
s.