(dp0
S'[[Pumpkin]]'
p1
I14
sS'[[Blackberry Jam]]'
p2
I60
sS'[[Violet Dress]]'
p3
I35
sS'[[Strawberry Ice Cream]]'
p4
I88
sS'[[Raspberry Muffin]]'
p5
I76
sS'[[Apple Pie]]'
p6
I56
sS'[[Tomato Juice]]'
p7
I54
sS'[[Carrot Cake]]'
p8
I15
sS'[[Vanilla Ice Cream]]'
p9
I47
sS'[[Lure]]'
p10
I40
sS'[[Carrot Pie]]'
p11
I55
sS'[[Tomato]]'
p12
I89
sS'[[Cherry Juice]]'
p13
I31
sS'[[Cheesecake]]'
p14
I23
sS'[[Fish Pie]]'
p15
I85
sS'[[Pancake]]'
p16
I69
sS'[[Popcorn]]'
p17
I61
sS'[[Goat Cheese]]'
p18
I39
sS'[[Potato Bread]]'
p19
I90
sS'[[Goat Feed]]'
p20
I58
sS'[[Red Berry Cake]]'
p21
I43
sS'[[Pizza]]'
p22
I42
sS'[[Syrup]]'
p23
I36
sS'[[Sheep Feed]]'
p24
I21
sS'[[Cherry Popsicle]]'
p25
I29
sS'[[Bacon and Eggs]]'
p26
I51
sS'[[Carrot Juice]]'
p27
I59
sS'[[Baked Potato]]'
p28
I48
sS'[[Milk]]'
p29
I13
sS'[[Apple Jam]]'
p30
I50
sS'[[Carrot]]'
p31
I9
sS'[[Blackberry]]'
p32
I77
sS'[[Cotton Shirt]]'
p33
I20
sS'[[Cream]]'
p34
I34
sS'[[Raspberry Jam]]'
p35
I68
sS'[[Cherry]]'
p36
I22
sS'[[Bread]]'
p37
I81
sS'[[Wheat]]'
p38
I32
sS'[[Casserole]]'
p39
I17
sS'[[Chili Pepper]]'
p40
I3
sS'[[Honey Popcorn]]'
p41
I10
sS'[[Honeycomb]]'
p42
I57
sS'[[Indigo]]'
p43
I70
sS'[[Raspberry]]'
p44
I74
sS'[[Chocolate Cake]]'
p45
I46
sS'[[Spicy Pizza]]'
p46
I33
sS'[[Cacao]]'
p47
I71
sS'[[Woolly Chaps]]'
p48
I82
sS'[[Honey]]'
p49
I83
sS'[[Egg]]'
p50
I52
sS'[[Strawberry Cake]]'
p51
I41
sS'[[Potato]]'
p52
I80
sS'[[Fish Burger]]'
p53
I38
sS'[[White Sugar]]'
p54
I5
sS'[[Buttered Popcorn]]'
p55
I24
sS'[[Cream Cake]]'
p56
I2
sS'[[Soybean]]'
p57
I28
sS'[[Apple]]'
p58
I25
sS'[[Blue Woolly Hat]]'
p59
I79
sS'[[Goat Milk]]'
p60
I45
sS'[[Hamburger]]'
p61
I66
sS'[[Cherry Jam]]'
p62
I4
sS"[[Shepherd's Pie]]"
p63
I12
sS'[[Brown Sugar]]'
p64
I16
sS'[[Butter]]'
p65
I1
sS'[[Bacon Pie]]'
p66
I44
sS'[[Strawberry]]'
p67
I37
sS'[[Pumpkin Pie]]'
p68
I62
sS'[[Corn]]'
p69
I18
sS'[[Fish Fillet]]'
p70
I7
sS'[[Chili Popcorn]]'
p71
I65
sS'[[Bacon]]'
p72
I8
sS'[[Cotton Fabric]]'
p73
I6
sS'[[Blue Sweater]]'
p74
I19
sS'[[Potato Feta Cake]]'
p75
I11
sS'[[Sugarcane]]'
p76
I0
sS'[[Cookie]]'
p77
I30
sS'[[Apple Juice]]'
p78
I53
sS'[[Pig Feed]]'
p79
I27
sS'[[Cotton]]'
p80
I78
sS'[[Feta Pie]]'
p81
I84
sS'[[Cheese]]'
p82
I64
sS'[[Chocolate Ice Cream]]'
p83
I72
sS'[[Chicken Feed]]'
p84
I75
sS'[[Corn Bread]]'
p85
I87
sS'[[Wool]]'
p86
I86
sS'[[Roasted Tomatoes]]'
p87
I63
sS'[[Berry Juice]]'
p88
I26
sS'[[Sweater]]'
p89
I67
sS'[[Blackberry Muffin]]'
p90
I73
sS'[[Cow Feed]]'
p91
I49
s.(dp0
S'[[Brown Sugar]]'
p1
I4
sS'[[Potato Feta Cake]]'
p2
I3
sS'[[Fish Fillet]]'
p3
I1
sS'[[Blackberry Jam]]'
p4
I2
sS'[[Strawberry Cake]]'
p5
I5
sS'[[Potato]]'
p6
I4
sS'[[Cookie]]'
p7
I3
sS'[[Tomato Juice]]'
p8
I3
sS'[[Fish Burger]]'
p9
I5
sS'[[Cheese]]'
p10
I4
sS'[[Apple Jam]]'
p11
I1
s.