(dp0
S'[[Pumpkin]]'
p1
I59
sS'[[Blackberry Jam]]'
p2
I20
sS'[[Violet Dress]]'
p3
I19
sS'[[Strawberry Ice Cream]]'
p4
I50
sS'[[Raspberry Muffin]]'
p5
I27
sS'[[Apple Pie]]'
p6
I69
sS'[[Tomato Juice]]'
p7
I7
sS'[[Blue Sweater]]'
p8
I24
sS'[[Honey]]'
p9
I63
sS'[[Vanilla Ice Cream]]'
p10
I11
sS'[[Lure]]'
p11
I70
sS'[[Carrot Pie]]'
p12
I23
sS'[[Tomato]]'
p13
I30
sS'[[Potato]]'
p14
I16
sS'[[Cheesecake]]'
p15
I49
sS'[[Fish Pie]]'
p16
I87
sS'[[Pancake]]'
p17
I61
sS'[[Popcorn]]'
p18
I66
sS'[[Goat Cheese]]'
p19
I0
sS'[[Potato Bread]]'
p20
I22
sS'[[Goat Feed]]'
p21
I79
sS'[[Red Berry Cake]]'
p22
I90
sS'[[Pizza]]'
p23
I64
sS'[[Syrup]]'
p24
I42
sS'[[Sheep Feed]]'
p25
I44
sS'[[Cherry Popsicle]]'
p26
I39
sS'[[Bacon and Eggs]]'
p27
I4
sS'[[Carrot Juice]]'
p28
I15
sS'[[Baked Potato]]'
p29
I25
sS'[[Milk]]'
p30
I9
sS'[[Apple Jam]]'
p31
I18
sS'[[Carrot]]'
p32
I8
sS'[[Blackberry]]'
p33
I14
sS'[[Cotton Shirt]]'
p34
I81
sS'[[Cream]]'
p35
I28
sS'[[Raspberry Jam]]'
p36
I32
sS'[[Cherry]]'
p37
I51
sS'[[Bread]]'
p38
I68
sS'[[Wheat]]'
p39
I72
sS'[[Casserole]]'
p40
I17
sS'[[Chili Pepper]]'
p41
I78
sS'[[Honey Popcorn]]'
p42
I5
sS'[[Honeycomb]]'
p43
I60
sS'[[Indigo]]'
p44
I88
sS'[[Raspberry]]'
p45
I10
sS'[[Chocolate Cake]]'
p46
I77
sS'[[Spicy Pizza]]'
p47
I2
sS'[[Cacao]]'
p48
I56
sS'[[Woolly Chaps]]'
p49
I62
sS'[[Carrot Cake]]'
p50
I31
sS'[[Egg]]'
p51
I37
sS'[[Strawberry Cake]]'
p52
I34
sS'[[Cherry Juice]]'
p53
I58
sS'[[Fish Burger]]'
p54
I41
sS'[[White Sugar]]'
p55
I76
sS'[[Buttered Popcorn]]'
p56
I74
sS'[[Cream Cake]]'
p57
I26
sS'[[Soybean]]'
p58
I33
sS'[[Apple]]'
p59
I38
sS'[[Blue Woolly Hat]]'
p60
I82
sS'[[Goat Milk]]'
p61
I29
sS'[[Hamburger]]'
p62
I1
sS'[[Cherry Jam]]'
p63
I67
sS"[[Shepherd's Pie]]"
p64
I85
sS'[[Brown Sugar]]'
p65
I45
sS'[[Butter]]'
p66
I52
sS'[[Bacon Pie]]'
p67
I75
sS'[[Strawberry]]'
p68
I36
sS'[[Corn]]'
p69
I86
sS'[[Fish Fillet]]'
p70
I40
sS'[[Chili Popcorn]]'
p71
I71
sS'[[Bacon]]'
p72
I73
sS'[[Cotton Fabric]]'
p73
I13
sS'[[Pumpkin Pie]]'
p74
I83
sS'[[Potato Feta Cake]]'
p75
I3
sS'[[Sugarcane]]'
p76
I57
sS'[[Cookie]]'
p77
I47
sS'[[Apple Juice]]'
p78
I54
sS'[[Pig Feed]]'
p79
I53
sS'[[Cotton]]'
p80
I12
sS'[[Feta Pie]]'
p81
I55
sS'[[Cheese]]'
p82
I6
sS'[[Chocolate Ice Cream]]'
p83
I48
sS'[[Chicken Feed]]'
p84
I80
sS'[[Corn Bread]]'
p85
I84
sS'[[Wool]]'
p86
I89
sS'[[Roasted Tomatoes]]'
p87
I46
sS'[[Berry Juice]]'
p88
I65
sS'[[Sweater]]'
p89
I35
sS'[[Blackberry Muffin]]'
p90
I21
sS'[[Cow Feed]]'
p91
I43
s.(dp0
S'[[Raspberry Muffin]]'
p1
I4
sS'[[Roasted Tomatoes]]'
p2
I1
sS'[[Blackberry]]'
p3
I1
sS'[[Feta Pie]]'
p4
I0
sS'[[Butter]]'
p5
I2
sS'[[Cookie]]'
p6
I3
sS'[[Chicken Feed]]'
p7
I1
s.