(dp0
S'[[Pumpkin]]'
p1
I9
sS'[[Blackberry Jam]]'
p2
I63
sS'[[Violet Dress]]'
p3
I56
sS'[[Strawberry Ice Cream]]'
p4
I37
sS'[[Raspberry Muffin]]'
p5
I27
sS'[[Apple Pie]]'
p6
I61
sS'[[Tomato Juice]]'
p7
I81
sS'[[Carrot Cake]]'
p8
I36
sS'[[Vanilla Ice Cream]]'
p9
I19
sS'[[Lure]]'
p10
I40
sS'[[Carrot Pie]]'
p11
I34
sS'[[Tomato]]'
p12
I8
sS'[[Cherry Juice]]'
p13
I54
sS'[[Cheesecake]]'
p14
I32
sS'[[Fish Pie]]'
p15
I82
sS'[[Pancake]]'
p16
I84
sS'[[Popcorn]]'
p17
I48
sS'[[Goat Cheese]]'
p18
I23
sS'[[Potato Bread]]'
p19
I62
sS'[[Goat Feed]]'
p20
I57
sS'[[Red Berry Cake]]'
p21
I11
sS'[[Pizza]]'
p22
I53
sS'[[Syrup]]'
p23
I74
sS'[[Sheep Feed]]'
p24
I38
sS'[[Cherry Popsicle]]'
p25
I67
sS'[[Bacon and Eggs]]'
p26
I26
sS'[[Carrot Juice]]'
p27
I30
sS'[[Baked Potato]]'
p28
I21
sS'[[Milk]]'
p29
I73
sS'[[Apple Jam]]'
p30
I42
sS'[[Carrot]]'
p31
I0
sS'[[Blackberry]]'
p32
I7
sS'[[Cotton Shirt]]'
p33
I86
sS'[[Cream]]'
p34
I52
sS'[[Raspberry Jam]]'
p35
I41
sS'[[Cherry]]'
p36
I17
sS'[[Bread]]'
p37
I68
sS'[[Wheat]]'
p38
I20
sS'[[Casserole]]'
p39
I44
sS'[[Chili Pepper]]'
p40
I50
sS'[[Honey Popcorn]]'
p41
I77
sS'[[Honeycomb]]'
p42
I28
sS'[[Indigo]]'
p43
I59
sS'[[Raspberry]]'
p44
I45
sS'[[Chocolate Cake]]'
p45
I29
sS'[[Spicy Pizza]]'
p46
I87
sS'[[Cacao]]'
p47
I5
sS'[[Woolly Chaps]]'
p48
I12
sS'[[Honey]]'
p49
I88
sS'[[Egg]]'
p50
I1
sS'[[Strawberry Cake]]'
p51
I33
sS'[[Potato]]'
p52
I80
sS'[[Fish Burger]]'
p53
I6
sS'[[White Sugar]]'
p54
I90
sS'[[Buttered Popcorn]]'
p55
I64
sS'[[Cream Cake]]'
p56
I14
sS'[[Soybean]]'
p57
I35
sS'[[Apple]]'
p58
I39
sS'[[Blue Woolly Hat]]'
p59
I60
sS'[[Goat Milk]]'
p60
I10
sS'[[Hamburger]]'
p61
I46
sS'[[Cherry Jam]]'
p62
I71
sS"[[Shepherd's Pie]]"
p63
I78
sS'[[Brown Sugar]]'
p64
I85
sS'[[Butter]]'
p65
I13
sS'[[Bacon Pie]]'
p66
I16
sS'[[Strawberry]]'
p67
I15
sS'[[Pumpkin Pie]]'
p68
I2
sS'[[Corn]]'
p69
I72
sS'[[Fish Fillet]]'
p70
I43
sS'[[Chili Popcorn]]'
p71
I24
sS'[[Bacon]]'
p72
I47
sS'[[Cotton Fabric]]'
p73
I66
sS'[[Blue Sweater]]'
p74
I58
sS'[[Potato Feta Cake]]'
p75
I55
sS'[[Sugarcane]]'
p76
I49
sS'[[Cookie]]'
p77
I4
sS'[[Apple Juice]]'
p78
I83
sS'[[Pig Feed]]'
p79
I79
sS'[[Cotton]]'
p80
I25
sS'[[Feta Pie]]'
p81
I3
sS'[[Cheese]]'
p82
I51
sS'[[Chocolate Ice Cream]]'
p83
I69
sS'[[Chicken Feed]]'
p84
I31
sS'[[Corn Bread]]'
p85
I18
sS'[[Wool]]'
p86
I89
sS'[[Roasted Tomatoes]]'
p87
I22
sS'[[Berry Juice]]'
p88
I70
sS'[[Sweater]]'
p89
I65
sS'[[Blackberry Muffin]]'
p90
I75
sS'[[Cow Feed]]'
p91
I76
s.(dp0
S'[[Pig Feed]]'
p1
I3
sS'[[Sheep Feed]]'
p2
I0
sS"[[Shepherd's Pie]]"
p3
I4
sS'[[Strawberry Ice Cream]]'
p4
I0
sS'[[Apple]]'
p5
I5
sS'[[Carrot Cake]]'
p6
I2
sS'[[Cotton]]'
p7
I5
sS'[[White Sugar]]'
p8
I3
sS'[[Bacon]]'
p9
I1
sS'[[Apple Juice]]'
p10
I0
s.