(dp0
S'[[Pumpkin]]'
p1
I50
sS'[[Blackberry Jam]]'
p2
I25
sS'[[Violet Dress]]'
p3
I57
sS'[[Strawberry Ice Cream]]'
p4
I23
sS'[[Raspberry Muffin]]'
p5
I86
sS'[[Apple Pie]]'
p6
I61
sS'[[Tomato Juice]]'
p7
I28
sS'[[Blue Sweater]]'
p8
I16
sS'[[Carrot Cake]]'
p9
I60
sS'[[Vanilla Ice Cream]]'
p10
I33
sS'[[Lure]]'
p11
I13
sS'[[Carrot Pie]]'
p12
I53
sS'[[Tomato]]'
p13
I83
sS'[[Cherry Juice]]'
p14
I59
sS'[[Cheesecake]]'
p15
I71
sS'[[Fish Pie]]'
p16
I56
sS'[[Pancake]]'
p17
I76
sS'[[Popcorn]]'
p18
I18
sS'[[Goat Cheese]]'
p19
I70
sS'[[Potato Bread]]'
p20
I69
sS'[[Goat Feed]]'
p21
I72
sS'[[Red Berry Cake]]'
p22
I80
sS'[[Pizza]]'
p23
I52
sS'[[Syrup]]'
p24
I89
sS'[[Sheep Feed]]'
p25
I49
sS'[[Cherry Popsicle]]'
p26
I41
sS'[[Bacon and Eggs]]'
p27
I10
sS'[[Carrot]]'
p28
I74
sS'[[Carrot Juice]]'
p29
I27
sS'[[Baked Potato]]'
p30
I84
sS'[[Milk]]'
p31
I90
sS'[[Apple Jam]]'
p32
I21
sS'[[Brown Sugar]]'
p33
I88
sS'[[Blackberry]]'
p34
I85
sS'[[Cotton Shirt]]'
p35
I79
sS'[[Cream]]'
p36
I9
sS'[[Raspberry Jam]]'
p37
I44
sS'[[Cherry]]'
p38
I58
sS'[[Bread]]'
p39
I66
sS'[[Wheat]]'
p40
I1
sS'[[Casserole]]'
p41
I67
sS'[[Strawberry]]'
p42
I12
sS'[[Honey Popcorn]]'
p43
I51
sS'[[Honeycomb]]'
p44
I37
sS'[[Indigo]]'
p45
I47
sS'[[Raspberry]]'
p46
I2
sS'[[Chocolate Cake]]'
p47
I7
sS'[[Spicy Pizza]]'
p48
I43
sS'[[Cacao]]'
p49
I5
sS'[[Woolly Chaps]]'
p50
I3
sS'[[Honey]]'
p51
I24
sS'[[Egg]]'
p52
I11
sS'[[Strawberry Cake]]'
p53
I30
sS'[[Potato]]'
p54
I35
sS'[[Fish Burger]]'
p55
I64
sS'[[White Sugar]]'
p56
I62
sS'[[Buttered Popcorn]]'
p57
I0
sS'[[Cream Cake]]'
p58
I68
sS'[[Soybean]]'
p59
I77
sS'[[Apple]]'
p60
I65
sS'[[Blue Woolly Hat]]'
p61
I78
sS'[[Goat Milk]]'
p62
I22
sS'[[Hamburger]]'
p63
I32
sS'[[Cherry Jam]]'
p64
I81
sS"[[Shepherd's Pie]]"
p65
I8
sS'[[Butter]]'
p66
I31
sS'[[Bacon Pie]]'
p67
I15
sS'[[Chili Pepper]]'
p68
I75
sS'[[Corn]]'
p69
I54
sS'[[Fish Fillet]]'
p70
I29
sS'[[Chili Popcorn]]'
p71
I39
sS'[[Bacon]]'
p72
I38
sS'[[Cotton Fabric]]'
p73
I48
sS'[[Pumpkin Pie]]'
p74
I4
sS'[[Potato Feta Cake]]'
p75
I42
sS'[[Sugarcane]]'
p76
I36
sS'[[Cookie]]'
p77
I6
sS'[[Apple Juice]]'
p78
I55
sS'[[Pig Feed]]'
p79
I14
sS'[[Cotton]]'
p80
I73
sS'[[Feta Pie]]'
p81
I82
sS'[[Cheese]]'
p82
I63
sS'[[Chocolate Ice Cream]]'
p83
I19
sS'[[Chicken Feed]]'
p84
I20
sS'[[Corn Bread]]'
p85
I26
sS'[[Wool]]'
p86
I17
sS'[[Roasted Tomatoes]]'
p87
I34
sS'[[Berry Juice]]'
p88
I45
sS'[[Sweater]]'
p89
I46
sS'[[Blackberry Muffin]]'
p90
I87
sS'[[Cow Feed]]'
p91
I40
s.(dp0
S'[[Pumpkin Pie]]'
p1
I5
sS'[[Pumpkin]]'
p2
I0
sS'[[Roasted Tomatoes]]'
p3
I5
sS'[[Honey Popcorn]]'
p4
I2
sS'[[Blue Woolly Hat]]'
p5
I1
sS'[[Cherry Juice]]'
p6
I0
sS'[[Butter]]'
p7
I2
sS'[[Vanilla Ice Cream]]'
p8
I2
s.