(dp0
S'[[Pumpkin]]'
p1
I20
sS'[[Blackberry Jam]]'
p2
I66
sS'[[Violet Dress]]'
p3
I63
sS'[[Strawberry Ice Cream]]'
p4
I37
sS'[[Raspberry Muffin]]'
p5
I68
sS'[[Apple Pie]]'
p6
I57
sS'[[Tomato Juice]]'
p7
I46
sS'[[Blue Sweater]]'
p8
I17
sS'[[Honey]]'
p9
I72
sS'[[Vanilla Ice Cream]]'
p10
I55
sS'[[Lure]]'
p11
I15
sS'[[Carrot Pie]]'
p12
I48
sS'[[Tomato]]'
p13
I45
sS'[[Potato]]'
p14
I78
sS'[[Cheesecake]]'
p15
I83
sS'[[Fish Pie]]'
p16
I30
sS'[[Pancake]]'
p17
I50
sS'[[Popcorn]]'
p18
I84
sS'[[Goat Cheese]]'
p19
I32
sS'[[Potato Bread]]'
p20
I35
sS'[[Goat Feed]]'
p21
I26
sS'[[Red Berry Cake]]'
p22
I33
sS'[[Pizza]]'
p23
I75
sS'[[Syrup]]'
p24
I69
sS'[[Sheep Feed]]'
p25
I19
sS'[[Cherry Popsicle]]'
p26
I29
sS'[[Bacon and Eggs]]'
p27
I9
sS'[[Carrot]]'
p28
I42
sS'[[Carrot Juice]]'
p29
I40
sS'[[Baked Potato]]'
p30
I12
sS'[[Milk]]'
p31
I1
sS'[[Apple Jam]]'
p32
I24
sS'[[Apple]]'
p33
I5
sS'[[Blackberry]]'
p34
I60
sS'[[Cotton Shirt]]'
p35
I3
sS'[[Cream]]'
p36
I58
sS'[[Raspberry Jam]]'
p37
I61
sS'[[Cherry]]'
p38
I34
sS'[[Bread]]'
p39
I6
sS'[[Wheat]]'
p40
I0
sS'[[Casserole]]'
p41
I18
sS'[[Strawberry]]'
p42
I77
sS'[[Honey Popcorn]]'
p43
I31
sS'[[Honeycomb]]'
p44
I16
sS'[[Indigo]]'
p45
I86
sS'[[Raspberry]]'
p46
I51
sS'[[Chocolate Cake]]'
p47
I49
sS'[[Spicy Pizza]]'
p48
I87
sS'[[Cacao]]'
p49
I52
sS'[[Woolly Chaps]]'
p50
I80
sS'[[Carrot Cake]]'
p51
I14
sS'[[Egg]]'
p52
I65
sS'[[Strawberry Cake]]'
p53
I53
sS'[[Cherry Juice]]'
p54
I74
sS'[[Fish Burger]]'
p55
I71
sS'[[White Sugar]]'
p56
I36
sS'[[Buttered Popcorn]]'
p57
I41
sS'[[Cream Cake]]'
p58
I67
sS'[[Soybean]]'
p59
I39
sS'[[Brown Sugar]]'
p60
I85
sS'[[Blue Woolly Hat]]'
p61
I76
sS'[[Goat Milk]]'
p62
I47
sS'[[Hamburger]]'
p63
I11
sS'[[Cherry Jam]]'
p64
I56
sS"[[Shepherd's Pie]]"
p65
I82
sS'[[Butter]]'
p66
I28
sS'[[Bacon Pie]]'
p67
I70
sS'[[Chili Pepper]]'
p68
I25
sS'[[Corn]]'
p69
I21
sS'[[Fish Fillet]]'
p70
I90
sS'[[Chili Popcorn]]'
p71
I88
sS'[[Bacon]]'
p72
I59
sS'[[Cotton Fabric]]'
p73
I73
sS'[[Pumpkin Pie]]'
p74
I10
sS'[[Potato Feta Cake]]'
p75
I44
sS'[[Sugarcane]]'
p76
I79
sS'[[Cookie]]'
p77
I4
sS'[[Apple Juice]]'
p78
I8
sS'[[Pig Feed]]'
p79
I81
sS'[[Cotton]]'
p80
I62
sS'[[Feta Pie]]'
p81
I7
sS'[[Cheese]]'
p82
I89
sS'[[Chocolate Ice Cream]]'
p83
I43
sS'[[Chicken Feed]]'
p84
I54
sS'[[Corn Bread]]'
p85
I2
sS'[[Wool]]'
p86
I38
sS'[[Roasted Tomatoes]]'
p87
I23
sS'[[Berry Juice]]'
p88
I27
sS'[[Sweater]]'
p89
I13
sS'[[Blackberry Muffin]]'
p90
I22
sS'[[Cow Feed]]'
p91
I64
s.(dp0
S'[[Tomato]]'
p1
I4
sS'[[Blue Sweater]]'
p2
I2
sS'[[Corn]]'
p3
I4
sS'[[Cherry Popsicle]]'
p4
I2
sS'[[Strawberry Cake]]'
p5
I5
sS'[[Potato Feta Cake]]'
p6
I1
sS'[[White Sugar]]'
p7
I1
sS'[[Blackberry Muffin]]'
p8
I3
sS'[[Woolly Chaps]]'
p9
I2
sS'[[Sugarcane]]'
p10
I2
sS'[[Apple Juice]]'
p11
I5
s.