(dp0
S'[[Pumpkin]]'
p1
I68
sS'[[Blackberry Jam]]'
p2
I31
sS'[[Violet Dress]]'
p3
I21
sS'[[Strawberry Ice Cream]]'
p4
I19
sS'[[Raspberry Muffin]]'
p5
I49
sS'[[Apple Pie]]'
p6
I54
sS'[[Tomato Juice]]'
p7
I32
sS'[[Carrot Cake]]'
p8
I87
sS'[[Vanilla Ice Cream]]'
p9
I42
sS'[[Lure]]'
p10
I8
sS'[[Carrot Pie]]'
p11
I13
sS'[[Tomato]]'
p12
I40
sS'[[Cherry Juice]]'
p13
I62
sS'[[Cheesecake]]'
p14
I4
sS'[[Fish Pie]]'
p15
I23
sS'[[Pancake]]'
p16
I56
sS'[[Popcorn]]'
p17
I74
sS'[[Goat Cheese]]'
p18
I81
sS'[[Potato Bread]]'
p19
I69
sS'[[Goat Feed]]'
p20
I75
sS'[[Red Berry Cake]]'
p21
I61
sS'[[Pizza]]'
p22
I79
sS'[[Syrup]]'
p23
I89
sS'[[Sheep Feed]]'
p24
I25
sS'[[Cherry Popsicle]]'
p25
I36
sS'[[Bacon and Eggs]]'
p26
I41
sS'[[Carrot Juice]]'
p27
I53
sS'[[Baked Potato]]'
p28
I55
sS'[[Milk]]'
p29
I22
sS'[[Apple Jam]]'
p30
I24
sS'[[Carrot]]'
p31
I10
sS'[[Blackberry]]'
p32
I5
sS'[[Cotton Shirt]]'
p33
I66
sS'[[Cream]]'
p34
I90
sS'[[Raspberry Jam]]'
p35
I85
sS'[[Cherry]]'
p36
I65
sS'[[Bread]]'
p37
I9
sS'[[Wheat]]'
p38
I17
sS'[[Casserole]]'
p39
I33
sS'[[Chili Pepper]]'
p40
I58
sS'[[Honey Popcorn]]'
p41
I46
sS'[[Honeycomb]]'
p42
I51
sS'[[Indigo]]'
p43
I14
sS'[[Raspberry]]'
p44
I44
sS'[[Chocolate Cake]]'
p45
I60
sS'[[Spicy Pizza]]'
p46
I18
sS'[[Cacao]]'
p47
I83
sS'[[Woolly Chaps]]'
p48
I82
sS'[[Honey]]'
p49
I27
sS'[[Egg]]'
p50
I52
sS'[[Strawberry Cake]]'
p51
I2
sS'[[Potato]]'
p52
I12
sS'[[Fish Burger]]'
p53
I88
sS'[[White Sugar]]'
p54
I35
sS'[[Buttered Popcorn]]'
p55
I48
sS'[[Cream Cake]]'
p56
I39
sS'[[Soybean]]'
p57
I45
sS'[[Apple]]'
p58
I50
sS'[[Blue Woolly Hat]]'
p59
I3
sS'[[Goat Milk]]'
p60
I34
sS'[[Hamburger]]'
p61
I6
sS'[[Cherry Jam]]'
p62
I84
sS"[[Shepherd's Pie]]"
p63
I20
sS'[[Brown Sugar]]'
p64
I7
sS'[[Butter]]'
p65
I59
sS'[[Bacon Pie]]'
p66
I16
sS'[[Strawberry]]'
p67
I28
sS'[[Pumpkin Pie]]'
p68
I15
sS'[[Corn]]'
p69
I70
sS'[[Fish Fillet]]'
p70
I11
sS'[[Chili Popcorn]]'
p71
I77
sS'[[Bacon]]'
p72
I72
sS'[[Cotton Fabric]]'
p73
I86
sS'[[Blue Sweater]]'
p74
I76
sS'[[Potato Feta Cake]]'
p75
I73
sS'[[Sugarcane]]'
p76
I29
sS'[[Cookie]]'
p77
I63
sS'[[Apple Juice]]'
p78
I67
sS'[[Pig Feed]]'
p79
I57
sS'[[Cotton]]'
p80
I37
sS'[[Feta Pie]]'
p81
I30
sS'[[Cheese]]'
p82
I0
sS'[[Chocolate Ice Cream]]'
p83
I1
sS'[[Chicken Feed]]'
p84
I78
sS'[[Corn Bread]]'
p85
I38
sS'[[Wool]]'
p86
I71
sS'[[Roasted Tomatoes]]'
p87
I47
sS'[[Berry Juice]]'
p88
I26
sS'[[Sweater]]'
p89
I43
sS'[[Blackberry Muffin]]'
p90
I80
sS'[[Cow Feed]]'
p91
I64
s.(dp0
S'[[Roasted Tomatoes]]'
p1
I5
sS'[[Blue Woolly Hat]]'
p2
I1
sS'[[Cherry Juice]]'
p3
I0
sS'[[Cookie]]'
p4
I3
sS'[[Butter]]'
p5
I2
sS'[[Vanilla Ice Cream]]'
p6
I2
s.