(dp0
S'[[Pumpkin]]'
p1
I35
sS'[[Blackberry Jam]]'
p2
I32
sS'[[Violet Dress]]'
p3
I73
sS'[[Strawberry Ice Cream]]'
p4
I90
sS'[[Raspberry Muffin]]'
p5
I53
sS'[[Apple Pie]]'
p6
I88
sS'[[Tomato Juice]]'
p7
I29
sS'[[Blue Sweater]]'
p8
I50
sS'[[Carrot Cake]]'
p9
I33
sS'[[Vanilla Ice Cream]]'
p10
I72
sS'[[Lure]]'
p11
I81
sS'[[Carrot Pie]]'
p12
I2
sS'[[Tomato]]'
p13
I51
sS'[[Cherry Juice]]'
p14
I9
sS'[[Cheesecake]]'
p15
I13
sS'[[Fish Pie]]'
p16
I22
sS'[[Pancake]]'
p17
I1
sS'[[Popcorn]]'
p18
I38
sS'[[Goat Cheese]]'
p19
I61
sS'[[Potato Bread]]'
p20
I45
sS'[[Goat Feed]]'
p21
I19
sS'[[Red Berry Cake]]'
p22
I16
sS'[[Pizza]]'
p23
I5
sS'[[Syrup]]'
p24
I43
sS'[[Sheep Feed]]'
p25
I46
sS'[[Cherry Popsicle]]'
p26
I48
sS'[[Bacon and Eggs]]'
p27
I55
sS'[[Carrot]]'
p28
I71
sS'[[Carrot Juice]]'
p29
I21
sS'[[Baked Potato]]'
p30
I78
sS'[[Milk]]'
p31
I82
sS'[[Apple Jam]]'
p32
I20
sS'[[Apple]]'
p33
I89
sS'[[Blackberry]]'
p34
I80
sS'[[Cotton Shirt]]'
p35
I57
sS'[[Cream]]'
p36
I3
sS'[[Raspberry Jam]]'
p37
I84
sS'[[Cherry]]'
p38
I87
sS'[[Bread]]'
p39
I8
sS'[[Wheat]]'
p40
I17
sS'[[Casserole]]'
p41
I40
sS'[[Chili Pepper]]'
p42
I34
sS'[[Honey Popcorn]]'
p43
I31
sS'[[Honeycomb]]'
p44
I77
sS'[[Indigo]]'
p45
I83
sS'[[Raspberry]]'
p46
I63
sS'[[Chocolate Cake]]'
p47
I18
sS'[[Spicy Pizza]]'
p48
I47
sS'[[Cacao]]'
p49
I0
sS'[[Woolly Chaps]]'
p50
I23
sS'[[Honey]]'
p51
I4
sS'[[Egg]]'
p52
I11
sS'[[Strawberry Cake]]'
p53
I75
sS'[[Potato]]'
p54
I67
sS'[[Fish Burger]]'
p55
I70
sS'[[White Sugar]]'
p56
I7
sS'[[Buttered Popcorn]]'
p57
I54
sS'[[Cream Cake]]'
p58
I39
sS'[[Soybean]]'
p59
I52
sS'[[Brown Sugar]]'
p60
I68
sS'[[Blue Woolly Hat]]'
p61
I69
sS'[[Goat Milk]]'
p62
I86
sS'[[Hamburger]]'
p63
I79
sS'[[Cherry Jam]]'
p64
I10
sS"[[Shepherd's Pie]]"
p65
I60
sS'[[Butter]]'
p66
I30
sS'[[Bacon Pie]]'
p67
I62
sS'[[Strawberry]]'
p68
I28
sS'[[Corn]]'
p69
I42
sS'[[Fish Fillet]]'
p70
I27
sS'[[Chili Popcorn]]'
p71
I15
sS'[[Bacon]]'
p72
I25
sS'[[Cotton Fabric]]'
p73
I41
sS'[[Pumpkin Pie]]'
p74
I36
sS'[[Potato Feta Cake]]'
p75
I37
sS'[[Sugarcane]]'
p76
I56
sS'[[Cookie]]'
p77
I44
sS'[[Apple Juice]]'
p78
I26
sS'[[Pig Feed]]'
p79
I74
sS'[[Cotton]]'
p80
I58
sS'[[Feta Pie]]'
p81
I12
sS'[[Cheese]]'
p82
I24
sS'[[Chocolate Ice Cream]]'
p83
I59
sS'[[Chicken Feed]]'
p84
I6
sS'[[Corn Bread]]'
p85
I14
sS'[[Wool]]'
p86
I49
sS'[[Roasted Tomatoes]]'
p87
I65
sS'[[Berry Juice]]'
p88
I64
sS'[[Sweater]]'
p89
I76
sS'[[Blackberry Muffin]]'
p90
I66
sS'[[Cow Feed]]'
p91
I85
s.(dp0
S'[[Apple]]'
p1
I5
sS'[[Potato]]'
p2
I1
sS'[[Corn Bread]]'
p3
I0
sS'[[Cherry Juice]]'
p4
I0
sS'[[Egg]]'
p5
I1
sS'[[Sweater]]'
p6
I0
s.