(dp0
S'[[Pumpkin]]'
p1
I38
sS'[[Blackberry Jam]]'
p2
I57
sS'[[Violet Dress]]'
p3
I32
sS'[[Strawberry Ice Cream]]'
p4
I60
sS'[[Raspberry Muffin]]'
p5
I24
sS'[[Apple Pie]]'
p6
I42
sS'[[Tomato Juice]]'
p7
I87
sS'[[Carrot Cake]]'
p8
I33
sS'[[Vanilla Ice Cream]]'
p9
I51
sS'[[Lure]]'
p10
I44
sS'[[Carrot Pie]]'
p11
I86
sS'[[Tomato]]'
p12
I49
sS'[[Cherry Juice]]'
p13
I19
sS'[[Cheesecake]]'
p14
I68
sS'[[Fish Pie]]'
p15
I11
sS'[[Pancake]]'
p16
I78
sS'[[Popcorn]]'
p17
I84
sS'[[Goat Cheese]]'
p18
I76
sS'[[Potato Bread]]'
p19
I7
sS'[[Goat Feed]]'
p20
I1
sS'[[Red Berry Cake]]'
p21
I45
sS'[[Pizza]]'
p22
I8
sS'[[Syrup]]'
p23
I61
sS'[[Sheep Feed]]'
p24
I20
sS'[[Cherry Popsicle]]'
p25
I10
sS'[[Bacon and Eggs]]'
p26
I31
sS'[[Carrot]]'
p27
I16
sS'[[Carrot Juice]]'
p28
I71
sS'[[Baked Potato]]'
p29
I70
sS'[[Milk]]'
p30
I54
sS'[[Apple Jam]]'
p31
I66
sS'[[Apple]]'
p32
I79
sS'[[Blackberry]]'
p33
I62
sS'[[Cotton Shirt]]'
p34
I63
sS'[[Cream]]'
p35
I75
sS'[[Raspberry Jam]]'
p36
I5
sS'[[Cherry]]'
p37
I55
sS'[[Bread]]'
p38
I69
sS'[[Wheat]]'
p39
I47
sS'[[Casserole]]'
p40
I58
sS'[[Strawberry]]'
p41
I89
sS'[[Honey Popcorn]]'
p42
I46
sS'[[Honeycomb]]'
p43
I65
sS'[[Indigo]]'
p44
I3
sS'[[Raspberry]]'
p45
I22
sS'[[Chocolate Cake]]'
p46
I59
sS'[[Spicy Pizza]]'
p47
I12
sS'[[Cacao]]'
p48
I53
sS'[[Woolly Chaps]]'
p49
I18
sS'[[Honey]]'
p50
I41
sS'[[Egg]]'
p51
I4
sS'[[Strawberry Cake]]'
p52
I30
sS'[[Potato]]'
p53
I64
sS'[[Fish Burger]]'
p54
I25
sS'[[White Sugar]]'
p55
I43
sS'[[Buttered Popcorn]]'
p56
I74
sS'[[Cream Cake]]'
p57
I82
sS'[[Soybean]]'
p58
I81
sS'[[Brown Sugar]]'
p59
I9
sS'[[Blue Woolly Hat]]'
p60
I72
sS'[[Goat Milk]]'
p61
I88
sS'[[Hamburger]]'
p62
I90
sS'[[Cherry Jam]]'
p63
I52
sS"[[Shepherd's Pie]]"
p64
I77
sS'[[Butter]]'
p65
I17
sS'[[Bacon Pie]]'
p66
I83
sS'[[Chili Pepper]]'
p67
I34
sS'[[Pumpkin Pie]]'
p68
I29
sS'[[Corn]]'
p69
I13
sS'[[Fish Fillet]]'
p70
I85
sS'[[Chili Popcorn]]'
p71
I0
sS'[[Bacon]]'
p72
I56
sS'[[Cotton Fabric]]'
p73
I36
sS'[[Blue Sweater]]'
p74
I73
sS'[[Potato Feta Cake]]'
p75
I23
sS'[[Sugarcane]]'
p76
I21
sS'[[Cookie]]'
p77
I40
sS'[[Apple Juice]]'
p78
I26
sS'[[Pig Feed]]'
p79
I35
sS'[[Cotton]]'
p80
I2
sS'[[Feta Pie]]'
p81
I39
sS'[[Cheese]]'
p82
I14
sS'[[Chocolate Ice Cream]]'
p83
I80
sS'[[Chicken Feed]]'
p84
I50
sS'[[Corn Bread]]'
p85
I67
sS'[[Wool]]'
p86
I15
sS'[[Roasted Tomatoes]]'
p87
I28
sS'[[Berry Juice]]'
p88
I37
sS'[[Sweater]]'
p89
I48
sS'[[Blackberry Muffin]]'
p90
I27
sS'[[Cow Feed]]'
p91
I6
s.(dp0
S'[[Tomato]]'
p1
I5
sS'[[Pig Feed]]'
p2
I1
sS'[[Strawberry Ice Cream]]'
p3
I1
sS'[[Blackberry]]'
p4
I3
sS'[[Strawberry Cake]]'
p5
I2
sS'[[Hamburger]]'
p6
I1
sS'[[Butter]]'
p7
I1
sS'[[Raspberry Jam]]'
p8
I5
sS'[[Soybean]]'
p9
I1
s.