(dp0
S'[[Pumpkin]]'
p1
I81
sS'[[Blackberry Jam]]'
p2
I7
sS'[[Violet Dress]]'
p3
I12
sS'[[Strawberry Ice Cream]]'
p4
I55
sS'[[Raspberry Muffin]]'
p5
I42
sS'[[Apple Pie]]'
p6
I25
sS'[[Tomato Juice]]'
p7
I60
sS'[[Blue Sweater]]'
p8
I43
sS'[[Honey]]'
p9
I50
sS'[[Vanilla Ice Cream]]'
p10
I26
sS'[[Lure]]'
p11
I1
sS'[[Carrot Pie]]'
p12
I34
sS'[[Tomato]]'
p13
I73
sS'[[Potato]]'
p14
I24
sS'[[Cheesecake]]'
p15
I77
sS'[[Fish Pie]]'
p16
I14
sS'[[Pancake]]'
p17
I48
sS'[[Popcorn]]'
p18
I29
sS'[[Goat Cheese]]'
p19
I0
sS'[[Potato Bread]]'
p20
I79
sS'[[Goat Feed]]'
p21
I31
sS'[[Red Berry Cake]]'
p22
I80
sS'[[Pizza]]'
p23
I28
sS'[[Syrup]]'
p24
I36
sS'[[Sheep Feed]]'
p25
I63
sS'[[Cherry Popsicle]]'
p26
I82
sS'[[Bacon and Eggs]]'
p27
I88
sS'[[Carrot]]'
p28
I70
sS'[[Carrot Juice]]'
p29
I8
sS'[[Baked Potato]]'
p30
I83
sS'[[Milk]]'
p31
I90
sS'[[Apple Jam]]'
p32
I38
sS'[[Apple]]'
p33
I64
sS'[[Blackberry]]'
p34
I62
sS'[[Cotton Shirt]]'
p35
I18
sS'[[Cream]]'
p36
I47
sS'[[Raspberry Jam]]'
p37
I30
sS'[[Cherry]]'
p38
I68
sS'[[Bread]]'
p39
I5
sS'[[Wheat]]'
p40
I2
sS'[[Casserole]]'
p41
I58
sS'[[Strawberry]]'
p42
I33
sS'[[Honey Popcorn]]'
p43
I51
sS'[[Honeycomb]]'
p44
I87
sS'[[Indigo]]'
p45
I45
sS'[[Raspberry]]'
p46
I71
sS'[[Chocolate Cake]]'
p47
I61
sS'[[Spicy Pizza]]'
p48
I54
sS'[[Cacao]]'
p49
I35
sS'[[Woolly Chaps]]'
p50
I46
sS'[[Carrot Cake]]'
p51
I66
sS'[[Egg]]'
p52
I56
sS'[[Strawberry Cake]]'
p53
I84
sS'[[Cherry Juice]]'
p54
I15
sS'[[Fish Burger]]'
p55
I16
sS'[[White Sugar]]'
p56
I89
sS'[[Buttered Popcorn]]'
p57
I65
sS'[[Cream Cake]]'
p58
I17
sS'[[Soybean]]'
p59
I10
sS'[[Brown Sugar]]'
p60
I20
sS'[[Blue Woolly Hat]]'
p61
I13
sS'[[Goat Milk]]'
p62
I32
sS'[[Hamburger]]'
p63
I44
sS'[[Cherry Jam]]'
p64
I85
sS"[[Shepherd's Pie]]"
p65
I49
sS'[[Butter]]'
p66
I11
sS'[[Bacon Pie]]'
p67
I19
sS'[[Chili Pepper]]'
p68
I67
sS'[[Corn]]'
p69
I39
sS'[[Fish Fillet]]'
p70
I75
sS'[[Chili Popcorn]]'
p71
I74
sS'[[Bacon]]'
p72
I78
sS'[[Cotton Fabric]]'
p73
I4
sS'[[Pumpkin Pie]]'
p74
I53
sS'[[Potato Feta Cake]]'
p75
I3
sS'[[Sugarcane]]'
p76
I21
sS'[[Cookie]]'
p77
I37
sS'[[Apple Juice]]'
p78
I59
sS'[[Pig Feed]]'
p79
I52
sS'[[Cotton]]'
p80
I27
sS'[[Feta Pie]]'
p81
I9
sS'[[Cheese]]'
p82
I40
sS'[[Chocolate Ice Cream]]'
p83
I57
sS'[[Chicken Feed]]'
p84
I72
sS'[[Corn Bread]]'
p85
I22
sS'[[Wool]]'
p86
I76
sS'[[Roasted Tomatoes]]'
p87
I6
sS'[[Berry Juice]]'
p88
I23
sS'[[Sweater]]'
p89
I41
sS'[[Blackberry Muffin]]'
p90
I86
sS'[[Cow Feed]]'
p91
I69
s.(dp0
S'[[Pig Feed]]'
p1
I3
sS'[[Wheat]]'
p2
I0
sS'[[Pumpkin]]'
p3
I4
sS'[[Cheesecake]]'
p4
I1
sS'[[Lure]]'
p5
I5
sS'[[Tomato Juice]]'
p6
I5
sS'[[Honeycomb]]'
p7
I5
sS'[[Raspberry]]'
p8
I2
sS'[[Chocolate Ice Cream]]'
p9
I1
sS'[[Raspberry Jam]]'
p10
I2
sS'[[Cherry]]'
p11
I4
s.