(dp0
S'[[Pumpkin]]'
p1
I41
sS'[[Blackberry Jam]]'
p2
I36
sS'[[Violet Dress]]'
p3
I88
sS'[[Strawberry Ice Cream]]'
p4
I82
sS'[[Raspberry Muffin]]'
p5
I8
sS'[[Apple Pie]]'
p6
I65
sS'[[Tomato Juice]]'
p7
I85
sS'[[Carrot Cake]]'
p8
I9
sS'[[Vanilla Ice Cream]]'
p9
I33
sS'[[Lure]]'
p10
I5
sS'[[Carrot Pie]]'
p11
I21
sS'[[Tomato]]'
p12
I14
sS'[[Cherry Juice]]'
p13
I46
sS'[[Cheesecake]]'
p14
I50
sS'[[Fish Pie]]'
p15
I54
sS'[[Pancake]]'
p16
I61
sS'[[Popcorn]]'
p17
I53
sS'[[Goat Cheese]]'
p18
I39
sS'[[Potato Bread]]'
p19
I31
sS'[[Goat Feed]]'
p20
I18
sS'[[Red Berry Cake]]'
p21
I0
sS'[[Pizza]]'
p22
I90
sS'[[Syrup]]'
p23
I6
sS'[[Sheep Feed]]'
p24
I10
sS'[[Cherry Popsicle]]'
p25
I81
sS'[[Bacon and Eggs]]'
p26
I25
sS'[[Carrot Juice]]'
p27
I13
sS'[[Baked Potato]]'
p28
I22
sS'[[Milk]]'
p29
I40
sS'[[Apple Jam]]'
p30
I27
sS'[[Carrot]]'
p31
I29
sS'[[Blackberry]]'
p32
I20
sS'[[Cotton Shirt]]'
p33
I75
sS'[[Cream]]'
p34
I67
sS'[[Raspberry Jam]]'
p35
I89
sS'[[Cherry]]'
p36
I48
sS'[[Bread]]'
p37
I68
sS'[[Wheat]]'
p38
I69
sS'[[Casserole]]'
p39
I56
sS'[[Chili Pepper]]'
p40
I15
sS'[[Honey Popcorn]]'
p41
I23
sS'[[Honeycomb]]'
p42
I7
sS'[[Indigo]]'
p43
I86
sS'[[Raspberry]]'
p44
I35
sS'[[Chocolate Cake]]'
p45
I49
sS'[[Spicy Pizza]]'
p46
I79
sS'[[Cacao]]'
p47
I73
sS'[[Woolly Chaps]]'
p48
I55
sS'[[Honey]]'
p49
I19
sS'[[Egg]]'
p50
I16
sS'[[Strawberry Cake]]'
p51
I63
sS'[[Potato]]'
p52
I32
sS'[[Fish Burger]]'
p53
I52
sS'[[White Sugar]]'
p54
I78
sS'[[Buttered Popcorn]]'
p55
I59
sS'[[Cream Cake]]'
p56
I72
sS'[[Soybean]]'
p57
I42
sS'[[Apple]]'
p58
I28
sS'[[Blue Woolly Hat]]'
p59
I12
sS'[[Goat Milk]]'
p60
I76
sS'[[Hamburger]]'
p61
I1
sS'[[Cherry Jam]]'
p62
I45
sS"[[Shepherd's Pie]]"
p63
I80
sS'[[Brown Sugar]]'
p64
I24
sS'[[Butter]]'
p65
I30
sS'[[Bacon Pie]]'
p66
I87
sS'[[Strawberry]]'
p67
I66
sS'[[Pumpkin Pie]]'
p68
I57
sS'[[Corn]]'
p69
I4
sS'[[Fish Fillet]]'
p70
I17
sS'[[Chili Popcorn]]'
p71
I11
sS'[[Bacon]]'
p72
I37
sS'[[Cotton Fabric]]'
p73
I3
sS'[[Blue Sweater]]'
p74
I44
sS'[[Potato Feta Cake]]'
p75
I60
sS'[[Sugarcane]]'
p76
I77
sS'[[Cookie]]'
p77
I34
sS'[[Apple Juice]]'
p78
I58
sS'[[Pig Feed]]'
p79
I64
sS'[[Cotton]]'
p80
I2
sS'[[Feta Pie]]'
p81
I83
sS'[[Cheese]]'
p82
I43
sS'[[Chocolate Ice Cream]]'
p83
I47
sS'[[Chicken Feed]]'
p84
I26
sS'[[Corn Bread]]'
p85
I71
sS'[[Wool]]'
p86
I74
sS'[[Roasted Tomatoes]]'
p87
I70
sS'[[Berry Juice]]'
p88
I38
sS'[[Sweater]]'
p89
I62
sS'[[Blackberry Muffin]]'
p90
I84
sS'[[Cow Feed]]'
p91
I51
s.(dp0
S'[[Roasted Tomatoes]]'
p1
I1
sS'[[Egg]]'
p2
I0
sS'[[Feta Pie]]'
p3
I0
sS'[[Butter]]'
p4
I2
sS'[[Raspberry]]'
p5
I4
sS'[[Blackberry]]'
p6
I1
sS'[[Cookie]]'
p7
I3
sS'[[Chicken Feed]]'
p8
I1
s.