(dp0
S'[[Pumpkin]]'
p1
I77
sS'[[Blackberry Jam]]'
p2
I66
sS'[[Violet Dress]]'
p3
I27
sS'[[Strawberry Ice Cream]]'
p4
I61
sS'[[Raspberry Muffin]]'
p5
I4
sS'[[Apple Pie]]'
p6
I9
sS'[[Tomato Juice]]'
p7
I11
sS'[[Carrot Cake]]'
p8
I37
sS'[[Vanilla Ice Cream]]'
p9
I13
sS'[[Lure]]'
p10
I59
sS'[[Carrot Pie]]'
p11
I89
sS'[[Tomato]]'
p12
I8
sS'[[Cherry Juice]]'
p13
I52
sS'[[Cheesecake]]'
p14
I88
sS'[[Fish Pie]]'
p15
I54
sS'[[Pancake]]'
p16
I72
sS'[[Popcorn]]'
p17
I18
sS'[[Goat Cheese]]'
p18
I75
sS'[[Potato Bread]]'
p19
I21
sS'[[Goat Feed]]'
p20
I73
sS'[[Red Berry Cake]]'
p21
I82
sS'[[Pizza]]'
p22
I14
sS'[[Syrup]]'
p23
I25
sS'[[Sheep Feed]]'
p24
I47
sS'[[Cherry Popsicle]]'
p25
I6
sS'[[Bacon and Eggs]]'
p26
I44
sS'[[Carrot Juice]]'
p27
I28
sS'[[Baked Potato]]'
p28
I1
sS'[[Milk]]'
p29
I62
sS'[[Apple Jam]]'
p30
I45
sS'[[Carrot]]'
p31
I68
sS'[[Blackberry]]'
p32
I63
sS'[[Cotton Shirt]]'
p33
I35
sS'[[Cream]]'
p34
I65
sS'[[Raspberry Jam]]'
p35
I22
sS'[[Cherry]]'
p36
I7
sS'[[Bread]]'
p37
I24
sS'[[Wheat]]'
p38
I33
sS'[[Casserole]]'
p39
I49
sS'[[Chili Pepper]]'
p40
I90
sS'[[Honey Popcorn]]'
p41
I71
sS'[[Honeycomb]]'
p42
I36
sS'[[Indigo]]'
p43
I57
sS'[[Raspberry]]'
p44
I43
sS'[[Chocolate Cake]]'
p45
I69
sS'[[Spicy Pizza]]'
p46
I55
sS'[[Cacao]]'
p47
I46
sS'[[Woolly Chaps]]'
p48
I64
sS'[[Honey]]'
p49
I41
sS'[[Egg]]'
p50
I12
sS'[[Strawberry Cake]]'
p51
I74
sS'[[Potato]]'
p52
I5
sS'[[Fish Burger]]'
p53
I42
sS'[[White Sugar]]'
p54
I85
sS'[[Buttered Popcorn]]'
p55
I70
sS'[[Cream Cake]]'
p56
I87
sS'[[Soybean]]'
p57
I2
sS'[[Apple]]'
p58
I51
sS'[[Blue Woolly Hat]]'
p59
I29
sS'[[Goat Milk]]'
p60
I23
sS'[[Hamburger]]'
p61
I56
sS'[[Cherry Jam]]'
p62
I58
sS"[[Shepherd's Pie]]"
p63
I16
sS'[[Brown Sugar]]'
p64
I20
sS'[[Butter]]'
p65
I30
sS'[[Bacon Pie]]'
p66
I78
sS'[[Strawberry]]'
p67
I81
sS'[[Pumpkin Pie]]'
p68
I48
sS'[[Corn]]'
p69
I40
sS'[[Fish Fillet]]'
p70
I84
sS'[[Chili Popcorn]]'
p71
I10
sS'[[Bacon]]'
p72
I83
sS'[[Cotton Fabric]]'
p73
I0
sS'[[Blue Sweater]]'
p74
I79
sS'[[Potato Feta Cake]]'
p75
I15
sS'[[Sugarcane]]'
p76
I32
sS'[[Cookie]]'
p77
I50
sS'[[Apple Juice]]'
p78
I60
sS'[[Pig Feed]]'
p79
I34
sS'[[Cotton]]'
p80
I80
sS'[[Feta Pie]]'
p81
I26
sS'[[Cheese]]'
p82
I17
sS'[[Chocolate Ice Cream]]'
p83
I31
sS'[[Chicken Feed]]'
p84
I86
sS'[[Corn Bread]]'
p85
I38
sS'[[Wool]]'
p86
I53
sS'[[Roasted Tomatoes]]'
p87
I67
sS'[[Berry Juice]]'
p88
I39
sS'[[Sweater]]'
p89
I19
sS'[[Blackberry Muffin]]'
p90
I76
sS'[[Cow Feed]]'
p91
I3
s.(dp0
S'[[Sheep Feed]]'
p1
I1
sS'[[Cotton]]'
p2
I0
sS'[[Roasted Tomatoes]]'
p3
I4
sS'[[Cherry Juice]]'
p4
I2
sS'[[Egg]]'
p5
I3
sS'[[Honeycomb]]'
p6
I5
sS'[[Butter]]'
p7
I1
sS'[[Cream]]'
p8
I2
sS'[[Sweater]]'
p9
I2
sS'[[Bread]]'
p10
I0
s.