(dp0
S'[[Pumpkin]]'
p1
I20
sS'[[Blackberry Jam]]'
p2
I85
sS'[[Violet Dress]]'
p3
I17
sS'[[Strawberry Ice Cream]]'
p4
I49
sS'[[Raspberry Muffin]]'
p5
I9
sS'[[Apple Pie]]'
p6
I47
sS'[[Tomato Juice]]'
p7
I30
sS'[[Blue Sweater]]'
p8
I51
sS'[[Honey]]'
p9
I21
sS'[[Vanilla Ice Cream]]'
p10
I82
sS'[[Lure]]'
p11
I70
sS'[[Carrot Pie]]'
p12
I78
sS'[[Tomato]]'
p13
I13
sS'[[Potato]]'
p14
I52
sS'[[Cheesecake]]'
p15
I5
sS'[[Fish Pie]]'
p16
I90
sS'[[Pancake]]'
p17
I69
sS'[[Popcorn]]'
p18
I57
sS'[[Goat Cheese]]'
p19
I75
sS'[[Potato Bread]]'
p20
I56
sS'[[Goat Feed]]'
p21
I32
sS'[[Red Berry Cake]]'
p22
I74
sS'[[Pizza]]'
p23
I34
sS'[[Syrup]]'
p24
I6
sS'[[Sheep Feed]]'
p25
I22
sS'[[Cherry Popsicle]]'
p26
I4
sS'[[Bacon and Eggs]]'
p27
I67
sS'[[Carrot]]'
p28
I83
sS'[[Carrot Juice]]'
p29
I25
sS'[[Baked Potato]]'
p30
I26
sS'[[Milk]]'
p31
I63
sS'[[Apple Jam]]'
p32
I71
sS'[[Apple]]'
p33
I8
sS'[[Blackberry]]'
p34
I15
sS'[[Cotton Shirt]]'
p35
I38
sS'[[Cream]]'
p36
I59
sS'[[Raspberry Jam]]'
p37
I29
sS'[[Cherry]]'
p38
I45
sS'[[Bread]]'
p39
I35
sS'[[Wheat]]'
p40
I58
sS'[[Casserole]]'
p41
I7
sS'[[Strawberry]]'
p42
I39
sS'[[Honey Popcorn]]'
p43
I12
sS'[[Honeycomb]]'
p44
I16
sS'[[Indigo]]'
p45
I61
sS'[[Raspberry]]'
p46
I46
sS'[[Chocolate Cake]]'
p47
I87
sS'[[Spicy Pizza]]'
p48
I11
sS'[[Cacao]]'
p49
I54
sS'[[Woolly Chaps]]'
p50
I14
sS'[[Carrot Cake]]'
p51
I80
sS'[[Egg]]'
p52
I19
sS'[[Strawberry Cake]]'
p53
I41
sS'[[Cherry Juice]]'
p54
I28
sS'[[Fish Burger]]'
p55
I44
sS'[[White Sugar]]'
p56
I3
sS'[[Buttered Popcorn]]'
p57
I43
sS'[[Cream Cake]]'
p58
I68
sS'[[Soybean]]'
p59
I55
sS'[[Brown Sugar]]'
p60
I0
sS'[[Blue Woolly Hat]]'
p61
I24
sS'[[Goat Milk]]'
p62
I10
sS'[[Hamburger]]'
p63
I73
sS'[[Cherry Jam]]'
p64
I23
sS"[[Shepherd's Pie]]"
p65
I62
sS'[[Butter]]'
p66
I40
sS'[[Bacon Pie]]'
p67
I89
sS'[[Chili Pepper]]'
p68
I64
sS'[[Corn]]'
p69
I48
sS'[[Fish Fillet]]'
p70
I86
sS'[[Chili Popcorn]]'
p71
I18
sS'[[Bacon]]'
p72
I27
sS'[[Cotton Fabric]]'
p73
I37
sS'[[Pumpkin Pie]]'
p74
I65
sS'[[Potato Feta Cake]]'
p75
I76
sS'[[Sugarcane]]'
p76
I42
sS'[[Cookie]]'
p77
I31
sS'[[Apple Juice]]'
p78
I77
sS'[[Pig Feed]]'
p79
I36
sS'[[Cotton]]'
p80
I66
sS'[[Feta Pie]]'
p81
I84
sS'[[Cheese]]'
p82
I88
sS'[[Chocolate Ice Cream]]'
p83
I81
sS'[[Chicken Feed]]'
p84
I53
sS'[[Corn Bread]]'
p85
I60
sS'[[Wool]]'
p86
I2
sS'[[Roasted Tomatoes]]'
p87
I1
sS'[[Berry Juice]]'
p88
I50
sS'[[Sweater]]'
p89
I79
sS'[[Blackberry Muffin]]'
p90
I72
sS'[[Cow Feed]]'
p91
I33
s.(dp0
S'[[Casserole]]'
p1
I0
sS'[[Fish Fillet]]'
p2
I2
sS'[[Honey]]'
p3
I2
sS'[[Cookie]]'
p4
I3
sS'[[Apple Pie]]'
p5
I1
sS'[[Egg]]'
p6
I2
sS'[[Baked Potato]]'
p7
I2
sS'[[Sugarcane]]'
p8
I3
sS'[[Chocolate Cake]]'
p9
I5
sS'[[Cotton Fabric]]'
p10
I0
sS'[[Chicken Feed]]'
p11
I1
s.