(dp0
S'[[Pumpkin]]'
p1
I38
sS'[[Blackberry Jam]]'
p2
I6
sS'[[Violet Dress]]'
p3
I19
sS'[[Strawberry Ice Cream]]'
p4
I61
sS'[[Raspberry Muffin]]'
p5
I40
sS'[[Apple Pie]]'
p6
I55
sS'[[Tomato Juice]]'
p7
I9
sS'[[Blue Sweater]]'
p8
I70
sS'[[Honey]]'
p9
I66
sS'[[Vanilla Ice Cream]]'
p10
I7
sS'[[Lure]]'
p11
I26
sS'[[Carrot Pie]]'
p12
I0
sS'[[Tomato]]'
p13
I35
sS'[[Potato]]'
p14
I23
sS'[[Cheesecake]]'
p15
I37
sS'[[Fish Pie]]'
p16
I30
sS'[[Pancake]]'
p17
I60
sS'[[Popcorn]]'
p18
I63
sS'[[Goat Cheese]]'
p19
I64
sS'[[Potato Bread]]'
p20
I5
sS'[[Goat Feed]]'
p21
I72
sS'[[Red Berry Cake]]'
p22
I80
sS'[[Pizza]]'
p23
I24
sS'[[Syrup]]'
p24
I48
sS'[[Sheep Feed]]'
p25
I71
sS'[[Cherry Popsicle]]'
p26
I36
sS'[[Bacon and Eggs]]'
p27
I4
sS'[[Carrot Juice]]'
p28
I11
sS'[[Baked Potato]]'
p29
I74
sS'[[Milk]]'
p30
I53
sS'[[Apple Jam]]'
p31
I69
sS'[[Carrot]]'
p32
I29
sS'[[Blackberry]]'
p33
I73
sS'[[Cotton Shirt]]'
p34
I47
sS'[[Cream]]'
p35
I84
sS'[[Raspberry Jam]]'
p36
I75
sS'[[Cherry]]'
p37
I57
sS'[[Bread]]'
p38
I56
sS'[[Wheat]]'
p39
I86
sS'[[Casserole]]'
p40
I1
sS'[[Chili Pepper]]'
p41
I31
sS'[[Honey Popcorn]]'
p42
I82
sS'[[Honeycomb]]'
p43
I14
sS'[[Indigo]]'
p44
I51
sS'[[Raspberry]]'
p45
I39
sS'[[Chocolate Cake]]'
p46
I77
sS'[[Spicy Pizza]]'
p47
I18
sS'[[Cacao]]'
p48
I42
sS'[[Woolly Chaps]]'
p49
I83
sS'[[Carrot Cake]]'
p50
I46
sS'[[Egg]]'
p51
I54
sS'[[Strawberry Cake]]'
p52
I89
sS'[[Cherry Juice]]'
p53
I78
sS'[[Fish Burger]]'
p54
I58
sS'[[White Sugar]]'
p55
I3
sS'[[Buttered Popcorn]]'
p56
I76
sS'[[Cream Cake]]'
p57
I10
sS'[[Soybean]]'
p58
I34
sS'[[Apple]]'
p59
I16
sS'[[Blue Woolly Hat]]'
p60
I87
sS'[[Goat Milk]]'
p61
I65
sS'[[Hamburger]]'
p62
I15
sS'[[Cherry Jam]]'
p63
I50
sS"[[Shepherd's Pie]]"
p64
I79
sS'[[Brown Sugar]]'
p65
I68
sS'[[Butter]]'
p66
I81
sS'[[Bacon Pie]]'
p67
I44
sS'[[Strawberry]]'
p68
I33
sS'[[Corn]]'
p69
I45
sS'[[Fish Fillet]]'
p70
I41
sS'[[Chili Popcorn]]'
p71
I85
sS'[[Bacon]]'
p72
I28
sS'[[Cotton Fabric]]'
p73
I21
sS'[[Pumpkin Pie]]'
p74
I22
sS'[[Potato Feta Cake]]'
p75
I12
sS'[[Sugarcane]]'
p76
I13
sS'[[Cookie]]'
p77
I90
sS'[[Apple Juice]]'
p78
I17
sS'[[Pig Feed]]'
p79
I2
sS'[[Cotton]]'
p80
I32
sS'[[Feta Pie]]'
p81
I62
sS'[[Cheese]]'
p82
I27
sS'[[Chocolate Ice Cream]]'
p83
I43
sS'[[Chicken Feed]]'
p84
I25
sS'[[Corn Bread]]'
p85
I52
sS'[[Wool]]'
p86
I88
sS'[[Roasted Tomatoes]]'
p87
I59
sS'[[Berry Juice]]'
p88
I8
sS'[[Sweater]]'
p89
I20
sS'[[Blackberry Muffin]]'
p90
I67
sS'[[Cow Feed]]'
p91
I49
s.(dp0
S'[[Blue Woolly Hat]]'
p1
I4
sS'[[Cotton]]'
p2
I4
sS'[[Cookie]]'
p3
I0
sS'[[Tomato Juice]]'
p4
I3
sS'[[Honeycomb]]'
p5
I5
sS'[[Fish Burger]]'
p6
I0
sS'[[Sugarcane]]'
p7
I5
sS'[[Raspberry Jam]]'
p8
I2
sS'[[Blackberry Muffin]]'
p9
I0
sS'[[Violet Dress]]'
p10
I3
s.