(dp0
S'[[Pumpkin]]'
p1
I44
sS'[[Blackberry Jam]]'
p2
I59
sS'[[Violet Dress]]'
p3
I55
sS'[[Strawberry Ice Cream]]'
p4
I12
sS'[[Raspberry Muffin]]'
p5
I14
sS'[[Apple Pie]]'
p6
I60
sS'[[Tomato Juice]]'
p7
I69
sS'[[Carrot Cake]]'
p8
I89
sS'[[Vanilla Ice Cream]]'
p9
I46
sS'[[Lure]]'
p10
I39
sS'[[Carrot Pie]]'
p11
I17
sS'[[Tomato]]'
p12
I34
sS'[[Cherry Juice]]'
p13
I28
sS'[[Cheesecake]]'
p14
I45
sS'[[Fish Pie]]'
p15
I87
sS'[[Pancake]]'
p16
I5
sS'[[Popcorn]]'
p17
I43
sS'[[Goat Cheese]]'
p18
I72
sS'[[Potato Bread]]'
p19
I58
sS'[[Goat Feed]]'
p20
I70
sS'[[Red Berry Cake]]'
p21
I31
sS'[[Pizza]]'
p22
I50
sS'[[Syrup]]'
p23
I51
sS'[[Sheep Feed]]'
p24
I32
sS'[[Cherry Popsicle]]'
p25
I15
sS'[[Bacon and Eggs]]'
p26
I77
sS'[[Carrot Juice]]'
p27
I29
sS'[[Baked Potato]]'
p28
I53
sS'[[Milk]]'
p29
I61
sS'[[Apple Jam]]'
p30
I90
sS'[[Carrot]]'
p31
I80
sS'[[Blackberry]]'
p32
I73
sS'[[Cotton Shirt]]'
p33
I68
sS'[[Cream]]'
p34
I25
sS'[[Raspberry Jam]]'
p35
I0
sS'[[Cherry]]'
p36
I20
sS'[[Bread]]'
p37
I67
sS'[[Wheat]]'
p38
I4
sS'[[Casserole]]'
p39
I74
sS'[[Chili Pepper]]'
p40
I9
sS'[[Honey Popcorn]]'
p41
I41
sS'[[Honeycomb]]'
p42
I62
sS'[[Indigo]]'
p43
I81
sS'[[Raspberry]]'
p44
I8
sS'[[Chocolate Cake]]'
p45
I21
sS'[[Spicy Pizza]]'
p46
I54
sS'[[Cacao]]'
p47
I82
sS'[[Woolly Chaps]]'
p48
I84
sS'[[Honey]]'
p49
I19
sS'[[Egg]]'
p50
I75
sS'[[Strawberry Cake]]'
p51
I26
sS'[[Potato]]'
p52
I85
sS'[[Fish Burger]]'
p53
I57
sS'[[White Sugar]]'
p54
I10
sS'[[Buttered Popcorn]]'
p55
I24
sS'[[Cream Cake]]'
p56
I22
sS'[[Soybean]]'
p57
I52
sS'[[Apple]]'
p58
I37
sS'[[Blue Woolly Hat]]'
p59
I16
sS'[[Goat Milk]]'
p60
I11
sS'[[Hamburger]]'
p61
I3
sS'[[Cherry Jam]]'
p62
I40
sS"[[Shepherd's Pie]]"
p63
I47
sS'[[Brown Sugar]]'
p64
I63
sS'[[Butter]]'
p65
I56
sS'[[Bacon Pie]]'
p66
I86
sS'[[Strawberry]]'
p67
I30
sS'[[Pumpkin Pie]]'
p68
I33
sS'[[Corn]]'
p69
I76
sS'[[Fish Fillet]]'
p70
I6
sS'[[Chili Popcorn]]'
p71
I36
sS'[[Bacon]]'
p72
I35
sS'[[Cotton Fabric]]'
p73
I27
sS'[[Blue Sweater]]'
p74
I88
sS'[[Potato Feta Cake]]'
p75
I49
sS'[[Sugarcane]]'
p76
I7
sS'[[Cookie]]'
p77
I48
sS'[[Apple Juice]]'
p78
I18
sS'[[Pig Feed]]'
p79
I38
sS'[[Cotton]]'
p80
I64
sS'[[Feta Pie]]'
p81
I79
sS'[[Cheese]]'
p82
I23
sS'[[Chocolate Ice Cream]]'
p83
I66
sS'[[Chicken Feed]]'
p84
I71
sS'[[Corn Bread]]'
p85
I13
sS'[[Wool]]'
p86
I42
sS'[[Roasted Tomatoes]]'
p87
I65
sS'[[Berry Juice]]'
p88
I2
sS'[[Sweater]]'
p89
I1
sS'[[Blackberry Muffin]]'
p90
I83
sS'[[Cow Feed]]'
p91
I78
s.(dp0
S'[[Fish Fillet]]'
p1
I2
sS'[[Cotton]]'
p2
I2
sS'[[Tomato Juice]]'
p3
I3
sS'[[White Sugar]]'
p4
I4
sS'[[Buttered Popcorn]]'
p5
I3
sS'[[Cotton Fabric]]'
p6
I2
sS'[[Potato Bread]]'
p7
I0
sS'[[Soybean]]'
p8
I3
s.