(dp0
S'[[Pumpkin]]'
p1
I28
sS'[[Blackberry Jam]]'
p2
I37
sS'[[Violet Dress]]'
p3
I75
sS'[[Strawberry Ice Cream]]'
p4
I56
sS'[[Raspberry Muffin]]'
p5
I40
sS'[[Apple Pie]]'
p6
I1
sS'[[Tomato Juice]]'
p7
I38
sS'[[Carrot Cake]]'
p8
I25
sS'[[Vanilla Ice Cream]]'
p9
I17
sS'[[Lure]]'
p10
I76
sS'[[Carrot Pie]]'
p11
I83
sS'[[Tomato]]'
p12
I18
sS'[[Cherry Juice]]'
p13
I10
sS'[[Cheesecake]]'
p14
I67
sS'[[Fish Pie]]'
p15
I39
sS'[[Pancake]]'
p16
I14
sS'[[Popcorn]]'
p17
I74
sS'[[Goat Cheese]]'
p18
I72
sS'[[Potato Bread]]'
p19
I42
sS'[[Goat Feed]]'
p20
I41
sS'[[Red Berry Cake]]'
p21
I11
sS'[[Pizza]]'
p22
I52
sS'[[Syrup]]'
p23
I44
sS'[[Sheep Feed]]'
p24
I16
sS'[[Cherry Popsicle]]'
p25
I19
sS'[[Bacon and Eggs]]'
p26
I57
sS'[[Carrot Juice]]'
p27
I85
sS'[[Baked Potato]]'
p28
I22
sS'[[Milk]]'
p29
I79
sS'[[Apple Jam]]'
p30
I60
sS'[[Carrot]]'
p31
I58
sS'[[Blackberry]]'
p32
I89
sS'[[Cotton Shirt]]'
p33
I27
sS'[[Cream]]'
p34
I49
sS'[[Raspberry Jam]]'
p35
I73
sS'[[Cherry]]'
p36
I55
sS'[[Bread]]'
p37
I62
sS'[[Wheat]]'
p38
I35
sS'[[Casserole]]'
p39
I61
sS'[[Chili Pepper]]'
p40
I8
sS'[[Honey Popcorn]]'
p41
I77
sS'[[Honeycomb]]'
p42
I66
sS'[[Indigo]]'
p43
I43
sS'[[Raspberry]]'
p44
I50
sS'[[Chocolate Cake]]'
p45
I4
sS'[[Spicy Pizza]]'
p46
I78
sS'[[Cacao]]'
p47
I47
sS'[[Woolly Chaps]]'
p48
I70
sS'[[Honey]]'
p49
I53
sS'[[Egg]]'
p50
I68
sS'[[Strawberry Cake]]'
p51
I33
sS'[[Potato]]'
p52
I13
sS'[[Fish Burger]]'
p53
I88
sS'[[White Sugar]]'
p54
I30
sS'[[Buttered Popcorn]]'
p55
I32
sS'[[Cream Cake]]'
p56
I2
sS'[[Soybean]]'
p57
I46
sS'[[Apple]]'
p58
I86
sS'[[Blue Woolly Hat]]'
p59
I63
sS'[[Goat Milk]]'
p60
I34
sS'[[Hamburger]]'
p61
I90
sS'[[Cherry Jam]]'
p62
I87
sS"[[Shepherd's Pie]]"
p63
I15
sS'[[Brown Sugar]]'
p64
I69
sS'[[Butter]]'
p65
I80
sS'[[Bacon Pie]]'
p66
I84
sS'[[Strawberry]]'
p67
I81
sS'[[Pumpkin Pie]]'
p68
I45
sS'[[Corn]]'
p69
I6
sS'[[Fish Fillet]]'
p70
I26
sS'[[Chili Popcorn]]'
p71
I29
sS'[[Bacon]]'
p72
I59
sS'[[Cotton Fabric]]'
p73
I24
sS'[[Blue Sweater]]'
p74
I3
sS'[[Potato Feta Cake]]'
p75
I82
sS'[[Sugarcane]]'
p76
I20
sS'[[Cookie]]'
p77
I0
sS'[[Apple Juice]]'
p78
I7
sS'[[Pig Feed]]'
p79
I65
sS'[[Cotton]]'
p80
I21
sS'[[Feta Pie]]'
p81
I54
sS'[[Cheese]]'
p82
I5
sS'[[Chocolate Ice Cream]]'
p83
I9
sS'[[Chicken Feed]]'
p84
I71
sS'[[Corn Bread]]'
p85
I51
sS'[[Wool]]'
p86
I23
sS'[[Roasted Tomatoes]]'
p87
I31
sS'[[Berry Juice]]'
p88
I64
sS'[[Sweater]]'
p89
I48
sS'[[Blackberry Muffin]]'
p90
I12
sS'[[Cow Feed]]'
p91
I36
s.(dp0
S'[[Apple]]'
p1
I0
sS'[[Chili Pepper]]'
p2
I3
sS'[[Blue Sweater]]'
p3
I0
sS'[[Carrot Cake]]'
p4
I5
sS'[[Strawberry Cake]]'
p5
I3
sS'[[Apple Pie]]'
p6
I4
sS'[[Fish Pie]]'
p7
I5
sS'[[Berry Juice]]'
p8
I1
sS'[[Cherry Jam]]'
p9
I4
sS'[[Lure]]'
p10
I4
sS'[[Apple Jam]]'
p11
I5
s.