(dp0
S'[[Pumpkin]]'
p1
I48
sS'[[Blackberry Jam]]'
p2
I50
sS'[[Violet Dress]]'
p3
I51
sS'[[Strawberry Ice Cream]]'
p4
I73
sS'[[Raspberry Muffin]]'
p5
I56
sS'[[Apple Pie]]'
p6
I29
sS'[[Tomato Juice]]'
p7
I54
sS'[[Blue Sweater]]'
p8
I8
sS'[[Honey]]'
p9
I7
sS'[[Vanilla Ice Cream]]'
p10
I67
sS'[[Lure]]'
p11
I90
sS'[[Carrot Pie]]'
p12
I57
sS'[[Tomato]]'
p13
I26
sS'[[Potato]]'
p14
I19
sS'[[Cheesecake]]'
p15
I65
sS'[[Fish Pie]]'
p16
I88
sS'[[Pancake]]'
p17
I16
sS'[[Popcorn]]'
p18
I36
sS'[[Goat Cheese]]'
p19
I52
sS'[[Potato Bread]]'
p20
I41
sS'[[Goat Feed]]'
p21
I2
sS'[[Red Berry Cake]]'
p22
I55
sS'[[Pizza]]'
p23
I42
sS'[[Syrup]]'
p24
I60
sS'[[Sheep Feed]]'
p25
I49
sS'[[Cherry Popsicle]]'
p26
I62
sS'[[Bacon and Eggs]]'
p27
I44
sS'[[Carrot Juice]]'
p28
I14
sS'[[Baked Potato]]'
p29
I32
sS'[[Milk]]'
p30
I79
sS'[[Apple Jam]]'
p31
I64
sS'[[Carrot]]'
p32
I40
sS'[[Blackberry]]'
p33
I59
sS'[[Cotton Shirt]]'
p34
I53
sS'[[Cream]]'
p35
I78
sS'[[Raspberry Jam]]'
p36
I70
sS'[[Cherry]]'
p37
I11
sS'[[Bread]]'
p38
I37
sS'[[Wheat]]'
p39
I80
sS'[[Casserole]]'
p40
I22
sS'[[Chili Pepper]]'
p41
I9
sS'[[Honey Popcorn]]'
p42
I87
sS'[[Honeycomb]]'
p43
I61
sS'[[Indigo]]'
p44
I84
sS'[[Raspberry]]'
p45
I63
sS'[[Chocolate Cake]]'
p46
I6
sS'[[Spicy Pizza]]'
p47
I28
sS'[[Cacao]]'
p48
I71
sS'[[Woolly Chaps]]'
p49
I20
sS'[[Carrot Cake]]'
p50
I47
sS'[[Egg]]'
p51
I34
sS'[[Strawberry Cake]]'
p52
I10
sS'[[Cherry Juice]]'
p53
I31
sS'[[Fish Burger]]'
p54
I66
sS'[[White Sugar]]'
p55
I43
sS'[[Buttered Popcorn]]'
p56
I24
sS'[[Cream Cake]]'
p57
I0
sS'[[Soybean]]'
p58
I89
sS'[[Apple]]'
p59
I25
sS'[[Blue Woolly Hat]]'
p60
I81
sS'[[Goat Milk]]'
p61
I12
sS'[[Hamburger]]'
p62
I72
sS'[[Cherry Jam]]'
p63
I21
sS"[[Shepherd's Pie]]"
p64
I58
sS'[[Brown Sugar]]'
p65
I38
sS'[[Butter]]'
p66
I74
sS'[[Bacon Pie]]'
p67
I30
sS'[[Strawberry]]'
p68
I68
sS'[[Corn]]'
p69
I18
sS'[[Fish Fillet]]'
p70
I3
sS'[[Chili Popcorn]]'
p71
I75
sS'[[Bacon]]'
p72
I13
sS'[[Cotton Fabric]]'
p73
I15
sS'[[Pumpkin Pie]]'
p74
I46
sS'[[Potato Feta Cake]]'
p75
I35
sS'[[Sugarcane]]'
p76
I5
sS'[[Cookie]]'
p77
I45
sS'[[Apple Juice]]'
p78
I86
sS'[[Pig Feed]]'
p79
I4
sS'[[Cotton]]'
p80
I17
sS'[[Feta Pie]]'
p81
I33
sS'[[Cheese]]'
p82
I85
sS'[[Chocolate Ice Cream]]'
p83
I27
sS'[[Chicken Feed]]'
p84
I69
sS'[[Corn Bread]]'
p85
I1
sS'[[Wool]]'
p86
I76
sS'[[Roasted Tomatoes]]'
p87
I82
sS'[[Berry Juice]]'
p88
I23
sS'[[Sweater]]'
p89
I77
sS'[[Blackberry Muffin]]'
p90
I83
sS'[[Cow Feed]]'
p91
I39
s.(dp0
S'[[Apple]]'
p1
I4
sS'[[Casserole]]'
p2
I1
sS'[[Blackberry Jam]]'
p3
I3
sS'[[Apple Pie]]'
p4
I3
sS'[[Chili Popcorn]]'
p5
I1
sS'[[Baked Potato]]'
p6
I1
sS'[[Cream]]'
p7
I2
sS'[[Chocolate Ice Cream]]'
p8
I1
sS'[[Cream Cake]]'
p9
I2
sS'[[Cow Feed]]'
p10
I4
s.