(dp0
S'[[Pumpkin]]'
p1
I40
sS'[[Blackberry Jam]]'
p2
I17
sS'[[Violet Dress]]'
p3
I60
sS'[[Strawberry Ice Cream]]'
p4
I56
sS'[[Raspberry Muffin]]'
p5
I10
sS'[[Apple Pie]]'
p6
I70
sS'[[Tomato Juice]]'
p7
I71
sS'[[Blue Sweater]]'
p8
I41
sS'[[Carrot Cake]]'
p9
I85
sS'[[Vanilla Ice Cream]]'
p10
I88
sS'[[Lure]]'
p11
I7
sS'[[Carrot Pie]]'
p12
I1
sS'[[Tomato]]'
p13
I20
sS'[[Cherry Juice]]'
p14
I4
sS'[[Cheesecake]]'
p15
I31
sS'[[Fish Pie]]'
p16
I53
sS'[[Pancake]]'
p17
I68
sS'[[Popcorn]]'
p18
I82
sS'[[Goat Cheese]]'
p19
I64
sS'[[Potato Bread]]'
p20
I75
sS'[[Goat Feed]]'
p21
I2
sS'[[Red Berry Cake]]'
p22
I14
sS'[[Pizza]]'
p23
I55
sS'[[Syrup]]'
p24
I90
sS'[[Sheep Feed]]'
p25
I36
sS'[[Cherry Popsicle]]'
p26
I61
sS'[[Bacon and Eggs]]'
p27
I54
sS'[[Carrot]]'
p28
I16
sS'[[Carrot Juice]]'
p29
I37
sS'[[Baked Potato]]'
p30
I23
sS'[[Milk]]'
p31
I24
sS'[[Apple Jam]]'
p32
I84
sS'[[Apple]]'
p33
I12
sS'[[Blackberry]]'
p34
I74
sS'[[Cotton Shirt]]'
p35
I26
sS'[[Cream]]'
p36
I57
sS'[[Raspberry Jam]]'
p37
I86
sS'[[Cherry]]'
p38
I50
sS'[[Bread]]'
p39
I3
sS'[[Wheat]]'
p40
I66
sS'[[Casserole]]'
p41
I9
sS'[[Chili Pepper]]'
p42
I73
sS'[[Honey Popcorn]]'
p43
I83
sS'[[Honeycomb]]'
p44
I19
sS'[[Indigo]]'
p45
I30
sS'[[Raspberry]]'
p46
I38
sS'[[Chocolate Cake]]'
p47
I76
sS'[[Spicy Pizza]]'
p48
I22
sS'[[Cacao]]'
p49
I52
sS'[[Woolly Chaps]]'
p50
I5
sS'[[Honey]]'
p51
I6
sS'[[Egg]]'
p52
I25
sS'[[Strawberry Cake]]'
p53
I79
sS'[[Potato]]'
p54
I11
sS'[[Fish Burger]]'
p55
I77
sS'[[White Sugar]]'
p56
I62
sS'[[Buttered Popcorn]]'
p57
I42
sS'[[Cream Cake]]'
p58
I0
sS'[[Soybean]]'
p59
I51
sS'[[Brown Sugar]]'
p60
I78
sS'[[Blue Woolly Hat]]'
p61
I80
sS'[[Goat Milk]]'
p62
I21
sS'[[Hamburger]]'
p63
I63
sS'[[Cherry Jam]]'
p64
I32
sS"[[Shepherd's Pie]]"
p65
I59
sS'[[Butter]]'
p66
I15
sS'[[Bacon Pie]]'
p67
I29
sS'[[Strawberry]]'
p68
I43
sS'[[Corn]]'
p69
I27
sS'[[Fish Fillet]]'
p70
I35
sS'[[Chili Popcorn]]'
p71
I69
sS'[[Bacon]]'
p72
I87
sS'[[Cotton Fabric]]'
p73
I46
sS'[[Pumpkin Pie]]'
p74
I47
sS'[[Potato Feta Cake]]'
p75
I33
sS'[[Sugarcane]]'
p76
I13
sS'[[Cookie]]'
p77
I28
sS'[[Apple Juice]]'
p78
I58
sS'[[Pig Feed]]'
p79
I65
sS'[[Cotton]]'
p80
I67
sS'[[Feta Pie]]'
p81
I44
sS'[[Cheese]]'
p82
I39
sS'[[Chocolate Ice Cream]]'
p83
I48
sS'[[Chicken Feed]]'
p84
I89
sS'[[Corn Bread]]'
p85
I8
sS'[[Wool]]'
p86
I45
sS'[[Roasted Tomatoes]]'
p87
I72
sS'[[Berry Juice]]'
p88
I34
sS'[[Sweater]]'
p89
I49
sS'[[Blackberry Muffin]]'
p90
I81
sS'[[Cow Feed]]'
p91
I18
s.(dp0
S'[[Tomato]]'
p1
I4
sS'[[Sheep Feed]]'
p2
I4
sS'[[Apple Pie]]'
p3
I1
sS'[[Cheesecake]]'
p4
I3
sS'[[Carrot]]'
p5
I2
sS'[[Goat Milk]]'
p6
I1
sS'[[Carrot Juice]]'
p7
I3
sS'[[Honeycomb]]'
p8
I2
sS'[[Fish Burger]]'
p9
I5
sS'[[Cream Cake]]'
p10
I5
sS'[[Cotton]]'
p11
I5
s.