(dp0
S'[[Pumpkin]]'
p1
I31
sS'[[Blackberry Jam]]'
p2
I36
sS'[[Violet Dress]]'
p3
I84
sS'[[Strawberry Ice Cream]]'
p4
I39
sS'[[Raspberry Muffin]]'
p5
I8
sS'[[Apple Pie]]'
p6
I51
sS'[[Tomato Juice]]'
p7
I41
sS'[[Blue Sweater]]'
p8
I44
sS'[[Honey]]'
p9
I64
sS'[[Vanilla Ice Cream]]'
p10
I61
sS'[[Lure]]'
p11
I34
sS'[[Carrot Pie]]'
p12
I76
sS'[[Tomato]]'
p13
I77
sS'[[Potato]]'
p14
I4
sS'[[Cheesecake]]'
p15
I20
sS'[[Fish Pie]]'
p16
I62
sS'[[Pancake]]'
p17
I52
sS'[[Popcorn]]'
p18
I74
sS'[[Goat Cheese]]'
p19
I3
sS'[[Potato Bread]]'
p20
I23
sS'[[Goat Feed]]'
p21
I59
sS'[[Red Berry Cake]]'
p22
I15
sS'[[Pizza]]'
p23
I28
sS'[[Syrup]]'
p24
I50
sS'[[Sheep Feed]]'
p25
I75
sS'[[Cherry Popsicle]]'
p26
I70
sS'[[Bacon and Eggs]]'
p27
I40
sS'[[Carrot]]'
p28
I5
sS'[[Carrot Juice]]'
p29
I0
sS'[[Baked Potato]]'
p30
I54
sS'[[Milk]]'
p31
I89
sS'[[Apple Jam]]'
p32
I73
sS'[[Apple]]'
p33
I53
sS'[[Blackberry]]'
p34
I47
sS'[[Cotton Shirt]]'
p35
I13
sS'[[Cream]]'
p36
I29
sS'[[Raspberry Jam]]'
p37
I14
sS'[[Cherry]]'
p38
I60
sS'[[Bread]]'
p39
I82
sS'[[Wheat]]'
p40
I10
sS'[[Casserole]]'
p41
I17
sS'[[Strawberry]]'
p42
I79
sS'[[Honey Popcorn]]'
p43
I56
sS'[[Honeycomb]]'
p44
I65
sS'[[Indigo]]'
p45
I43
sS'[[Raspberry]]'
p46
I38
sS'[[Chocolate Cake]]'
p47
I46
sS'[[Spicy Pizza]]'
p48
I1
sS'[[Cacao]]'
p49
I55
sS'[[Woolly Chaps]]'
p50
I16
sS'[[Carrot Cake]]'
p51
I37
sS'[[Egg]]'
p52
I27
sS'[[Strawberry Cake]]'
p53
I7
sS'[[Cherry Juice]]'
p54
I67
sS'[[Fish Burger]]'
p55
I58
sS'[[White Sugar]]'
p56
I69
sS'[[Buttered Popcorn]]'
p57
I45
sS'[[Cream Cake]]'
p58
I35
sS'[[Soybean]]'
p59
I26
sS'[[Brown Sugar]]'
p60
I6
sS'[[Blue Woolly Hat]]'
p61
I21
sS'[[Goat Milk]]'
p62
I80
sS'[[Hamburger]]'
p63
I32
sS'[[Cherry Jam]]'
p64
I86
sS"[[Shepherd's Pie]]"
p65
I88
sS'[[Butter]]'
p66
I49
sS'[[Bacon Pie]]'
p67
I66
sS'[[Chili Pepper]]'
p68
I90
sS'[[Corn]]'
p69
I12
sS'[[Fish Fillet]]'
p70
I87
sS'[[Chili Popcorn]]'
p71
I78
sS'[[Bacon]]'
p72
I33
sS'[[Cotton Fabric]]'
p73
I83
sS'[[Pumpkin Pie]]'
p74
I81
sS'[[Potato Feta Cake]]'
p75
I48
sS'[[Sugarcane]]'
p76
I9
sS'[[Cookie]]'
p77
I24
sS'[[Apple Juice]]'
p78
I11
sS'[[Pig Feed]]'
p79
I85
sS'[[Cotton]]'
p80
I22
sS'[[Feta Pie]]'
p81
I57
sS'[[Cheese]]'
p82
I63
sS'[[Chocolate Ice Cream]]'
p83
I2
sS'[[Chicken Feed]]'
p84
I71
sS'[[Corn Bread]]'
p85
I68
sS'[[Wool]]'
p86
I42
sS'[[Roasted Tomatoes]]'
p87
I30
sS'[[Berry Juice]]'
p88
I18
sS'[[Sweater]]'
p89
I72
sS'[[Blackberry Muffin]]'
p90
I25
sS'[[Cow Feed]]'
p91
I19
s.(dp0
S'[[Chili Pepper]]'
p1
I3
sS'[[Roasted Tomatoes]]'
p2
I3
sS'[[Strawberry Cake]]'
p3
I5
sS'[[Potato]]'
p4
I4
sS'[[Carrot Juice]]'
p5
I2
sS'[[Cherry Jam]]'
p6
I0
sS'[[Vanilla Ice Cream]]'
p7
I1
sS'[[Cheese]]'
p8
I3
sS'[[Chocolate Ice Cream]]'
p9
I5
sS'[[Cream Cake]]'
p10
I1
sS'[[Apple Juice]]'
p11
I2
s.