(dp0
S'[[Pumpkin]]'
p1
I17
sS'[[Blackberry Jam]]'
p2
I90
sS'[[Violet Dress]]'
p3
I70
sS'[[Strawberry Ice Cream]]'
p4
I44
sS'[[Raspberry Muffin]]'
p5
I80
sS'[[Apple Pie]]'
p6
I30
sS'[[Tomato Juice]]'
p7
I77
sS'[[Blue Sweater]]'
p8
I45
sS'[[Carrot Cake]]'
p9
I48
sS'[[Vanilla Ice Cream]]'
p10
I83
sS'[[Lure]]'
p11
I62
sS'[[Carrot Pie]]'
p12
I46
sS'[[Tomato]]'
p13
I85
sS'[[Cherry Juice]]'
p14
I54
sS'[[Cheesecake]]'
p15
I84
sS'[[Fish Pie]]'
p16
I81
sS'[[Pancake]]'
p17
I20
sS'[[Popcorn]]'
p18
I56
sS'[[Goat Cheese]]'
p19
I74
sS'[[Potato Bread]]'
p20
I21
sS'[[Goat Feed]]'
p21
I58
sS'[[Red Berry Cake]]'
p22
I34
sS'[[Pizza]]'
p23
I59
sS'[[Syrup]]'
p24
I13
sS'[[Sheep Feed]]'
p25
I50
sS'[[Cherry Popsicle]]'
p26
I0
sS'[[Bacon and Eggs]]'
p27
I7
sS'[[Carrot]]'
p28
I65
sS'[[Carrot Juice]]'
p29
I15
sS'[[Baked Potato]]'
p30
I4
sS'[[Milk]]'
p31
I33
sS'[[Apple Jam]]'
p32
I18
sS'[[Apple]]'
p33
I39
sS'[[Blackberry]]'
p34
I55
sS'[[Cotton Shirt]]'
p35
I5
sS'[[Cream]]'
p36
I67
sS'[[Raspberry Jam]]'
p37
I32
sS'[[Cherry]]'
p38
I19
sS'[[Bread]]'
p39
I57
sS'[[Wheat]]'
p40
I25
sS'[[Casserole]]'
p41
I60
sS'[[Chili Pepper]]'
p42
I86
sS'[[Honey Popcorn]]'
p43
I1
sS'[[Honeycomb]]'
p44
I6
sS'[[Indigo]]'
p45
I49
sS'[[Raspberry]]'
p46
I26
sS'[[Chocolate Cake]]'
p47
I29
sS'[[Spicy Pizza]]'
p48
I64
sS'[[Cacao]]'
p49
I10
sS'[[Woolly Chaps]]'
p50
I79
sS'[[Honey]]'
p51
I12
sS'[[Egg]]'
p52
I75
sS'[[Strawberry Cake]]'
p53
I73
sS'[[Potato]]'
p54
I42
sS'[[Fish Burger]]'
p55
I43
sS'[[White Sugar]]'
p56
I38
sS'[[Buttered Popcorn]]'
p57
I51
sS'[[Cream Cake]]'
p58
I89
sS'[[Soybean]]'
p59
I52
sS'[[Brown Sugar]]'
p60
I78
sS'[[Blue Woolly Hat]]'
p61
I69
sS'[[Goat Milk]]'
p62
I40
sS'[[Hamburger]]'
p63
I63
sS'[[Cherry Jam]]'
p64
I28
sS"[[Shepherd's Pie]]"
p65
I11
sS'[[Butter]]'
p66
I35
sS'[[Bacon Pie]]'
p67
I87
sS'[[Strawberry]]'
p68
I68
sS'[[Corn]]'
p69
I3
sS'[[Fish Fillet]]'
p70
I27
sS'[[Chili Popcorn]]'
p71
I66
sS'[[Bacon]]'
p72
I31
sS'[[Cotton Fabric]]'
p73
I9
sS'[[Pumpkin Pie]]'
p74
I36
sS'[[Potato Feta Cake]]'
p75
I71
sS'[[Sugarcane]]'
p76
I82
sS'[[Cookie]]'
p77
I41
sS'[[Apple Juice]]'
p78
I23
sS'[[Pig Feed]]'
p79
I47
sS'[[Cotton]]'
p80
I22
sS'[[Feta Pie]]'
p81
I88
sS'[[Cheese]]'
p82
I61
sS'[[Chocolate Ice Cream]]'
p83
I72
sS'[[Chicken Feed]]'
p84
I16
sS'[[Corn Bread]]'
p85
I2
sS'[[Wool]]'
p86
I76
sS'[[Roasted Tomatoes]]'
p87
I24
sS'[[Berry Juice]]'
p88
I8
sS'[[Sweater]]'
p89
I37
sS'[[Blackberry Muffin]]'
p90
I53
sS'[[Cow Feed]]'
p91
I14
s.(dp0
S'[[Blue Sweater]]'
p1
I1
sS'[[Strawberry]]'
p2
I1
sS'[[Roasted Tomatoes]]'
p3
I5
sS'[[Sheep Feed]]'
p4
I1
sS'[[Red Berry Cake]]'
p5
I0
sS'[[Bacon and Eggs]]'
p6
I0
sS'[[Honeycomb]]'
p7
I1
sS'[[Cherry Jam]]'
p8
I2
sS'[[Chocolate Ice Cream]]'
p9
I0
sS'[[Apple Juice]]'
p10
I0
sS'[[Soybean]]'
p11
I2
s.