(dp0
S'[[Pumpkin]]'
p1
I57
sS'[[Blackberry Jam]]'
p2
I3
sS'[[Violet Dress]]'
p3
I68
sS'[[Strawberry Ice Cream]]'
p4
I42
sS'[[Raspberry Muffin]]'
p5
I61
sS'[[Apple Pie]]'
p6
I39
sS'[[Tomato Juice]]'
p7
I20
sS'[[Honey]]'
p8
I52
sS'[[Vanilla Ice Cream]]'
p9
I25
sS'[[Lure]]'
p10
I37
sS'[[Carrot Pie]]'
p11
I53
sS'[[Tomato]]'
p12
I46
sS'[[Potato]]'
p13
I86
sS'[[Cheesecake]]'
p14
I18
sS'[[Fish Pie]]'
p15
I33
sS'[[Pancake]]'
p16
I5
sS'[[Popcorn]]'
p17
I63
sS'[[Goat Cheese]]'
p18
I56
sS'[[Potato Bread]]'
p19
I54
sS'[[Goat Feed]]'
p20
I2
sS'[[Red Berry Cake]]'
p21
I31
sS'[[Pizza]]'
p22
I79
sS'[[Syrup]]'
p23
I44
sS'[[Sheep Feed]]'
p24
I0
sS'[[Cherry Popsicle]]'
p25
I82
sS'[[Bacon and Eggs]]'
p26
I35
sS'[[Carrot Juice]]'
p27
I6
sS'[[Baked Potato]]'
p28
I23
sS'[[Milk]]'
p29
I50
sS'[[Apple Jam]]'
p30
I81
sS'[[Carrot]]'
p31
I76
sS'[[Blackberry]]'
p32
I7
sS'[[Cotton Shirt]]'
p33
I70
sS'[[Cream]]'
p34
I4
sS'[[Raspberry Jam]]'
p35
I49
sS'[[Cherry]]'
p36
I34
sS'[[Bread]]'
p37
I41
sS'[[Wheat]]'
p38
I84
sS'[[Casserole]]'
p39
I51
sS'[[Strawberry]]'
p40
I72
sS'[[Honey Popcorn]]'
p41
I29
sS'[[Honeycomb]]'
p42
I13
sS'[[Indigo]]'
p43
I12
sS'[[Raspberry]]'
p44
I19
sS'[[Chocolate Cake]]'
p45
I89
sS'[[Spicy Pizza]]'
p46
I71
sS'[[Cacao]]'
p47
I8
sS'[[Woolly Chaps]]'
p48
I22
sS'[[Carrot Cake]]'
p49
I45
sS'[[Egg]]'
p50
I24
sS'[[Strawberry Cake]]'
p51
I38
sS'[[Cherry Juice]]'
p52
I40
sS'[[Fish Burger]]'
p53
I14
sS'[[White Sugar]]'
p54
I9
sS'[[Buttered Popcorn]]'
p55
I32
sS'[[Cream Cake]]'
p56
I58
sS'[[Soybean]]'
p57
I64
sS'[[Apple]]'
p58
I85
sS'[[Blue Woolly Hat]]'
p59
I28
sS'[[Goat Milk]]'
p60
I26
sS'[[Hamburger]]'
p61
I60
sS'[[Cherry Jam]]'
p62
I62
sS"[[Shepherd's Pie]]"
p63
I27
sS'[[Brown Sugar]]'
p64
I90
sS'[[Butter]]'
p65
I36
sS'[[Bacon Pie]]'
p66
I43
sS'[[Chili Pepper]]'
p67
I69
sS'[[Pumpkin Pie]]'
p68
I11
sS'[[Corn]]'
p69
I21
sS'[[Fish Fillet]]'
p70
I87
sS'[[Chili Popcorn]]'
p71
I17
sS'[[Bacon]]'
p72
I47
sS'[[Cotton Fabric]]'
p73
I67
sS'[[Blue Sweater]]'
p74
I66
sS'[[Potato Feta Cake]]'
p75
I55
sS'[[Sugarcane]]'
p76
I78
sS'[[Cookie]]'
p77
I10
sS'[[Apple Juice]]'
p78
I74
sS'[[Pig Feed]]'
p79
I75
sS'[[Cotton]]'
p80
I30
sS'[[Feta Pie]]'
p81
I73
sS'[[Cheese]]'
p82
I88
sS'[[Chocolate Ice Cream]]'
p83
I77
sS'[[Chicken Feed]]'
p84
I15
sS'[[Corn Bread]]'
p85
I16
sS'[[Wool]]'
p86
I1
sS'[[Roasted Tomatoes]]'
p87
I48
sS'[[Berry Juice]]'
p88
I65
sS'[[Sweater]]'
p89
I59
sS'[[Blackberry Muffin]]'
p90
I80
sS'[[Cow Feed]]'
p91
I83
s.(dp0
S'[[Apple]]'
p1
I5
sS'[[Chili Pepper]]'
p2
I2
sS'[[Woolly Chaps]]'
p3
I0
sS'[[Blue Woolly Hat]]'
p4
I1
sS'[[Honey Popcorn]]'
p5
I0
sS'[[Feta Pie]]'
p6
I0
sS'[[Carrot Juice]]'
p7
I3
sS'[[Indigo]]'
p8
I1
sS'[[Cheese]]'
p9
I0
s.