(dp0
S'[[Pumpkin]]'
p1
I26
sS'[[Blackberry Jam]]'
p2
I41
sS'[[Violet Dress]]'
p3
I51
sS'[[Strawberry Ice Cream]]'
p4
I1
sS'[[Raspberry Muffin]]'
p5
I54
sS'[[Apple Pie]]'
p6
I27
sS'[[Tomato Juice]]'
p7
I87
sS'[[Blue Sweater]]'
p8
I22
sS'[[Carrot Cake]]'
p9
I45
sS'[[Vanilla Ice Cream]]'
p10
I10
sS'[[Lure]]'
p11
I86
sS'[[Carrot Pie]]'
p12
I64
sS'[[Tomato]]'
p13
I18
sS'[[Cherry Juice]]'
p14
I29
sS'[[Cheesecake]]'
p15
I53
sS'[[Fish Pie]]'
p16
I31
sS'[[Pancake]]'
p17
I52
sS'[[Popcorn]]'
p18
I19
sS'[[Goat Cheese]]'
p19
I5
sS'[[Potato Bread]]'
p20
I68
sS'[[Goat Feed]]'
p21
I15
sS'[[Red Berry Cake]]'
p22
I85
sS'[[Pizza]]'
p23
I33
sS'[[Syrup]]'
p24
I60
sS'[[Sheep Feed]]'
p25
I66
sS'[[Cherry Popsicle]]'
p26
I69
sS'[[Bacon and Eggs]]'
p27
I21
sS'[[Carrot]]'
p28
I35
sS'[[Carrot Juice]]'
p29
I16
sS'[[Baked Potato]]'
p30
I17
sS'[[Milk]]'
p31
I48
sS'[[Apple Jam]]'
p32
I57
sS'[[Apple]]'
p33
I90
sS'[[Blackberry]]'
p34
I39
sS'[[Cotton Shirt]]'
p35
I47
sS'[[Cream]]'
p36
I7
sS'[[Raspberry Jam]]'
p37
I43
sS'[[Cherry]]'
p38
I37
sS'[[Bread]]'
p39
I6
sS'[[Wheat]]'
p40
I76
sS'[[Casserole]]'
p41
I71
sS'[[Chili Pepper]]'
p42
I89
sS'[[Honey Popcorn]]'
p43
I75
sS'[[Honeycomb]]'
p44
I40
sS'[[Indigo]]'
p45
I24
sS'[[Raspberry]]'
p46
I82
sS'[[Chocolate Cake]]'
p47
I50
sS'[[Spicy Pizza]]'
p48
I8
sS'[[Cacao]]'
p49
I61
sS'[[Woolly Chaps]]'
p50
I30
sS'[[Honey]]'
p51
I3
sS'[[Egg]]'
p52
I20
sS'[[Strawberry Cake]]'
p53
I56
sS'[[Potato]]'
p54
I46
sS'[[Fish Burger]]'
p55
I28
sS'[[White Sugar]]'
p56
I36
sS'[[Buttered Popcorn]]'
p57
I70
sS'[[Cream Cake]]'
p58
I83
sS'[[Soybean]]'
p59
I59
sS'[[Brown Sugar]]'
p60
I49
sS'[[Blue Woolly Hat]]'
p61
I0
sS'[[Goat Milk]]'
p62
I12
sS'[[Hamburger]]'
p63
I78
sS'[[Cherry Jam]]'
p64
I9
sS"[[Shepherd's Pie]]"
p65
I13
sS'[[Butter]]'
p66
I34
sS'[[Bacon Pie]]'
p67
I2
sS'[[Strawberry]]'
p68
I44
sS'[[Corn]]'
p69
I73
sS'[[Fish Fillet]]'
p70
I80
sS'[[Chili Popcorn]]'
p71
I4
sS'[[Bacon]]'
p72
I23
sS'[[Cotton Fabric]]'
p73
I42
sS'[[Pumpkin Pie]]'
p74
I62
sS'[[Potato Feta Cake]]'
p75
I88
sS'[[Sugarcane]]'
p76
I14
sS'[[Cookie]]'
p77
I65
sS'[[Apple Juice]]'
p78
I72
sS'[[Pig Feed]]'
p79
I32
sS'[[Cotton]]'
p80
I81
sS'[[Feta Pie]]'
p81
I38
sS'[[Cheese]]'
p82
I25
sS'[[Chocolate Ice Cream]]'
p83
I79
sS'[[Chicken Feed]]'
p84
I58
sS'[[Corn Bread]]'
p85
I55
sS'[[Wool]]'
p86
I67
sS'[[Roasted Tomatoes]]'
p87
I77
sS'[[Berry Juice]]'
p88
I63
sS'[[Sweater]]'
p89
I74
sS'[[Blackberry Muffin]]'
p90
I84
sS'[[Cow Feed]]'
p91
I11
s.(dp0
S'[[Cow Feed]]'
p1
I3
sS'[[Strawberry]]'
p2
I3
sS'[[Carrot Cake]]'
p3
I0
sS'[[Apple Pie]]'
p4
I1
sS'[[Indigo]]'
p5
I5
sS'[[Pizza]]'
p6
I2
sS'[[Lure]]'
p7
I4
sS'[[Bacon Pie]]'
p8
I1
sS'[[Potato Bread]]'
p9
I0
sS'[[Apple Juice]]'
p10
I4
sS'[[Goat Feed]]'
p11
I0
s.