(dp0
S'[[Pumpkin]]'
p1
I48
sS'[[Carrot Pie]]'
p2
I50
sS'[[Violet Dress]]'
p3
I15
sS'[[Strawberry Ice Cream]]'
p4
I30
sS'[[Raspberry Muffin]]'
p5
I41
sS'[[Apple Pie]]'
p6
I26
sS'[[Tomato Juice]]'
p7
I14
sS'[[Honey]]'
p8
I51
sS'[[Vanilla Ice Cream]]'
p9
I27
sS'[[Lure]]'
p10
I22
sS'[[Blackberry Jam]]'
p11
I89
sS'[[Tomato]]'
p12
I67
sS'[[Potato]]'
p13
I46
sS'[[Cheesecake]]'
p14
I9
sS'[[Fish Pie]]'
p15
I76
sS'[[Pancake]]'
p16
I60
sS'[[Popcorn]]'
p17
I74
sS'[[Goat Cheese]]'
p18
I2
sS'[[Potato Bread]]'
p19
I55
sS'[[Goat Feed]]'
p20
I29
sS'[[Red Berry Cake]]'
p21
I70
sS'[[Pizza]]'
p22
I65
sS'[[Syrup]]'
p23
I82
sS'[[Sheep Feed]]'
p24
I90
sS'[[Cherry Popsicle]]'
p25
I25
sS'[[Bacon and Eggs]]'
p26
I52
sS'[[Carrot Juice]]'
p27
I23
sS'[[Baked Potato]]'
p28
I80
sS'[[Milk]]'
p29
I34
sS'[[Apple Jam]]'
p30
I53
sS'[[Carrot]]'
p31
I7
sS'[[Blackberry]]'
p32
I78
sS'[[Cotton Shirt]]'
p33
I39
sS'[[Cream]]'
p34
I61
sS'[[Raspberry Jam]]'
p35
I1
sS'[[Cherry]]'
p36
I84
sS'[[Bread]]'
p37
I5
sS'[[Wheat]]'
p38
I11
sS'[[Casserole]]'
p39
I42
sS'[[Chili Pepper]]'
p40
I6
sS'[[Honey Popcorn]]'
p41
I71
sS'[[Honeycomb]]'
p42
I33
sS'[[Indigo]]'
p43
I12
sS'[[Raspberry]]'
p44
I24
sS'[[Chocolate Cake]]'
p45
I83
sS'[[Spicy Pizza]]'
p46
I8
sS'[[Cacao]]'
p47
I72
sS'[[Woolly Chaps]]'
p48
I38
sS'[[Carrot Cake]]'
p49
I36
sS'[[Egg]]'
p50
I28
sS'[[Strawberry Cake]]'
p51
I4
sS'[[Cherry Juice]]'
p52
I69
sS'[[Fish Burger]]'
p53
I62
sS'[[White Sugar]]'
p54
I49
sS'[[Buttered Popcorn]]'
p55
I16
sS'[[Cream Cake]]'
p56
I37
sS'[[Soybean]]'
p57
I35
sS'[[Apple]]'
p58
I77
sS'[[Blue Woolly Hat]]'
p59
I18
sS'[[Goat Milk]]'
p60
I54
sS'[[Hamburger]]'
p61
I21
sS'[[Cherry Jam]]'
p62
I19
sS"[[Shepherd's Pie]]"
p63
I40
sS'[[Brown Sugar]]'
p64
I73
sS'[[Butter]]'
p65
I10
sS'[[Bacon Pie]]'
p66
I87
sS'[[Strawberry]]'
p67
I31
sS'[[Pumpkin Pie]]'
p68
I20
sS'[[Corn]]'
p69
I17
sS'[[Fish Fillet]]'
p70
I86
sS'[[Chili Popcorn]]'
p71
I66
sS'[[Sugarcane]]'
p72
I79
sS'[[Cotton Fabric]]'
p73
I88
sS'[[Blue Sweater]]'
p74
I59
sS'[[Potato Feta Cake]]'
p75
I43
sS'[[Cookie]]'
p76
I13
sS'[[Apple Juice]]'
p77
I44
sS'[[Pig Feed]]'
p78
I57
sS'[[Cotton]]'
p79
I58
sS'[[Feta Pie]]'
p80
I63
sS'[[Cheese]]'
p81
I45
sS'[[Chocolate Ice Cream]]'
p82
I47
sS'[[Bacon]]'
p83
I75
sS'[[Chicken Feed]]'
p84
I3
sS'[[Corn Bread]]'
p85
I0
sS'[[Wool]]'
p86
I68
sS'[[Roasted Tomatoes]]'
p87
I81
sS'[[Berry Juice]]'
p88
I85
sS'[[Sweater]]'
p89
I56
sS'[[Blackberry Muffin]]'
p90
I32
sS'[[Cow Feed]]'
p91
I64
s.(dp0
S'[[Blackberry Jam]]'
p1
I0
sS'[[Raspberry Jam]]'
p2
I2
sS'[[Milk]]'
p3
I0
sS'[[Chili Popcorn]]'
p4
I1
sS'[[Cherry]]'
p5
I0
s.