(dp0
S'[[Pumpkin]]'
p1
I4
sS'[[Blackberry Jam]]'
p2
I43
sS'[[Violet Dress]]'
p3
I87
sS'[[Strawberry Ice Cream]]'
p4
I54
sS'[[Raspberry Muffin]]'
p5
I52
sS'[[Apple Pie]]'
p6
I18
sS'[[Tomato Juice]]'
p7
I26
sS'[[Carrot Cake]]'
p8
I86
sS'[[Vanilla Ice Cream]]'
p9
I6
sS'[[Lure]]'
p10
I3
sS'[[Carrot Pie]]'
p11
I72
sS'[[Tomato]]'
p12
I62
sS'[[Cherry Juice]]'
p13
I49
sS'[[Cheesecake]]'
p14
I31
sS'[[Fish Pie]]'
p15
I37
sS'[[Pancake]]'
p16
I50
sS'[[Popcorn]]'
p17
I81
sS'[[Goat Cheese]]'
p18
I51
sS'[[Potato Bread]]'
p19
I53
sS'[[Goat Feed]]'
p20
I16
sS'[[Red Berry Cake]]'
p21
I71
sS'[[Pizza]]'
p22
I8
sS'[[Syrup]]'
p23
I36
sS'[[Sheep Feed]]'
p24
I38
sS'[[Cherry Popsicle]]'
p25
I13
sS'[[Bacon and Eggs]]'
p26
I24
sS'[[Carrot Juice]]'
p27
I21
sS'[[Baked Potato]]'
p28
I15
sS'[[Milk]]'
p29
I70
sS'[[Apple Jam]]'
p30
I5
sS'[[Carrot]]'
p31
I14
sS'[[Blackberry]]'
p32
I88
sS'[[Cotton Shirt]]'
p33
I10
sS'[[Cream]]'
p34
I84
sS'[[Raspberry Jam]]'
p35
I80
sS'[[Cherry]]'
p36
I25
sS'[[Bread]]'
p37
I69
sS'[[Wheat]]'
p38
I34
sS'[[Casserole]]'
p39
I17
sS'[[Chili Pepper]]'
p40
I58
sS'[[Honey Popcorn]]'
p41
I41
sS'[[Honeycomb]]'
p42
I60
sS'[[Indigo]]'
p43
I33
sS'[[Raspberry]]'
p44
I74
sS'[[Chocolate Cake]]'
p45
I76
sS'[[Spicy Pizza]]'
p46
I23
sS'[[Cacao]]'
p47
I11
sS'[[Woolly Chaps]]'
p48
I64
sS'[[Honey]]'
p49
I29
sS'[[Egg]]'
p50
I30
sS'[[Strawberry Cake]]'
p51
I48
sS'[[Potato]]'
p52
I35
sS'[[Fish Burger]]'
p53
I56
sS'[[White Sugar]]'
p54
I42
sS'[[Buttered Popcorn]]'
p55
I77
sS'[[Cream Cake]]'
p56
I78
sS'[[Soybean]]'
p57
I89
sS'[[Apple]]'
p58
I59
sS'[[Blue Woolly Hat]]'
p59
I22
sS'[[Goat Milk]]'
p60
I9
sS'[[Hamburger]]'
p61
I0
sS'[[Cherry Jam]]'
p62
I19
sS"[[Shepherd's Pie]]"
p63
I73
sS'[[Brown Sugar]]'
p64
I44
sS'[[Butter]]'
p65
I20
sS'[[Bacon Pie]]'
p66
I65
sS'[[Strawberry]]'
p67
I90
sS'[[Pumpkin Pie]]'
p68
I1
sS'[[Corn]]'
p69
I28
sS'[[Fish Fillet]]'
p70
I68
sS'[[Chili Popcorn]]'
p71
I82
sS'[[Bacon]]'
p72
I46
sS'[[Cotton Fabric]]'
p73
I79
sS'[[Blue Sweater]]'
p74
I66
sS'[[Potato Feta Cake]]'
p75
I83
sS'[[Sugarcane]]'
p76
I63
sS'[[Cookie]]'
p77
I2
sS'[[Apple Juice]]'
p78
I45
sS'[[Pig Feed]]'
p79
I57
sS'[[Cotton]]'
p80
I40
sS'[[Feta Pie]]'
p81
I12
sS'[[Cheese]]'
p82
I7
sS'[[Chocolate Ice Cream]]'
p83
I75
sS'[[Chicken Feed]]'
p84
I39
sS'[[Corn Bread]]'
p85
I27
sS'[[Wool]]'
p86
I85
sS'[[Roasted Tomatoes]]'
p87
I61
sS'[[Berry Juice]]'
p88
I67
sS'[[Sweater]]'
p89
I32
sS'[[Blackberry Muffin]]'
p90
I55
sS'[[Cow Feed]]'
p91
I47
s.(dp0
S'[[Brown Sugar]]'
p1
I5
sS'[[Strawberry]]'
p2
I0
sS'[[Chili Pepper]]'
p3
I4
sS'[[Roasted Tomatoes]]'
p4
I5
sS'[[Cacao]]'
p5
I0
sS'[[Raspberry Jam]]'
p6
I1
sS'[[Cream Cake]]'
p7
I5
sS"[[Shepherd's Pie]]"
p8
I0
sS'[[Syrup]]'
p9
I5
sS'[[Cheesecake]]'
p10
I0
sS'[[Fish Fillet]]'
p11
I4
s.