(dp0
S'[[Pumpkin]]'
p1
I49
sS'[[Blackberry Jam]]'
p2
I65
sS'[[Violet Dress]]'
p3
I32
sS'[[Strawberry Ice Cream]]'
p4
I31
sS'[[Raspberry Muffin]]'
p5
I75
sS'[[Apple Pie]]'
p6
I61
sS'[[Tomato Juice]]'
p7
I68
sS'[[Carrot Cake]]'
p8
I53
sS'[[Vanilla Ice Cream]]'
p9
I17
sS'[[Lure]]'
p10
I8
sS'[[Carrot Pie]]'
p11
I85
sS'[[Tomato]]'
p12
I4
sS'[[Cherry Juice]]'
p13
I35
sS'[[Cheesecake]]'
p14
I81
sS'[[Fish Pie]]'
p15
I79
sS'[[Pancake]]'
p16
I24
sS'[[Popcorn]]'
p17
I50
sS'[[Goat Cheese]]'
p18
I22
sS'[[Potato Bread]]'
p19
I27
sS'[[Goat Feed]]'
p20
I88
sS'[[Red Berry Cake]]'
p21
I90
sS'[[Pizza]]'
p22
I45
sS'[[Syrup]]'
p23
I25
sS'[[Sheep Feed]]'
p24
I5
sS'[[Cherry Popsicle]]'
p25
I67
sS'[[Bacon and Eggs]]'
p26
I42
sS'[[Carrot Juice]]'
p27
I69
sS'[[Baked Potato]]'
p28
I76
sS'[[Milk]]'
p29
I89
sS'[[Apple Jam]]'
p30
I39
sS'[[Carrot]]'
p31
I41
sS'[[Blackberry]]'
p32
I56
sS'[[Cotton Shirt]]'
p33
I55
sS'[[Cream]]'
p34
I58
sS'[[Raspberry Jam]]'
p35
I0
sS'[[Cherry]]'
p36
I6
sS'[[Bread]]'
p37
I48
sS'[[Wheat]]'
p38
I70
sS'[[Casserole]]'
p39
I1
sS'[[Chili Pepper]]'
p40
I54
sS'[[Honey Popcorn]]'
p41
I9
sS'[[Honeycomb]]'
p42
I26
sS'[[Indigo]]'
p43
I14
sS'[[Raspberry]]'
p44
I21
sS'[[Chocolate Cake]]'
p45
I33
sS'[[Spicy Pizza]]'
p46
I29
sS'[[Cacao]]'
p47
I83
sS'[[Woolly Chaps]]'
p48
I13
sS'[[Honey]]'
p49
I36
sS'[[Egg]]'
p50
I62
sS'[[Strawberry Cake]]'
p51
I3
sS'[[Potato]]'
p52
I19
sS'[[Fish Burger]]'
p53
I37
sS'[[White Sugar]]'
p54
I15
sS'[[Buttered Popcorn]]'
p55
I52
sS'[[Cream Cake]]'
p56
I82
sS'[[Soybean]]'
p57
I34
sS'[[Apple]]'
p58
I63
sS'[[Blue Woolly Hat]]'
p59
I66
sS'[[Goat Milk]]'
p60
I77
sS'[[Hamburger]]'
p61
I12
sS'[[Cherry Jam]]'
p62
I74
sS"[[Shepherd's Pie]]"
p63
I18
sS'[[Brown Sugar]]'
p64
I40
sS'[[Butter]]'
p65
I7
sS'[[Bacon Pie]]'
p66
I23
sS'[[Strawberry]]'
p67
I10
sS'[[Pumpkin Pie]]'
p68
I43
sS'[[Corn]]'
p69
I78
sS'[[Fish Fillet]]'
p70
I2
sS'[[Chili Popcorn]]'
p71
I80
sS'[[Bacon]]'
p72
I46
sS'[[Cotton Fabric]]'
p73
I11
sS'[[Blue Sweater]]'
p74
I73
sS'[[Potato Feta Cake]]'
p75
I28
sS'[[Sugarcane]]'
p76
I44
sS'[[Cookie]]'
p77
I59
sS'[[Apple Juice]]'
p78
I20
sS'[[Pig Feed]]'
p79
I30
sS'[[Cotton]]'
p80
I86
sS'[[Feta Pie]]'
p81
I60
sS'[[Cheese]]'
p82
I64
sS'[[Chocolate Ice Cream]]'
p83
I87
sS'[[Chicken Feed]]'
p84
I71
sS'[[Corn Bread]]'
p85
I84
sS'[[Wool]]'
p86
I47
sS'[[Roasted Tomatoes]]'
p87
I16
sS'[[Berry Juice]]'
p88
I51
sS'[[Sweater]]'
p89
I57
sS'[[Blackberry Muffin]]'
p90
I72
sS'[[Cow Feed]]'
p91
I38
s.(dp0
S'[[Goat Feed]]'
p1
I0
sS'[[Blackberry]]'
p2
I1
sS'[[Goat Cheese]]'
p3
I1
sS'[[Chicken Feed]]'
p4
I1
sS'[[Roasted Tomatoes]]'
p5
I5
s.