(dp0
S'[[Pumpkin]]'
p1
I11
sS'[[Blackberry Jam]]'
p2
I67
sS'[[Violet Dress]]'
p3
I54
sS'[[Strawberry Ice Cream]]'
p4
I70
sS'[[Raspberry Muffin]]'
p5
I3
sS'[[Apple Pie]]'
p6
I28
sS'[[Tomato Juice]]'
p7
I2
sS'[[Carrot Cake]]'
p8
I39
sS'[[Vanilla Ice Cream]]'
p9
I1
sS'[[Lure]]'
p10
I90
sS'[[Carrot Pie]]'
p11
I50
sS'[[Tomato]]'
p12
I23
sS'[[Cherry Juice]]'
p13
I76
sS'[[Cheesecake]]'
p14
I21
sS'[[Fish Pie]]'
p15
I35
sS'[[Pancake]]'
p16
I85
sS'[[Popcorn]]'
p17
I38
sS'[[Goat Cheese]]'
p18
I48
sS'[[Potato Bread]]'
p19
I83
sS'[[Goat Feed]]'
p20
I89
sS'[[Red Berry Cake]]'
p21
I79
sS'[[Pizza]]'
p22
I75
sS'[[Syrup]]'
p23
I14
sS'[[Sheep Feed]]'
p24
I64
sS'[[Cherry Popsicle]]'
p25
I24
sS'[[Bacon and Eggs]]'
p26
I88
sS'[[Carrot Juice]]'
p27
I82
sS'[[Baked Potato]]'
p28
I20
sS'[[Milk]]'
p29
I12
sS'[[Apple Jam]]'
p30
I19
sS'[[Carrot]]'
p31
I81
sS'[[Blackberry]]'
p32
I33
sS'[[Cotton Shirt]]'
p33
I36
sS'[[Cream]]'
p34
I66
sS'[[Raspberry Jam]]'
p35
I58
sS'[[Cherry]]'
p36
I51
sS'[[Bread]]'
p37
I6
sS'[[Wheat]]'
p38
I46
sS'[[Casserole]]'
p39
I8
sS'[[Chili Pepper]]'
p40
I77
sS'[[Honey Popcorn]]'
p41
I78
sS'[[Honeycomb]]'
p42
I86
sS'[[Indigo]]'
p43
I13
sS'[[Raspberry]]'
p44
I27
sS'[[Chocolate Cake]]'
p45
I71
sS'[[Spicy Pizza]]'
p46
I42
sS'[[Cacao]]'
p47
I63
sS'[[Woolly Chaps]]'
p48
I15
sS'[[Honey]]'
p49
I49
sS'[[Egg]]'
p50
I61
sS'[[Strawberry Cake]]'
p51
I45
sS'[[Potato]]'
p52
I84
sS'[[Fish Burger]]'
p53
I56
sS'[[White Sugar]]'
p54
I68
sS'[[Buttered Popcorn]]'
p55
I4
sS'[[Cream Cake]]'
p56
I73
sS'[[Soybean]]'
p57
I31
sS'[[Apple]]'
p58
I17
sS'[[Blue Woolly Hat]]'
p59
I26
sS'[[Goat Milk]]'
p60
I9
sS'[[Hamburger]]'
p61
I53
sS'[[Cherry Jam]]'
p62
I80
sS"[[Shepherd's Pie]]"
p63
I57
sS'[[Brown Sugar]]'
p64
I59
sS'[[Butter]]'
p65
I52
sS'[[Bacon Pie]]'
p66
I16
sS'[[Strawberry]]'
p67
I65
sS'[[Pumpkin Pie]]'
p68
I32
sS'[[Corn]]'
p69
I25
sS'[[Fish Fillet]]'
p70
I10
sS'[[Chili Popcorn]]'
p71
I37
sS'[[Bacon]]'
p72
I74
sS'[[Cotton Fabric]]'
p73
I62
sS'[[Blue Sweater]]'
p74
I18
sS'[[Potato Feta Cake]]'
p75
I69
sS'[[Sugarcane]]'
p76
I0
sS'[[Cookie]]'
p77
I47
sS'[[Apple Juice]]'
p78
I60
sS'[[Pig Feed]]'
p79
I43
sS'[[Cotton]]'
p80
I72
sS'[[Feta Pie]]'
p81
I30
sS'[[Cheese]]'
p82
I44
sS'[[Chocolate Ice Cream]]'
p83
I7
sS'[[Chicken Feed]]'
p84
I55
sS'[[Corn Bread]]'
p85
I5
sS'[[Wool]]'
p86
I29
sS'[[Roasted Tomatoes]]'
p87
I34
sS'[[Berry Juice]]'
p88
I40
sS'[[Sweater]]'
p89
I87
sS'[[Blackberry Muffin]]'
p90
I22
sS'[[Cow Feed]]'
p91
I41
s.(dp0
S'[[Pumpkin]]'
p1
I1
sS'[[Raspberry Muffin]]'
p2
I3
sS'[[Roasted Tomatoes]]'
p3
I1
sS'[[Carrot]]'
p4
I5
sS'[[Honey]]'
p5
I1
sS'[[Carrot Pie]]'
p6
I1
sS'[[Apple Pie]]'
p7
I0
sS'[[Butter]]'
p8
I3
sS'[[Carrot Cake]]'
p9
I2
sS'[[Wool]]'
p10
I3
sS'[[Potato Bread]]'
p11
I0
s.