(dp0
S'[[Pumpkin]]'
p1
I18
sS'[[Blackberry Jam]]'
p2
I22
sS'[[Violet Dress]]'
p3
I0
sS'[[Strawberry Ice Cream]]'
p4
I33
sS'[[Raspberry Muffin]]'
p5
I8
sS'[[Apple Pie]]'
p6
I21
sS'[[Tomato Juice]]'
p7
I25
sS'[[Blue Sweater]]'
p8
I51
sS'[[Honey]]'
p9
I79
sS'[[Vanilla Ice Cream]]'
p10
I81
sS'[[Lure]]'
p11
I5
sS'[[Carrot Pie]]'
p12
I40
sS'[[Tomato]]'
p13
I85
sS'[[Potato]]'
p14
I82
sS'[[Cheesecake]]'
p15
I86
sS'[[Fish Pie]]'
p16
I3
sS'[[Pancake]]'
p17
I4
sS'[[Popcorn]]'
p18
I57
sS'[[Goat Cheese]]'
p19
I66
sS'[[Potato Bread]]'
p20
I71
sS'[[Goat Feed]]'
p21
I84
sS'[[Red Berry Cake]]'
p22
I45
sS'[[Pizza]]'
p23
I76
sS'[[Syrup]]'
p24
I44
sS'[[Sheep Feed]]'
p25
I32
sS'[[Cherry Popsicle]]'
p26
I56
sS'[[Bacon and Eggs]]'
p27
I7
sS'[[Carrot]]'
p28
I50
sS'[[Carrot Juice]]'
p29
I55
sS'[[Baked Potato]]'
p30
I88
sS'[[Milk]]'
p31
I54
sS'[[Apple Jam]]'
p32
I6
sS'[[Apple]]'
p33
I49
sS'[[Blackberry]]'
p34
I12
sS'[[Cotton Shirt]]'
p35
I67
sS'[[Cream]]'
p36
I78
sS'[[Raspberry Jam]]'
p37
I80
sS'[[Cherry]]'
p38
I43
sS'[[Bread]]'
p39
I36
sS'[[Wheat]]'
p40
I2
sS'[[Casserole]]'
p41
I11
sS'[[Strawberry]]'
p42
I58
sS'[[Honey Popcorn]]'
p43
I29
sS'[[Honeycomb]]'
p44
I42
sS'[[Indigo]]'
p45
I13
sS'[[Raspberry]]'
p46
I68
sS'[[Chocolate Cake]]'
p47
I72
sS'[[Spicy Pizza]]'
p48
I83
sS'[[Cacao]]'
p49
I15
sS'[[Woolly Chaps]]'
p50
I27
sS'[[Carrot Cake]]'
p51
I61
sS'[[Egg]]'
p52
I38
sS'[[Strawberry Cake]]'
p53
I1
sS'[[Cherry Juice]]'
p54
I9
sS'[[Fish Burger]]'
p55
I39
sS'[[White Sugar]]'
p56
I31
sS'[[Buttered Popcorn]]'
p57
I34
sS'[[Cream Cake]]'
p58
I14
sS'[[Soybean]]'
p59
I52
sS'[[Brown Sugar]]'
p60
I23
sS'[[Blue Woolly Hat]]'
p61
I28
sS'[[Goat Milk]]'
p62
I37
sS'[[Hamburger]]'
p63
I19
sS'[[Cherry Jam]]'
p64
I35
sS"[[Shepherd's Pie]]"
p65
I20
sS'[[Butter]]'
p66
I64
sS'[[Bacon Pie]]'
p67
I87
sS'[[Chili Pepper]]'
p68
I59
sS'[[Corn]]'
p69
I65
sS'[[Fish Fillet]]'
p70
I53
sS'[[Chili Popcorn]]'
p71
I73
sS'[[Bacon]]'
p72
I48
sS'[[Cotton Fabric]]'
p73
I74
sS'[[Pumpkin Pie]]'
p74
I60
sS'[[Potato Feta Cake]]'
p75
I69
sS'[[Sugarcane]]'
p76
I26
sS'[[Cookie]]'
p77
I16
sS'[[Apple Juice]]'
p78
I46
sS'[[Pig Feed]]'
p79
I70
sS'[[Cotton]]'
p80
I63
sS'[[Feta Pie]]'
p81
I17
sS'[[Cheese]]'
p82
I47
sS'[[Chocolate Ice Cream]]'
p83
I62
sS'[[Chicken Feed]]'
p84
I90
sS'[[Corn Bread]]'
p85
I24
sS'[[Wool]]'
p86
I30
sS'[[Roasted Tomatoes]]'
p87
I41
sS'[[Berry Juice]]'
p88
I77
sS'[[Sweater]]'
p89
I89
sS'[[Blackberry Muffin]]'
p90
I10
sS'[[Cow Feed]]'
p91
I75
s.(dp0
S'[[Apple]]'
p1
I5
sS'[[Chili Pepper]]'
p2
I2
sS'[[Corn Bread]]'
p3
I0
sS'[[Chili Popcorn]]'
p4
I0
sS'[[Indigo]]'
p5
I1
sS'[[Pancake]]'
p6
I1
sS'[[Wool]]'
p7
I1
sS'[[Chocolate Ice Cream]]'
p8
I0
s.