(dp0
S'[[Pumpkin]]'
p1
I17
sS'[[Blackberry Jam]]'
p2
I83
sS'[[Violet Dress]]'
p3
I19
sS'[[Strawberry Ice Cream]]'
p4
I27
sS'[[Raspberry Muffin]]'
p5
I60
sS'[[Apple Pie]]'
p6
I63
sS'[[Tomato Juice]]'
p7
I18
sS'[[Carrot Cake]]'
p8
I74
sS'[[Vanilla Ice Cream]]'
p9
I9
sS'[[Lure]]'
p10
I84
sS'[[Carrot Pie]]'
p11
I67
sS'[[Tomato]]'
p12
I61
sS'[[Cherry Juice]]'
p13
I86
sS'[[Cheesecake]]'
p14
I58
sS'[[Fish Pie]]'
p15
I85
sS'[[Pancake]]'
p16
I88
sS'[[Popcorn]]'
p17
I16
sS'[[Goat Cheese]]'
p18
I50
sS'[[Potato Bread]]'
p19
I41
sS'[[Goat Feed]]'
p20
I10
sS'[[Red Berry Cake]]'
p21
I26
sS'[[Pizza]]'
p22
I14
sS'[[Syrup]]'
p23
I78
sS'[[Sheep Feed]]'
p24
I55
sS'[[Cherry Popsicle]]'
p25
I64
sS'[[Bacon and Eggs]]'
p26
I73
sS'[[Carrot Juice]]'
p27
I89
sS'[[Baked Potato]]'
p28
I48
sS'[[Milk]]'
p29
I6
sS'[[Apple Jam]]'
p30
I80
sS'[[Carrot]]'
p31
I37
sS'[[Blackberry]]'
p32
I70
sS'[[Cotton Shirt]]'
p33
I1
sS'[[Cream]]'
p34
I54
sS'[[Raspberry Jam]]'
p35
I87
sS'[[Cherry]]'
p36
I75
sS'[[Bread]]'
p37
I24
sS'[[Wheat]]'
p38
I69
sS'[[Casserole]]'
p39
I65
sS'[[Chili Pepper]]'
p40
I53
sS'[[Honey Popcorn]]'
p41
I2
sS'[[Honeycomb]]'
p42
I90
sS'[[Indigo]]'
p43
I38
sS'[[Raspberry]]'
p44
I20
sS'[[Chocolate Cake]]'
p45
I25
sS'[[Spicy Pizza]]'
p46
I22
sS'[[Cacao]]'
p47
I81
sS'[[Woolly Chaps]]'
p48
I77
sS'[[Honey]]'
p49
I8
sS'[[Egg]]'
p50
I47
sS'[[Strawberry Cake]]'
p51
I72
sS'[[Potato]]'
p52
I68
sS'[[Fish Burger]]'
p53
I66
sS'[[White Sugar]]'
p54
I0
sS'[[Buttered Popcorn]]'
p55
I57
sS'[[Cream Cake]]'
p56
I59
sS'[[Soybean]]'
p57
I62
sS'[[Apple]]'
p58
I45
sS'[[Blue Woolly Hat]]'
p59
I31
sS'[[Goat Milk]]'
p60
I79
sS'[[Hamburger]]'
p61
I42
sS'[[Cherry Jam]]'
p62
I4
sS"[[Shepherd's Pie]]"
p63
I39
sS'[[Brown Sugar]]'
p64
I44
sS'[[Butter]]'
p65
I32
sS'[[Bacon Pie]]'
p66
I82
sS'[[Strawberry]]'
p67
I30
sS'[[Pumpkin Pie]]'
p68
I46
sS'[[Corn]]'
p69
I23
sS'[[Fish Fillet]]'
p70
I36
sS'[[Chili Popcorn]]'
p71
I43
sS'[[Bacon]]'
p72
I49
sS'[[Cotton Fabric]]'
p73
I21
sS'[[Blue Sweater]]'
p74
I34
sS'[[Potato Feta Cake]]'
p75
I11
sS'[[Sugarcane]]'
p76
I71
sS'[[Cookie]]'
p77
I33
sS'[[Apple Juice]]'
p78
I40
sS'[[Pig Feed]]'
p79
I28
sS'[[Cotton]]'
p80
I51
sS'[[Feta Pie]]'
p81
I15
sS'[[Cheese]]'
p82
I52
sS'[[Chocolate Ice Cream]]'
p83
I29
sS'[[Chicken Feed]]'
p84
I3
sS'[[Corn Bread]]'
p85
I12
sS'[[Wool]]'
p86
I35
sS'[[Roasted Tomatoes]]'
p87
I5
sS'[[Berry Juice]]'
p88
I7
sS'[[Sweater]]'
p89
I56
sS'[[Blackberry Muffin]]'
p90
I13
sS'[[Cow Feed]]'
p91
I76
s.(dp0
S'[[Sheep Feed]]'
p1
I0
sS'[[Brown Sugar]]'
p2
I1
sS'[[Corn Bread]]'
p3
I0
sS'[[Honey Popcorn]]'
p4
I2
sS'[[Fish Pie]]'
p5
I0
sS'[[Cotton Shirt]]'
p6
I3
sS'[[Pancake]]'
p7
I0
sS'[[Cream Cake]]'
p8
I4
sS'[[Cotton Fabric]]'
p9
I4
sS'[[Violet Dress]]'
p10
I5
sS'[[Blue Woolly Hat]]'
p11
I0
s.