(dp0
S'[[Pumpkin]]'
p1
I56
sS'[[Blackberry Jam]]'
p2
I3
sS'[[Violet Dress]]'
p3
I41
sS'[[Strawberry Ice Cream]]'
p4
I70
sS'[[Raspberry Muffin]]'
p5
I36
sS'[[Apple Pie]]'
p6
I19
sS'[[Tomato Juice]]'
p7
I39
sS'[[Blue Sweater]]'
p8
I9
sS'[[Honey]]'
p9
I8
sS'[[Vanilla Ice Cream]]'
p10
I43
sS'[[Lure]]'
p11
I30
sS'[[Carrot Pie]]'
p12
I5
sS'[[Tomato]]'
p13
I90
sS'[[Potato]]'
p14
I24
sS'[[Cheesecake]]'
p15
I26
sS'[[Fish Pie]]'
p16
I81
sS'[[Pancake]]'
p17
I23
sS'[[Popcorn]]'
p18
I62
sS'[[Goat Cheese]]'
p19
I69
sS'[[Potato Bread]]'
p20
I84
sS'[[Goat Feed]]'
p21
I2
sS'[[Red Berry Cake]]'
p22
I45
sS'[[Pizza]]'
p23
I82
sS'[[Syrup]]'
p24
I4
sS'[[Sheep Feed]]'
p25
I12
sS'[[Cherry Popsicle]]'
p26
I31
sS'[[Bacon and Eggs]]'
p27
I68
sS'[[Carrot Juice]]'
p28
I22
sS'[[Baked Potato]]'
p29
I79
sS'[[Milk]]'
p30
I60
sS'[[Apple Jam]]'
p31
I78
sS'[[Carrot]]'
p32
I55
sS'[[Blackberry]]'
p33
I38
sS'[[Cotton Shirt]]'
p34
I44
sS'[[Cream]]'
p35
I59
sS'[[Raspberry Jam]]'
p36
I73
sS'[[Cherry]]'
p37
I65
sS'[[Bread]]'
p38
I35
sS'[[Wheat]]'
p39
I54
sS'[[Casserole]]'
p40
I86
sS'[[Chili Pepper]]'
p41
I1
sS'[[Honey Popcorn]]'
p42
I40
sS'[[Honeycomb]]'
p43
I27
sS'[[Indigo]]'
p44
I57
sS'[[Raspberry]]'
p45
I87
sS'[[Chocolate Cake]]'
p46
I21
sS'[[Spicy Pizza]]'
p47
I28
sS'[[Cacao]]'
p48
I17
sS'[[Woolly Chaps]]'
p49
I51
sS'[[Carrot Cake]]'
p50
I7
sS'[[Egg]]'
p51
I13
sS'[[Strawberry Cake]]'
p52
I37
sS'[[Cherry Juice]]'
p53
I33
sS'[[Fish Burger]]'
p54
I88
sS'[[White Sugar]]'
p55
I29
sS'[[Buttered Popcorn]]'
p56
I67
sS'[[Cream Cake]]'
p57
I11
sS'[[Soybean]]'
p58
I25
sS'[[Apple]]'
p59
I53
sS'[[Blue Woolly Hat]]'
p60
I34
sS'[[Goat Milk]]'
p61
I76
sS'[[Hamburger]]'
p62
I16
sS'[[Cherry Jam]]'
p63
I58
sS"[[Shepherd's Pie]]"
p64
I46
sS'[[Brown Sugar]]'
p65
I89
sS'[[Butter]]'
p66
I48
sS'[[Bacon Pie]]'
p67
I85
sS'[[Strawberry]]'
p68
I6
sS'[[Corn]]'
p69
I75
sS'[[Fish Fillet]]'
p70
I52
sS'[[Chili Popcorn]]'
p71
I77
sS'[[Bacon]]'
p72
I72
sS'[[Cotton Fabric]]'
p73
I32
sS'[[Pumpkin Pie]]'
p74
I10
sS'[[Potato Feta Cake]]'
p75
I71
sS'[[Sugarcane]]'
p76
I20
sS'[[Cookie]]'
p77
I49
sS'[[Apple Juice]]'
p78
I18
sS'[[Pig Feed]]'
p79
I42
sS'[[Cotton]]'
p80
I74
sS'[[Feta Pie]]'
p81
I0
sS'[[Cheese]]'
p82
I15
sS'[[Chocolate Ice Cream]]'
p83
I50
sS'[[Chicken Feed]]'
p84
I83
sS'[[Corn Bread]]'
p85
I66
sS'[[Wool]]'
p86
I61
sS'[[Roasted Tomatoes]]'
p87
I47
sS'[[Berry Juice]]'
p88
I64
sS'[[Sweater]]'
p89
I14
sS'[[Blackberry Muffin]]'
p90
I63
sS'[[Cow Feed]]'
p91
I80
s.(dp0
S'[[Potato]]'
p1
I1
sS'[[Carrot Cake]]'
p2
I2
sS'[[Fish Pie]]'
p3
I4
sS'[[Blue Woolly Hat]]'
p4
I1
sS'[[Pumpkin]]'
p5
I0
sS'[[Hamburger]]'
p6
I1
s.