(dp0
S'[[Pumpkin]]'
p1
I7
sS'[[Blackberry Jam]]'
p2
I33
sS'[[Violet Dress]]'
p3
I46
sS'[[Strawberry Ice Cream]]'
p4
I85
sS'[[Raspberry Muffin]]'
p5
I73
sS'[[Apple Pie]]'
p6
I5
sS'[[Tomato Juice]]'
p7
I52
sS'[[Carrot Cake]]'
p8
I38
sS'[[Vanilla Ice Cream]]'
p9
I13
sS'[[Lure]]'
p10
I88
sS'[[Carrot Pie]]'
p11
I74
sS'[[Tomato]]'
p12
I30
sS'[[Cherry Juice]]'
p13
I26
sS'[[Cheesecake]]'
p14
I14
sS'[[Fish Pie]]'
p15
I50
sS'[[Pancake]]'
p16
I76
sS'[[Popcorn]]'
p17
I37
sS'[[Goat Cheese]]'
p18
I64
sS'[[Potato Bread]]'
p19
I16
sS'[[Goat Feed]]'
p20
I17
sS'[[Red Berry Cake]]'
p21
I24
sS'[[Pizza]]'
p22
I9
sS'[[Syrup]]'
p23
I2
sS'[[Sheep Feed]]'
p24
I19
sS'[[Cherry Popsicle]]'
p25
I80
sS'[[Bacon and Eggs]]'
p26
I12
sS'[[Carrot Juice]]'
p27
I56
sS'[[Baked Potato]]'
p28
I45
sS'[[Milk]]'
p29
I67
sS'[[Apple Jam]]'
p30
I15
sS'[[Carrot]]'
p31
I62
sS'[[Blackberry]]'
p32
I86
sS'[[Cotton Shirt]]'
p33
I6
sS'[[Cream]]'
p34
I27
sS'[[Raspberry Jam]]'
p35
I75
sS'[[Cherry]]'
p36
I65
sS'[[Bread]]'
p37
I18
sS'[[Wheat]]'
p38
I87
sS'[[Casserole]]'
p39
I11
sS'[[Chili Pepper]]'
p40
I47
sS'[[Honey Popcorn]]'
p41
I28
sS'[[Honeycomb]]'
p42
I55
sS'[[Indigo]]'
p43
I77
sS'[[Raspberry]]'
p44
I53
sS'[[Chocolate Cake]]'
p45
I20
sS'[[Spicy Pizza]]'
p46
I57
sS'[[Cacao]]'
p47
I10
sS'[[Woolly Chaps]]'
p48
I61
sS'[[Honey]]'
p49
I43
sS'[[Egg]]'
p50
I72
sS'[[Strawberry Cake]]'
p51
I42
sS'[[Potato]]'
p52
I89
sS'[[Fish Burger]]'
p53
I48
sS'[[White Sugar]]'
p54
I39
sS'[[Buttered Popcorn]]'
p55
I60
sS'[[Cream Cake]]'
p56
I70
sS'[[Soybean]]'
p57
I31
sS'[[Apple]]'
p58
I69
sS'[[Blue Woolly Hat]]'
p59
I22
sS'[[Goat Milk]]'
p60
I81
sS'[[Hamburger]]'
p61
I32
sS'[[Cherry Jam]]'
p62
I79
sS"[[Shepherd's Pie]]"
p63
I21
sS'[[Brown Sugar]]'
p64
I51
sS'[[Butter]]'
p65
I29
sS'[[Bacon Pie]]'
p66
I83
sS'[[Strawberry]]'
p67
I23
sS'[[Pumpkin Pie]]'
p68
I1
sS'[[Corn]]'
p69
I54
sS'[[Fish Fillet]]'
p70
I84
sS'[[Chili Popcorn]]'
p71
I68
sS'[[Bacon]]'
p72
I49
sS'[[Cotton Fabric]]'
p73
I35
sS'[[Blue Sweater]]'
p74
I63
sS'[[Potato Feta Cake]]'
p75
I59
sS'[[Sugarcane]]'
p76
I58
sS'[[Cookie]]'
p77
I90
sS'[[Apple Juice]]'
p78
I3
sS'[[Pig Feed]]'
p79
I66
sS'[[Cotton]]'
p80
I36
sS'[[Feta Pie]]'
p81
I8
sS'[[Cheese]]'
p82
I4
sS'[[Chocolate Ice Cream]]'
p83
I44
sS'[[Chicken Feed]]'
p84
I34
sS'[[Corn Bread]]'
p85
I0
sS'[[Wool]]'
p86
I40
sS'[[Roasted Tomatoes]]'
p87
I41
sS'[[Berry Juice]]'
p88
I25
sS'[[Sweater]]'
p89
I78
sS'[[Blackberry Muffin]]'
p90
I82
sS'[[Cow Feed]]'
p91
I71
s.(dp0
S'[[Blue Sweater]]'
p1
I1
sS'[[Potato Feta Cake]]'
p2
I3
sS'[[Cacao]]'
p3
I1
sS'[[Cherry Juice]]'
p4
I2
sS'[[Feta Pie]]'
p5
I1
sS'[[Blackberry Muffin]]'
p6
I3
sS'[[Pancake]]'
p7
I4
sS'[[Buttered Popcorn]]'
p8
I4
sS'[[Cream Cake]]'
p9
I4
sS'[[Syrup]]'
p10
I2
sS'[[Goat Feed]]'
p11
I0
s.