(dp0
S'[[Pumpkin]]'
p1
I78
sS'[[Blackberry Jam]]'
p2
I70
sS'[[Violet Dress]]'
p3
I10
sS'[[Strawberry Ice Cream]]'
p4
I76
sS'[[Raspberry Muffin]]'
p5
I65
sS'[[Apple Pie]]'
p6
I85
sS'[[Tomato Juice]]'
p7
I55
sS'[[Carrot Cake]]'
p8
I62
sS'[[Vanilla Ice Cream]]'
p9
I87
sS'[[Lure]]'
p10
I53
sS'[[Carrot Pie]]'
p11
I49
sS'[[Tomato]]'
p12
I47
sS'[[Cherry Juice]]'
p13
I64
sS'[[Cheesecake]]'
p14
I1
sS'[[Fish Pie]]'
p15
I19
sS'[[Pancake]]'
p16
I14
sS'[[Popcorn]]'
p17
I11
sS'[[Goat Cheese]]'
p18
I59
sS'[[Potato Bread]]'
p19
I56
sS'[[Goat Feed]]'
p20
I86
sS'[[Red Berry Cake]]'
p21
I28
sS'[[Pizza]]'
p22
I44
sS'[[Syrup]]'
p23
I52
sS'[[Sheep Feed]]'
p24
I16
sS'[[Cherry Popsicle]]'
p25
I22
sS'[[Bacon and Eggs]]'
p26
I6
sS'[[Carrot Juice]]'
p27
I88
sS'[[Baked Potato]]'
p28
I41
sS'[[Milk]]'
p29
I32
sS'[[Apple Jam]]'
p30
I34
sS'[[Carrot]]'
p31
I51
sS'[[Blackberry]]'
p32
I30
sS'[[Cotton Shirt]]'
p33
I61
sS'[[Cream]]'
p34
I2
sS'[[Raspberry Jam]]'
p35
I58
sS'[[Cherry]]'
p36
I0
sS'[[Bread]]'
p37
I18
sS'[[Wheat]]'
p38
I54
sS'[[Casserole]]'
p39
I90
sS'[[Chili Pepper]]'
p40
I84
sS'[[Honey Popcorn]]'
p41
I37
sS'[[Honeycomb]]'
p42
I24
sS'[[Indigo]]'
p43
I13
sS'[[Raspberry]]'
p44
I89
sS'[[Chocolate Cake]]'
p45
I45
sS'[[Spicy Pizza]]'
p46
I26
sS'[[Cacao]]'
p47
I29
sS'[[Woolly Chaps]]'
p48
I40
sS'[[Honey]]'
p49
I66
sS'[[Egg]]'
p50
I82
sS'[[Strawberry Cake]]'
p51
I4
sS'[[Potato]]'
p52
I80
sS'[[Fish Burger]]'
p53
I15
sS'[[White Sugar]]'
p54
I50
sS'[[Buttered Popcorn]]'
p55
I57
sS'[[Cream Cake]]'
p56
I36
sS'[[Soybean]]'
p57
I81
sS'[[Apple]]'
p58
I33
sS'[[Blue Woolly Hat]]'
p59
I21
sS'[[Goat Milk]]'
p60
I48
sS'[[Hamburger]]'
p61
I77
sS'[[Cherry Jam]]'
p62
I3
sS"[[Shepherd's Pie]]"
p63
I46
sS'[[Brown Sugar]]'
p64
I25
sS'[[Butter]]'
p65
I8
sS'[[Bacon Pie]]'
p66
I17
sS'[[Strawberry]]'
p67
I60
sS'[[Pumpkin Pie]]'
p68
I20
sS'[[Corn]]'
p69
I79
sS'[[Fish Fillet]]'
p70
I39
sS'[[Chili Popcorn]]'
p71
I12
sS'[[Bacon]]'
p72
I72
sS'[[Cotton Fabric]]'
p73
I74
sS'[[Blue Sweater]]'
p74
I69
sS'[[Potato Feta Cake]]'
p75
I5
sS'[[Sugarcane]]'
p76
I7
sS'[[Cookie]]'
p77
I63
sS'[[Apple Juice]]'
p78
I71
sS'[[Pig Feed]]'
p79
I31
sS'[[Cotton]]'
p80
I38
sS'[[Feta Pie]]'
p81
I9
sS'[[Cheese]]'
p82
I42
sS'[[Chocolate Ice Cream]]'
p83
I27
sS'[[Chicken Feed]]'
p84
I68
sS'[[Corn Bread]]'
p85
I35
sS'[[Wool]]'
p86
I23
sS'[[Roasted Tomatoes]]'
p87
I75
sS'[[Berry Juice]]'
p88
I67
sS'[[Sweater]]'
p89
I43
sS'[[Blackberry Muffin]]'
p90
I83
sS'[[Cow Feed]]'
p91
I73
s.(dp0
S'[[Wheat]]'
p1
I3
sS'[[Cherry Juice]]'
p2
I1
sS'[[Popcorn]]'
p3
I1
sS'[[Cheesecake]]'
p4
I2
sS'[[Blackberry Jam]]'
p5
I5
sS'[[Cotton]]'
p6
I3
sS'[[Honeycomb]]'
p7
I3
sS'[[Cherry Jam]]'
p8
I3
sS'[[Wool]]'
p9
I4
sS'[[Cow Feed]]'
p10
I3
sS'[[Syrup]]'
p11
I0
s.