(dp0
S'[[Pumpkin]]'
p1
I54
sS'[[Blackberry Jam]]'
p2
I20
sS'[[Violet Dress]]'
p3
I48
sS'[[Strawberry Ice Cream]]'
p4
I75
sS'[[Raspberry Muffin]]'
p5
I10
sS'[[Apple Pie]]'
p6
I76
sS'[[Tomato Juice]]'
p7
I86
sS'[[Blue Sweater]]'
p8
I25
sS'[[Honey]]'
p9
I70
sS'[[Vanilla Ice Cream]]'
p10
I89
sS'[[Lure]]'
p11
I27
sS'[[Carrot Pie]]'
p12
I7
sS'[[Tomato]]'
p13
I80
sS'[[Potato]]'
p14
I88
sS'[[Cheesecake]]'
p15
I73
sS'[[Fish Pie]]'
p16
I67
sS'[[Pancake]]'
p17
I38
sS'[[Popcorn]]'
p18
I39
sS'[[Goat Cheese]]'
p19
I32
sS'[[Potato Bread]]'
p20
I21
sS'[[Goat Feed]]'
p21
I18
sS'[[Red Berry Cake]]'
p22
I31
sS'[[Pizza]]'
p23
I62
sS'[[Syrup]]'
p24
I16
sS'[[Sheep Feed]]'
p25
I24
sS'[[Cherry Popsicle]]'
p26
I35
sS'[[Bacon and Eggs]]'
p27
I8
sS'[[Carrot]]'
p28
I4
sS'[[Carrot Juice]]'
p29
I77
sS'[[Baked Potato]]'
p30
I6
sS'[[Milk]]'
p31
I26
sS'[[Apple Jam]]'
p32
I46
sS'[[Apple]]'
p33
I13
sS'[[Blackberry]]'
p34
I42
sS'[[Cotton Shirt]]'
p35
I3
sS'[[Cream]]'
p36
I17
sS'[[Raspberry Jam]]'
p37
I57
sS'[[Cherry]]'
p38
I15
sS'[[Bread]]'
p39
I40
sS'[[Wheat]]'
p40
I81
sS'[[Casserole]]'
p41
I28
sS'[[Strawberry]]'
p42
I71
sS'[[Honey Popcorn]]'
p43
I0
sS'[[Honeycomb]]'
p44
I58
sS'[[Indigo]]'
p45
I1
sS'[[Raspberry]]'
p46
I12
sS'[[Chocolate Cake]]'
p47
I68
sS'[[Spicy Pizza]]'
p48
I87
sS'[[Cacao]]'
p49
I50
sS'[[Woolly Chaps]]'
p50
I82
sS'[[Carrot Cake]]'
p51
I2
sS'[[Egg]]'
p52
I23
sS'[[Strawberry Cake]]'
p53
I72
sS'[[Cherry Juice]]'
p54
I22
sS'[[Fish Burger]]'
p55
I41
sS'[[White Sugar]]'
p56
I47
sS'[[Buttered Popcorn]]'
p57
I51
sS'[[Cream Cake]]'
p58
I19
sS'[[Soybean]]'
p59
I56
sS'[[Brown Sugar]]'
p60
I64
sS'[[Blue Woolly Hat]]'
p61
I65
sS'[[Goat Milk]]'
p62
I60
sS'[[Hamburger]]'
p63
I69
sS'[[Cherry Jam]]'
p64
I49
sS"[[Shepherd's Pie]]"
p65
I37
sS'[[Butter]]'
p66
I74
sS'[[Bacon Pie]]'
p67
I78
sS'[[Chili Pepper]]'
p68
I79
sS'[[Corn]]'
p69
I59
sS'[[Fish Fillet]]'
p70
I90
sS'[[Chili Popcorn]]'
p71
I36
sS'[[Bacon]]'
p72
I43
sS'[[Cotton Fabric]]'
p73
I53
sS'[[Pumpkin Pie]]'
p74
I5
sS'[[Potato Feta Cake]]'
p75
I83
sS'[[Sugarcane]]'
p76
I14
sS'[[Cookie]]'
p77
I61
sS'[[Apple Juice]]'
p78
I11
sS'[[Pig Feed]]'
p79
I66
sS'[[Cotton]]'
p80
I9
sS'[[Feta Pie]]'
p81
I29
sS'[[Cheese]]'
p82
I55
sS'[[Chocolate Ice Cream]]'
p83
I52
sS'[[Chicken Feed]]'
p84
I33
sS'[[Corn Bread]]'
p85
I63
sS'[[Wool]]'
p86
I84
sS'[[Roasted Tomatoes]]'
p87
I85
sS'[[Berry Juice]]'
p88
I44
sS'[[Sweater]]'
p89
I30
sS'[[Blackberry Muffin]]'
p90
I45
sS'[[Cow Feed]]'
p91
I34
s.(dp0
S'[[Goat Milk]]'
p1
I2
sS'[[Potato Feta Cake]]'
p2
I4
sS'[[Honey]]'
p3
I0
sS'[[Bacon and Eggs]]'
p4
I1
sS'[[Potato]]'
p5
I5
sS'[[Spicy Pizza]]'
p6
I5
sS'[[Indigo]]'
p7
I1
sS'[[Fish Burger]]'
p8
I1
sS'[[Raspberry]]'
p9
I0
sS'[[Cotton Fabric]]'
p10
I4
s.