(dp0
S'[[Pumpkin]]'
p1
I87
sS'[[Blackberry Jam]]'
p2
I75
sS'[[Violet Dress]]'
p3
I90
sS'[[Strawberry Ice Cream]]'
p4
I22
sS'[[Raspberry Muffin]]'
p5
I27
sS'[[Apple Pie]]'
p6
I28
sS'[[Tomato Juice]]'
p7
I5
sS'[[Blue Sweater]]'
p8
I70
sS'[[Honey]]'
p9
I17
sS'[[Vanilla Ice Cream]]'
p10
I73
sS'[[Lure]]'
p11
I78
sS'[[Carrot Pie]]'
p12
I21
sS'[[Tomato]]'
p13
I60
sS'[[Potato]]'
p14
I57
sS'[[Cheesecake]]'
p15
I68
sS'[[Fish Pie]]'
p16
I9
sS'[[Pancake]]'
p17
I47
sS'[[Popcorn]]'
p18
I66
sS'[[Goat Cheese]]'
p19
I38
sS'[[Potato Bread]]'
p20
I37
sS'[[Goat Feed]]'
p21
I39
sS'[[Red Berry Cake]]'
p22
I12
sS'[[Pizza]]'
p23
I49
sS'[[Syrup]]'
p24
I88
sS'[[Sheep Feed]]'
p25
I1
sS'[[Cherry Popsicle]]'
p26
I4
sS'[[Bacon and Eggs]]'
p27
I30
sS'[[Carrot]]'
p28
I11
sS'[[Carrot Juice]]'
p29
I26
sS'[[Baked Potato]]'
p30
I24
sS'[[Milk]]'
p31
I29
sS'[[Apple Jam]]'
p32
I41
sS'[[Apple]]'
p33
I13
sS'[[Blackberry]]'
p34
I50
sS'[[Cotton Shirt]]'
p35
I7
sS'[[Cream]]'
p36
I8
sS'[[Raspberry Jam]]'
p37
I51
sS'[[Cherry]]'
p38
I82
sS'[[Bread]]'
p39
I61
sS'[[Wheat]]'
p40
I89
sS'[[Casserole]]'
p41
I10
sS'[[Strawberry]]'
p42
I48
sS'[[Honey Popcorn]]'
p43
I45
sS'[[Honeycomb]]'
p44
I86
sS'[[Indigo]]'
p45
I76
sS'[[Raspberry]]'
p46
I65
sS'[[Chocolate Cake]]'
p47
I80
sS'[[Spicy Pizza]]'
p48
I46
sS'[[Cacao]]'
p49
I67
sS'[[Woolly Chaps]]'
p50
I34
sS'[[Carrot Cake]]'
p51
I20
sS'[[Egg]]'
p52
I55
sS'[[Strawberry Cake]]'
p53
I23
sS'[[Cherry Juice]]'
p54
I44
sS'[[Fish Burger]]'
p55
I79
sS'[[White Sugar]]'
p56
I16
sS'[[Buttered Popcorn]]'
p57
I53
sS'[[Cream Cake]]'
p58
I85
sS'[[Soybean]]'
p59
I32
sS'[[Brown Sugar]]'
p60
I36
sS'[[Blue Woolly Hat]]'
p61
I40
sS'[[Goat Milk]]'
p62
I54
sS'[[Hamburger]]'
p63
I31
sS'[[Cherry Jam]]'
p64
I6
sS"[[Shepherd's Pie]]"
p65
I2
sS'[[Butter]]'
p66
I14
sS'[[Bacon Pie]]'
p67
I33
sS'[[Chili Pepper]]'
p68
I42
sS'[[Corn]]'
p69
I83
sS'[[Fish Fillet]]'
p70
I18
sS'[[Chili Popcorn]]'
p71
I71
sS'[[Bacon]]'
p72
I81
sS'[[Cotton Fabric]]'
p73
I25
sS'[[Pumpkin Pie]]'
p74
I56
sS'[[Potato Feta Cake]]'
p75
I69
sS'[[Sugarcane]]'
p76
I15
sS'[[Cookie]]'
p77
I58
sS'[[Apple Juice]]'
p78
I77
sS'[[Pig Feed]]'
p79
I35
sS'[[Cotton]]'
p80
I84
sS'[[Feta Pie]]'
p81
I19
sS'[[Cheese]]'
p82
I43
sS'[[Chocolate Ice Cream]]'
p83
I74
sS'[[Chicken Feed]]'
p84
I0
sS'[[Corn Bread]]'
p85
I52
sS'[[Wool]]'
p86
I64
sS'[[Roasted Tomatoes]]'
p87
I63
sS'[[Berry Juice]]'
p88
I59
sS'[[Sweater]]'
p89
I3
sS'[[Blackberry Muffin]]'
p90
I62
sS'[[Cow Feed]]'
p91
I72
s.(dp0
S'[[Wheat]]'
p1
I4
sS'[[Goat Milk]]'
p2
I1
sS'[[Woolly Chaps]]'
p3
I4
sS'[[Carrot Cake]]'
p4
I1
sS'[[Carrot Pie]]'
p5
I5
sS'[[Feta Pie]]'
p6
I4
sS'[[Fish Pie]]'
p7
I4
sS'[[Honey]]'
p8
I3
sS'[[Cherry Jam]]'
p9
I5
sS'[[Wool]]'
p10
I3
sS'[[Violet Dress]]'
p11
I0
s.