(dp0
S'[[Pumpkin]]'
p1
I33
sS'[[Blackberry Jam]]'
p2
I54
sS'[[Violet Dress]]'
p3
I81
sS'[[Strawberry Ice Cream]]'
p4
I82
sS'[[Raspberry Muffin]]'
p5
I39
sS'[[Apple Pie]]'
p6
I86
sS'[[Tomato Juice]]'
p7
I73
sS'[[Blue Sweater]]'
p8
I32
sS'[[Honey]]'
p9
I16
sS'[[Vanilla Ice Cream]]'
p10
I53
sS'[[Lure]]'
p11
I30
sS'[[Carrot Pie]]'
p12
I84
sS'[[Tomato]]'
p13
I3
sS'[[Potato]]'
p14
I34
sS'[[Cheesecake]]'
p15
I31
sS'[[Fish Pie]]'
p16
I62
sS'[[Pancake]]'
p17
I7
sS'[[Popcorn]]'
p18
I36
sS'[[Goat Cheese]]'
p19
I44
sS'[[Potato Bread]]'
p20
I45
sS'[[Goat Feed]]'
p21
I69
sS'[[Red Berry Cake]]'
p22
I48
sS'[[Pizza]]'
p23
I90
sS'[[Syrup]]'
p24
I35
sS'[[Sheep Feed]]'
p25
I8
sS'[[Cherry Popsicle]]'
p26
I55
sS'[[Bacon and Eggs]]'
p27
I40
sS'[[Carrot Juice]]'
p28
I17
sS'[[Baked Potato]]'
p29
I19
sS'[[Milk]]'
p30
I67
sS'[[Apple Jam]]'
p31
I41
sS'[[Carrot]]'
p32
I72
sS'[[Blackberry]]'
p33
I60
sS'[[Cotton Shirt]]'
p34
I79
sS'[[Cream]]'
p35
I2
sS'[[Raspberry Jam]]'
p36
I20
sS'[[Cherry]]'
p37
I87
sS'[[Bread]]'
p38
I4
sS'[[Wheat]]'
p39
I38
sS'[[Casserole]]'
p40
I68
sS'[[Chili Pepper]]'
p41
I50
sS'[[Honey Popcorn]]'
p42
I21
sS'[[Honeycomb]]'
p43
I70
sS'[[Indigo]]'
p44
I47
sS'[[Raspberry]]'
p45
I57
sS'[[Chocolate Cake]]'
p46
I1
sS'[[Spicy Pizza]]'
p47
I58
sS'[[Cacao]]'
p48
I26
sS'[[Woolly Chaps]]'
p49
I85
sS'[[Carrot Cake]]'
p50
I43
sS'[[Egg]]'
p51
I12
sS'[[Strawberry Cake]]'
p52
I49
sS'[[Cherry Juice]]'
p53
I56
sS'[[Fish Burger]]'
p54
I76
sS'[[White Sugar]]'
p55
I88
sS'[[Buttered Popcorn]]'
p56
I9
sS'[[Cream Cake]]'
p57
I14
sS'[[Soybean]]'
p58
I5
sS'[[Apple]]'
p59
I74
sS'[[Blue Woolly Hat]]'
p60
I61
sS'[[Goat Milk]]'
p61
I11
sS'[[Hamburger]]'
p62
I25
sS'[[Cherry Jam]]'
p63
I15
sS"[[Shepherd's Pie]]"
p64
I77
sS'[[Brown Sugar]]'
p65
I27
sS'[[Butter]]'
p66
I46
sS'[[Bacon Pie]]'
p67
I23
sS'[[Strawberry]]'
p68
I78
sS'[[Corn]]'
p69
I29
sS'[[Fish Fillet]]'
p70
I80
sS'[[Chili Popcorn]]'
p71
I18
sS'[[Bacon]]'
p72
I59
sS'[[Cotton Fabric]]'
p73
I22
sS'[[Pumpkin Pie]]'
p74
I75
sS'[[Potato Feta Cake]]'
p75
I37
sS'[[Sugarcane]]'
p76
I42
sS'[[Cookie]]'
p77
I83
sS'[[Apple Juice]]'
p78
I71
sS'[[Pig Feed]]'
p79
I63
sS'[[Cotton]]'
p80
I13
sS'[[Feta Pie]]'
p81
I24
sS'[[Cheese]]'
p82
I51
sS'[[Chocolate Ice Cream]]'
p83
I10
sS'[[Chicken Feed]]'
p84
I6
sS'[[Corn Bread]]'
p85
I52
sS'[[Wool]]'
p86
I64
sS'[[Roasted Tomatoes]]'
p87
I28
sS'[[Berry Juice]]'
p88
I89
sS'[[Sweater]]'
p89
I0
sS'[[Blackberry Muffin]]'
p90
I65
sS'[[Cow Feed]]'
p91
I66
s.(dp0
S'[[Carrot Cake]]'
p1
I2
sS'[[Potato]]'
p2
I1
sS'[[Egg]]'
p3
I1
s.