(dp0
S'[[Pumpkin]]'
p1
I73
sS'[[Blackberry Jam]]'
p2
I80
sS'[[Violet Dress]]'
p3
I41
sS'[[Strawberry Ice Cream]]'
p4
I77
sS'[[Raspberry Muffin]]'
p5
I65
sS'[[Apple Pie]]'
p6
I44
sS'[[Tomato Juice]]'
p7
I28
sS'[[Blue Sweater]]'
p8
I86
sS'[[Honey]]'
p9
I1
sS'[[Vanilla Ice Cream]]'
p10
I25
sS'[[Lure]]'
p11
I31
sS'[[Carrot Pie]]'
p12
I61
sS'[[Tomato]]'
p13
I57
sS'[[Potato]]'
p14
I38
sS'[[Cheesecake]]'
p15
I59
sS'[[Fish Pie]]'
p16
I12
sS'[[Pancake]]'
p17
I0
sS'[[Popcorn]]'
p18
I32
sS'[[Goat Cheese]]'
p19
I69
sS'[[Potato Bread]]'
p20
I54
sS'[[Goat Feed]]'
p21
I64
sS'[[Red Berry Cake]]'
p22
I37
sS'[[Pizza]]'
p23
I67
sS'[[Syrup]]'
p24
I71
sS'[[Sheep Feed]]'
p25
I46
sS'[[Cherry Popsicle]]'
p26
I40
sS'[[Bacon and Eggs]]'
p27
I89
sS'[[Carrot Juice]]'
p28
I15
sS'[[Baked Potato]]'
p29
I47
sS'[[Milk]]'
p30
I39
sS'[[Apple Jam]]'
p31
I62
sS'[[Carrot]]'
p32
I60
sS'[[Blackberry]]'
p33
I83
sS'[[Cotton Shirt]]'
p34
I6
sS'[[Cream]]'
p35
I7
sS'[[Raspberry Jam]]'
p36
I43
sS'[[Cherry]]'
p37
I82
sS'[[Bread]]'
p38
I66
sS'[[Wheat]]'
p39
I87
sS'[[Casserole]]'
p40
I21
sS'[[Chili Pepper]]'
p41
I42
sS'[[Honey Popcorn]]'
p42
I56
sS'[[Honeycomb]]'
p43
I4
sS'[[Indigo]]'
p44
I75
sS'[[Raspberry]]'
p45
I29
sS'[[Chocolate Cake]]'
p46
I2
sS'[[Spicy Pizza]]'
p47
I68
sS'[[Cacao]]'
p48
I5
sS'[[Woolly Chaps]]'
p49
I51
sS'[[Carrot Cake]]'
p50
I14
sS'[[Egg]]'
p51
I19
sS'[[Strawberry Cake]]'
p52
I27
sS'[[Cherry Juice]]'
p53
I35
sS'[[Fish Burger]]'
p54
I48
sS'[[White Sugar]]'
p55
I49
sS'[[Buttered Popcorn]]'
p56
I45
sS'[[Cream Cake]]'
p57
I26
sS'[[Soybean]]'
p58
I23
sS'[[Apple]]'
p59
I81
sS'[[Blue Woolly Hat]]'
p60
I8
sS'[[Goat Milk]]'
p61
I18
sS'[[Hamburger]]'
p62
I16
sS'[[Cherry Jam]]'
p63
I13
sS"[[Shepherd's Pie]]"
p64
I76
sS'[[Brown Sugar]]'
p65
I50
sS'[[Butter]]'
p66
I78
sS'[[Bacon Pie]]'
p67
I9
sS'[[Strawberry]]'
p68
I33
sS'[[Corn]]'
p69
I72
sS'[[Fish Fillet]]'
p70
I10
sS'[[Chili Popcorn]]'
p71
I53
sS'[[Bacon]]'
p72
I22
sS'[[Cotton Fabric]]'
p73
I88
sS'[[Pumpkin Pie]]'
p74
I30
sS'[[Potato Feta Cake]]'
p75
I3
sS'[[Sugarcane]]'
p76
I63
sS'[[Cookie]]'
p77
I34
sS'[[Apple Juice]]'
p78
I58
sS'[[Pig Feed]]'
p79
I79
sS'[[Cotton]]'
p80
I36
sS'[[Feta Pie]]'
p81
I24
sS'[[Cheese]]'
p82
I70
sS'[[Chocolate Ice Cream]]'
p83
I90
sS'[[Chicken Feed]]'
p84
I85
sS'[[Corn Bread]]'
p85
I84
sS'[[Wool]]'
p86
I52
sS'[[Roasted Tomatoes]]'
p87
I20
sS'[[Berry Juice]]'
p88
I55
sS'[[Sweater]]'
p89
I74
sS'[[Blackberry Muffin]]'
p90
I17
sS'[[Cow Feed]]'
p91
I11
s.(dp0
S'[[Blue Sweater]]'
p1
I2
sS'[[Pizza]]'
p2
I1
sS'[[Popcorn]]'
p3
I5
sS'[[Carrot]]'
p4
I4
sS'[[Potato Feta Cake]]'
p5
I2
sS'[[Feta Pie]]'
p6
I0
sS'[[Tomato Juice]]'
p7
I4
sS'[[Milk]]'
p8
I0
sS'[[Chocolate Cake]]'
p9
I0
sS'[[Potato Bread]]'
p10
I2
sS'[[Pumpkin]]'
p11
I2
s.