(dp0
S'[[Pumpkin]]'
p1
I72
sS'[[Blackberry Jam]]'
p2
I20
sS'[[Violet Dress]]'
p3
I26
sS'[[Strawberry Ice Cream]]'
p4
I24
sS'[[Raspberry Muffin]]'
p5
I16
sS'[[Apple Pie]]'
p6
I38
sS'[[Tomato Juice]]'
p7
I21
sS'[[Blue Sweater]]'
p8
I46
sS'[[Honey]]'
p9
I29
sS'[[Vanilla Ice Cream]]'
p10
I8
sS'[[Lure]]'
p11
I10
sS'[[Carrot Pie]]'
p12
I5
sS'[[Tomato]]'
p13
I52
sS'[[Potato]]'
p14
I44
sS'[[Cheesecake]]'
p15
I76
sS'[[Fish Pie]]'
p16
I28
sS'[[Pancake]]'
p17
I47
sS'[[Popcorn]]'
p18
I85
sS'[[Goat Cheese]]'
p19
I65
sS'[[Potato Bread]]'
p20
I78
sS'[[Goat Feed]]'
p21
I67
sS'[[Red Berry Cake]]'
p22
I43
sS'[[Pizza]]'
p23
I36
sS'[[Syrup]]'
p24
I6
sS'[[Sheep Feed]]'
p25
I68
sS'[[Cherry Popsicle]]'
p26
I9
sS'[[Bacon and Eggs]]'
p27
I56
sS'[[Carrot Juice]]'
p28
I42
sS'[[Baked Potato]]'
p29
I70
sS'[[Milk]]'
p30
I51
sS'[[Apple Jam]]'
p31
I71
sS'[[Carrot]]'
p32
I58
sS'[[Blackberry]]'
p33
I63
sS'[[Cotton Shirt]]'
p34
I13
sS'[[Cream]]'
p35
I62
sS'[[Raspberry Jam]]'
p36
I2
sS'[[Cherry]]'
p37
I39
sS'[[Bread]]'
p38
I35
sS'[[Wheat]]'
p39
I87
sS'[[Casserole]]'
p40
I69
sS'[[Chili Pepper]]'
p41
I49
sS'[[Honey Popcorn]]'
p42
I90
sS'[[Honeycomb]]'
p43
I25
sS'[[Indigo]]'
p44
I55
sS'[[Raspberry]]'
p45
I88
sS'[[Chocolate Cake]]'
p46
I77
sS'[[Spicy Pizza]]'
p47
I45
sS'[[Cacao]]'
p48
I86
sS'[[Woolly Chaps]]'
p49
I83
sS'[[Carrot Cake]]'
p50
I41
sS'[[Egg]]'
p51
I74
sS'[[Strawberry Cake]]'
p52
I19
sS'[[Cherry Juice]]'
p53
I82
sS'[[Fish Burger]]'
p54
I34
sS'[[White Sugar]]'
p55
I3
sS'[[Buttered Popcorn]]'
p56
I33
sS'[[Cream Cake]]'
p57
I66
sS'[[Soybean]]'
p58
I89
sS'[[Apple]]'
p59
I75
sS'[[Blue Woolly Hat]]'
p60
I12
sS'[[Goat Milk]]'
p61
I4
sS'[[Hamburger]]'
p62
I18
sS'[[Cherry Jam]]'
p63
I61
sS"[[Shepherd's Pie]]"
p64
I30
sS'[[Brown Sugar]]'
p65
I79
sS'[[Butter]]'
p66
I57
sS'[[Bacon Pie]]'
p67
I59
sS'[[Strawberry]]'
p68
I11
sS'[[Corn]]'
p69
I0
sS'[[Fish Fillet]]'
p70
I7
sS'[[Chili Popcorn]]'
p71
I15
sS'[[Bacon]]'
p72
I27
sS'[[Cotton Fabric]]'
p73
I23
sS'[[Pumpkin Pie]]'
p74
I73
sS'[[Potato Feta Cake]]'
p75
I37
sS'[[Sugarcane]]'
p76
I81
sS'[[Cookie]]'
p77
I14
sS'[[Apple Juice]]'
p78
I84
sS'[[Pig Feed]]'
p79
I32
sS'[[Cotton]]'
p80
I40
sS'[[Feta Pie]]'
p81
I1
sS'[[Cheese]]'
p82
I17
sS'[[Chocolate Ice Cream]]'
p83
I64
sS'[[Chicken Feed]]'
p84
I53
sS'[[Corn Bread]]'
p85
I50
sS'[[Wool]]'
p86
I54
sS'[[Roasted Tomatoes]]'
p87
I22
sS'[[Berry Juice]]'
p88
I31
sS'[[Sweater]]'
p89
I60
sS'[[Blackberry Muffin]]'
p90
I48
sS'[[Cow Feed]]'
p91
I80
s.(dp0
S'[[Brown Sugar]]'
p1
I2
sS'[[Popcorn]]'
p2
I2
sS'[[Sheep Feed]]'
p3
I4
sS'[[Blackberry]]'
p4
I1
sS'[[Cotton]]'
p5
I1
sS'[[Fish Pie]]'
p6
I4
sS'[[Chili Popcorn]]'
p7
I0
sS'[[Fish Burger]]'
p8
I1
sS'[[Vanilla Ice Cream]]'
p9
I2
sS'[[Egg]]'
p10
I3
sS'[[Raspberry Jam]]'
p11
I0
s.