(dp0
S'[[Pumpkin]]'
p1
I11
sS'[[Blackberry Jam]]'
p2
I52
sS'[[Violet Dress]]'
p3
I81
sS'[[Strawberry Ice Cream]]'
p4
I27
sS'[[Raspberry Muffin]]'
p5
I59
sS'[[Apple Pie]]'
p6
I80
sS'[[Tomato Juice]]'
p7
I44
sS'[[Blue Sweater]]'
p8
I33
sS'[[Honey]]'
p9
I82
sS'[[Vanilla Ice Cream]]'
p10
I15
sS'[[Lure]]'
p11
I60
sS'[[Carrot Pie]]'
p12
I66
sS'[[Tomato]]'
p13
I58
sS'[[Potato]]'
p14
I79
sS'[[Cheesecake]]'
p15
I38
sS'[[Fish Pie]]'
p16
I6
sS'[[Pancake]]'
p17
I84
sS'[[Popcorn]]'
p18
I8
sS'[[Goat Cheese]]'
p19
I14
sS'[[Potato Bread]]'
p20
I32
sS'[[Goat Feed]]'
p21
I78
sS'[[Red Berry Cake]]'
p22
I69
sS'[[Pizza]]'
p23
I73
sS'[[Syrup]]'
p24
I55
sS'[[Sheep Feed]]'
p25
I21
sS'[[Cherry Popsicle]]'
p26
I2
sS'[[Bacon and Eggs]]'
p27
I29
sS'[[Carrot]]'
p28
I31
sS'[[Carrot Juice]]'
p29
I51
sS'[[Baked Potato]]'
p30
I88
sS'[[Milk]]'
p31
I1
sS'[[Apple Jam]]'
p32
I86
sS'[[Apple]]'
p33
I24
sS'[[Blackberry]]'
p34
I25
sS'[[Cotton Shirt]]'
p35
I4
sS'[[Cream]]'
p36
I40
sS'[[Raspberry Jam]]'
p37
I30
sS'[[Cherry]]'
p38
I5
sS'[[Bread]]'
p39
I3
sS'[[Wheat]]'
p40
I56
sS'[[Casserole]]'
p41
I83
sS'[[Strawberry]]'
p42
I85
sS'[[Honey Popcorn]]'
p43
I9
sS'[[Honeycomb]]'
p44
I87
sS'[[Indigo]]'
p45
I22
sS'[[Raspberry]]'
p46
I39
sS'[[Chocolate Cake]]'
p47
I28
sS'[[Spicy Pizza]]'
p48
I41
sS'[[Cacao]]'
p49
I0
sS'[[Woolly Chaps]]'
p50
I16
sS'[[Carrot Cake]]'
p51
I65
sS'[[Egg]]'
p52
I62
sS'[[Strawberry Cake]]'
p53
I18
sS'[[Cherry Juice]]'
p54
I50
sS'[[Fish Burger]]'
p55
I10
sS'[[White Sugar]]'
p56
I47
sS'[[Buttered Popcorn]]'
p57
I76
sS'[[Cream Cake]]'
p58
I13
sS'[[Soybean]]'
p59
I43
sS'[[Brown Sugar]]'
p60
I57
sS'[[Blue Woolly Hat]]'
p61
I64
sS'[[Goat Milk]]'
p62
I45
sS'[[Hamburger]]'
p63
I75
sS'[[Cherry Jam]]'
p64
I42
sS"[[Shepherd's Pie]]"
p65
I12
sS'[[Butter]]'
p66
I67
sS'[[Bacon Pie]]'
p67
I61
sS'[[Chili Pepper]]'
p68
I36
sS'[[Corn]]'
p69
I26
sS'[[Fish Fillet]]'
p70
I77
sS'[[Chili Popcorn]]'
p71
I90
sS'[[Bacon]]'
p72
I34
sS'[[Cotton Fabric]]'
p73
I71
sS'[[Pumpkin Pie]]'
p74
I48
sS'[[Potato Feta Cake]]'
p75
I70
sS'[[Sugarcane]]'
p76
I17
sS'[[Cookie]]'
p77
I53
sS'[[Apple Juice]]'
p78
I74
sS'[[Pig Feed]]'
p79
I19
sS'[[Cotton]]'
p80
I23
sS'[[Feta Pie]]'
p81
I46
sS'[[Cheese]]'
p82
I7
sS'[[Chocolate Ice Cream]]'
p83
I49
sS'[[Chicken Feed]]'
p84
I89
sS'[[Corn Bread]]'
p85
I68
sS'[[Wool]]'
p86
I37
sS'[[Roasted Tomatoes]]'
p87
I72
sS'[[Berry Juice]]'
p88
I54
sS'[[Sweater]]'
p89
I63
sS'[[Blackberry Muffin]]'
p90
I20
sS'[[Cow Feed]]'
p91
I35
s.(dp0
S'[[Apple]]'
p1
I2
sS'[[Potato]]'
p2
I0
sS'[[Chili Pepper]]'
p3
I2
sS'[[Blue Woolly Hat]]'
p4
I1
sS'[[Cherry Juice]]'
p5
I0
sS'[[White Sugar]]'
p6
I3
sS'[[Butter]]'
p7
I2
sS'[[Pancake]]'
p8
I1
sS'[[Vanilla Ice Cream]]'
p9
I2
sS'[[Indigo]]'
p10
I0
s.