(dp0
S'[[Pumpkin]]'
p1
I2
sS'[[Blackberry Jam]]'
p2
I36
sS'[[Violet Dress]]'
p3
I34
sS'[[Strawberry Ice Cream]]'
p4
I83
sS'[[Raspberry Muffin]]'
p5
I59
sS'[[Apple Pie]]'
p6
I39
sS'[[Tomato Juice]]'
p7
I46
sS'[[Blue Sweater]]'
p8
I62
sS'[[Honey]]'
p9
I47
sS'[[Vanilla Ice Cream]]'
p10
I18
sS'[[Lure]]'
p11
I67
sS'[[Carrot Pie]]'
p12
I41
sS'[[Tomato]]'
p13
I88
sS'[[Potato]]'
p14
I70
sS'[[Cheesecake]]'
p15
I45
sS'[[Fish Pie]]'
p16
I68
sS'[[Pancake]]'
p17
I40
sS'[[Popcorn]]'
p18
I35
sS'[[Goat Cheese]]'
p19
I38
sS'[[Potato Bread]]'
p20
I25
sS'[[Goat Feed]]'
p21
I7
sS'[[Red Berry Cake]]'
p22
I71
sS'[[Pizza]]'
p23
I57
sS'[[Syrup]]'
p24
I15
sS'[[Sheep Feed]]'
p25
I60
sS'[[Cherry Popsicle]]'
p26
I79
sS'[[Bacon and Eggs]]'
p27
I21
sS'[[Carrot]]'
p28
I23
sS'[[Carrot Juice]]'
p29
I28
sS'[[Baked Potato]]'
p30
I24
sS'[[Milk]]'
p31
I74
sS'[[Apple Jam]]'
p32
I11
sS'[[Apple]]'
p33
I89
sS'[[Blackberry]]'
p34
I8
sS'[[Cotton Shirt]]'
p35
I64
sS'[[Cream]]'
p36
I52
sS'[[Raspberry Jam]]'
p37
I53
sS'[[Cherry]]'
p38
I16
sS'[[Bread]]'
p39
I78
sS'[[Wheat]]'
p40
I32
sS'[[Casserole]]'
p41
I29
sS'[[Strawberry]]'
p42
I5
sS'[[Honey Popcorn]]'
p43
I84
sS'[[Honeycomb]]'
p44
I14
sS'[[Indigo]]'
p45
I82
sS'[[Raspberry]]'
p46
I76
sS'[[Chocolate Cake]]'
p47
I27
sS'[[Spicy Pizza]]'
p48
I61
sS'[[Cacao]]'
p49
I31
sS'[[Woolly Chaps]]'
p50
I55
sS'[[Carrot Cake]]'
p51
I58
sS'[[Egg]]'
p52
I87
sS'[[Strawberry Cake]]'
p53
I42
sS'[[Cherry Juice]]'
p54
I81
sS'[[Fish Burger]]'
p55
I50
sS'[[White Sugar]]'
p56
I20
sS'[[Buttered Popcorn]]'
p57
I86
sS'[[Cream Cake]]'
p58
I77
sS'[[Soybean]]'
p59
I72
sS'[[Brown Sugar]]'
p60
I51
sS'[[Blue Woolly Hat]]'
p61
I66
sS'[[Goat Milk]]'
p62
I65
sS'[[Hamburger]]'
p63
I17
sS'[[Cherry Jam]]'
p64
I3
sS"[[Shepherd's Pie]]"
p65
I85
sS'[[Butter]]'
p66
I0
sS'[[Bacon Pie]]'
p67
I75
sS'[[Chili Pepper]]'
p68
I48
sS'[[Corn]]'
p69
I90
sS'[[Fish Fillet]]'
p70
I33
sS'[[Chili Popcorn]]'
p71
I6
sS'[[Bacon]]'
p72
I56
sS'[[Cotton Fabric]]'
p73
I44
sS'[[Pumpkin Pie]]'
p74
I19
sS'[[Potato Feta Cake]]'
p75
I54
sS'[[Sugarcane]]'
p76
I69
sS'[[Cookie]]'
p77
I43
sS'[[Apple Juice]]'
p78
I63
sS'[[Pig Feed]]'
p79
I73
sS'[[Cotton]]'
p80
I9
sS'[[Feta Pie]]'
p81
I80
sS'[[Cheese]]'
p82
I13
sS'[[Chocolate Ice Cream]]'
p83
I30
sS'[[Chicken Feed]]'
p84
I1
sS'[[Corn Bread]]'
p85
I22
sS'[[Wool]]'
p86
I4
sS'[[Roasted Tomatoes]]'
p87
I37
sS'[[Berry Juice]]'
p88
I49
sS'[[Sweater]]'
p89
I26
sS'[[Blackberry Muffin]]'
p90
I10
sS'[[Cow Feed]]'
p91
I12
s.(dp0
S'[[Wheat]]'
p1
I2
sS'[[Pumpkin Pie]]'
p2
I1
sS'[[Casserole]]'
p3
I4
sS'[[Blue Woolly Hat]]'
p4
I0
sS'[[Potato]]'
p5
I3
sS'[[Chili Popcorn]]'
p6
I2
sS'[[Indigo]]'
p7
I2
sS'[[Cherry Jam]]'
p8
I1
sS'[[Goat Cheese]]'
p9
I0
sS'[[Bacon]]'
p10
I4
sS'[[Chocolate Ice Cream]]'
p11
I5
s.