(dp0
S'[[Pumpkin]]'
p1
I76
sS'[[Blackberry Jam]]'
p2
I28
sS'[[Violet Dress]]'
p3
I18
sS'[[Strawberry Ice Cream]]'
p4
I35
sS'[[Raspberry Muffin]]'
p5
I57
sS'[[Apple Pie]]'
p6
I84
sS'[[Tomato Juice]]'
p7
I83
sS'[[Honey]]'
p8
I85
sS'[[Vanilla Ice Cream]]'
p9
I61
sS'[[Lure]]'
p10
I89
sS'[[Carrot Pie]]'
p11
I79
sS'[[Tomato]]'
p12
I26
sS'[[Potato]]'
p13
I49
sS'[[Cheesecake]]'
p14
I12
sS'[[Fish Pie]]'
p15
I11
sS'[[Pancake]]'
p16
I81
sS'[[Popcorn]]'
p17
I9
sS'[[Goat Cheese]]'
p18
I17
sS'[[Potato Bread]]'
p19
I50
sS'[[Goat Feed]]'
p20
I19
sS'[[Red Berry Cake]]'
p21
I33
sS'[[Pizza]]'
p22
I32
sS'[[Syrup]]'
p23
I20
sS'[[Sheep Feed]]'
p24
I8
sS'[[Cherry Popsicle]]'
p25
I37
sS'[[Bacon and Eggs]]'
p26
I53
sS'[[Carrot Juice]]'
p27
I0
sS'[[Baked Potato]]'
p28
I54
sS'[[Milk]]'
p29
I82
sS'[[Apple Jam]]'
p30
I42
sS'[[Carrot]]'
p31
I80
sS'[[Blackberry]]'
p32
I74
sS'[[Cotton Shirt]]'
p33
I5
sS'[[Cream]]'
p34
I3
sS'[[Raspberry Jam]]'
p35
I64
sS'[[Cherry]]'
p36
I1
sS'[[Bread]]'
p37
I13
sS'[[Wheat]]'
p38
I39
sS'[[Casserole]]'
p39
I30
sS'[[Chili Pepper]]'
p40
I46
sS'[[Honey Popcorn]]'
p41
I47
sS'[[Honeycomb]]'
p42
I71
sS'[[Indigo]]'
p43
I68
sS'[[Raspberry]]'
p44
I60
sS'[[Chocolate Cake]]'
p45
I86
sS'[[Spicy Pizza]]'
p46
I40
sS'[[Cacao]]'
p47
I59
sS'[[Woolly Chaps]]'
p48
I45
sS'[[Carrot Cake]]'
p49
I6
sS'[[Egg]]'
p50
I14
sS'[[Strawberry Cake]]'
p51
I21
sS'[[Cherry Juice]]'
p52
I34
sS'[[Fish Burger]]'
p53
I58
sS'[[White Sugar]]'
p54
I16
sS'[[Buttered Popcorn]]'
p55
I29
sS'[[Cream Cake]]'
p56
I52
sS'[[Soybean]]'
p57
I23
sS'[[Apple]]'
p58
I51
sS'[[Blue Woolly Hat]]'
p59
I2
sS'[[Goat Milk]]'
p60
I44
sS'[[Hamburger]]'
p61
I66
sS'[[Cherry Jam]]'
p62
I15
sS"[[Shepherd's Pie]]"
p63
I27
sS'[[Brown Sugar]]'
p64
I88
sS'[[Butter]]'
p65
I38
sS'[[Bacon Pie]]'
p66
I48
sS'[[Strawberry]]'
p67
I24
sS'[[Pumpkin Pie]]'
p68
I65
sS'[[Corn]]'
p69
I67
sS'[[Fish Fillet]]'
p70
I73
sS'[[Chili Popcorn]]'
p71
I87
sS'[[Bacon]]'
p72
I72
sS'[[Cotton Fabric]]'
p73
I4
sS'[[Blue Sweater]]'
p74
I43
sS'[[Potato Feta Cake]]'
p75
I90
sS'[[Sugarcane]]'
p76
I56
sS'[[Cookie]]'
p77
I69
sS'[[Apple Juice]]'
p78
I10
sS'[[Pig Feed]]'
p79
I70
sS'[[Cotton]]'
p80
I22
sS'[[Feta Pie]]'
p81
I78
sS'[[Cheese]]'
p82
I77
sS'[[Chocolate Ice Cream]]'
p83
I63
sS'[[Chicken Feed]]'
p84
I55
sS'[[Corn Bread]]'
p85
I62
sS'[[Wool]]'
p86
I25
sS'[[Roasted Tomatoes]]'
p87
I31
sS'[[Berry Juice]]'
p88
I41
sS'[[Sweater]]'
p89
I7
sS'[[Blackberry Muffin]]'
p90
I36
sS'[[Cow Feed]]'
p91
I75
s.(dp0
S'[[Lure]]'
p1
I0
sS'[[Honeycomb]]'
p2
I1
sS'[[Cherry Jam]]'
p3
I1
sS'[[Bacon]]'
p4
I2
sS'[[Buttered Popcorn]]'
p5
I0
sS'[[Cherry]]'
p6
I0
s.