(dp0
S'[[Pumpkin]]'
p1
I84
sS'[[Blackberry Jam]]'
p2
I67
sS'[[Violet Dress]]'
p3
I81
sS'[[Strawberry Ice Cream]]'
p4
I43
sS'[[Raspberry Muffin]]'
p5
I72
sS'[[Apple Pie]]'
p6
I90
sS'[[Tomato Juice]]'
p7
I57
sS'[[Blue Sweater]]'
p8
I62
sS'[[Honey]]'
p9
I60
sS'[[Vanilla Ice Cream]]'
p10
I73
sS'[[Lure]]'
p11
I51
sS'[[Carrot Pie]]'
p12
I58
sS'[[Tomato]]'
p13
I22
sS'[[Potato]]'
p14
I10
sS'[[Cheesecake]]'
p15
I28
sS'[[Fish Pie]]'
p16
I82
sS'[[Pancake]]'
p17
I6
sS'[[Popcorn]]'
p18
I52
sS'[[Goat Cheese]]'
p19
I9
sS'[[Potato Bread]]'
p20
I14
sS'[[Goat Feed]]'
p21
I25
sS'[[Red Berry Cake]]'
p22
I29
sS'[[Pizza]]'
p23
I5
sS'[[Syrup]]'
p24
I12
sS'[[Sheep Feed]]'
p25
I15
sS'[[Cherry Popsicle]]'
p26
I76
sS'[[Bacon and Eggs]]'
p27
I40
sS'[[Carrot]]'
p28
I61
sS'[[Carrot Juice]]'
p29
I21
sS'[[Baked Potato]]'
p30
I31
sS'[[Milk]]'
p31
I0
sS'[[Apple Jam]]'
p32
I74
sS'[[Apple]]'
p33
I53
sS'[[Blackberry]]'
p34
I36
sS'[[Cotton Shirt]]'
p35
I32
sS'[[Cream]]'
p36
I38
sS'[[Raspberry Jam]]'
p37
I27
sS'[[Cherry]]'
p38
I17
sS'[[Bread]]'
p39
I80
sS'[[Wheat]]'
p40
I41
sS'[[Casserole]]'
p41
I30
sS'[[Strawberry]]'
p42
I24
sS'[[Honey Popcorn]]'
p43
I45
sS'[[Honeycomb]]'
p44
I79
sS'[[Indigo]]'
p45
I1
sS'[[Raspberry]]'
p46
I42
sS'[[Chocolate Cake]]'
p47
I70
sS'[[Spicy Pizza]]'
p48
I78
sS'[[Cacao]]'
p49
I33
sS'[[Woolly Chaps]]'
p50
I18
sS'[[Carrot Cake]]'
p51
I49
sS'[[Egg]]'
p52
I19
sS'[[Strawberry Cake]]'
p53
I2
sS'[[Cherry Juice]]'
p54
I77
sS'[[Fish Burger]]'
p55
I13
sS'[[White Sugar]]'
p56
I86
sS'[[Buttered Popcorn]]'
p57
I20
sS'[[Cream Cake]]'
p58
I66
sS'[[Soybean]]'
p59
I68
sS'[[Brown Sugar]]'
p60
I37
sS'[[Blue Woolly Hat]]'
p61
I4
sS'[[Goat Milk]]'
p62
I48
sS'[[Hamburger]]'
p63
I8
sS'[[Cherry Jam]]'
p64
I23
sS"[[Shepherd's Pie]]"
p65
I56
sS'[[Butter]]'
p66
I71
sS'[[Bacon Pie]]'
p67
I64
sS'[[Chili Pepper]]'
p68
I3
sS'[[Corn]]'
p69
I26
sS'[[Fish Fillet]]'
p70
I47
sS'[[Chili Popcorn]]'
p71
I59
sS'[[Bacon]]'
p72
I44
sS'[[Cotton Fabric]]'
p73
I39
sS'[[Pumpkin Pie]]'
p74
I16
sS'[[Potato Feta Cake]]'
p75
I34
sS'[[Sugarcane]]'
p76
I88
sS'[[Cookie]]'
p77
I75
sS'[[Apple Juice]]'
p78
I87
sS'[[Pig Feed]]'
p79
I63
sS'[[Cotton]]'
p80
I85
sS'[[Feta Pie]]'
p81
I83
sS'[[Cheese]]'
p82
I46
sS'[[Chocolate Ice Cream]]'
p83
I89
sS'[[Chicken Feed]]'
p84
I7
sS'[[Corn Bread]]'
p85
I50
sS'[[Wool]]'
p86
I65
sS'[[Roasted Tomatoes]]'
p87
I11
sS'[[Berry Juice]]'
p88
I69
sS'[[Sweater]]'
p89
I55
sS'[[Blackberry Muffin]]'
p90
I54
sS'[[Cow Feed]]'
p91
I35
s.(dp0
S'[[Popcorn]]'
p1
I5
sS'[[Woolly Chaps]]'
p2
I0
sS'[[Cookie]]'
p3
I3
sS'[[Potato Feta Cake]]'
p4
I0
sS'[[Feta Pie]]'
p5
I1
sS'[[Tomato Juice]]'
p6
I5
sS'[[Spicy Pizza]]'
p7
I2
sS'[[Pancake]]'
p8
I5
sS'[[Lure]]'
p9
I2
sS'[[Cream Cake]]'
p10
I1
sS'[[Cotton Fabric]]'
p11
I3
s.