(dp0
S'[[Pumpkin]]'
p1
I67
sS'[[Blackberry Jam]]'
p2
I10
sS'[[Violet Dress]]'
p3
I14
sS'[[Strawberry Ice Cream]]'
p4
I4
sS'[[Raspberry Muffin]]'
p5
I19
sS'[[Apple Pie]]'
p6
I57
sS'[[Tomato Juice]]'
p7
I83
sS'[[Blue Sweater]]'
p8
I58
sS'[[Honey]]'
p9
I12
sS'[[Vanilla Ice Cream]]'
p10
I65
sS'[[Lure]]'
p11
I45
sS'[[Carrot Pie]]'
p12
I52
sS'[[Tomato]]'
p13
I2
sS'[[Potato]]'
p14
I15
sS'[[Cheesecake]]'
p15
I60
sS'[[Fish Pie]]'
p16
I49
sS'[[Pancake]]'
p17
I5
sS'[[Popcorn]]'
p18
I69
sS'[[Goat Cheese]]'
p19
I43
sS'[[Potato Bread]]'
p20
I29
sS'[[Goat Feed]]'
p21
I36
sS'[[Red Berry Cake]]'
p22
I1
sS'[[Pizza]]'
p23
I55
sS'[[Syrup]]'
p24
I76
sS'[[Sheep Feed]]'
p25
I38
sS'[[Cherry Popsicle]]'
p26
I25
sS'[[Bacon and Eggs]]'
p27
I73
sS'[[Carrot]]'
p28
I7
sS'[[Carrot Juice]]'
p29
I79
sS'[[Baked Potato]]'
p30
I78
sS'[[Milk]]'
p31
I81
sS'[[Apple Jam]]'
p32
I30
sS'[[Apple]]'
p33
I61
sS'[[Blackberry]]'
p34
I31
sS'[[Cotton Shirt]]'
p35
I33
sS'[[Cream]]'
p36
I47
sS'[[Raspberry Jam]]'
p37
I26
sS'[[Cherry]]'
p38
I53
sS'[[Bread]]'
p39
I54
sS'[[Wheat]]'
p40
I86
sS'[[Casserole]]'
p41
I56
sS'[[Strawberry]]'
p42
I80
sS'[[Honey Popcorn]]'
p43
I50
sS'[[Honeycomb]]'
p44
I37
sS'[[Indigo]]'
p45
I41
sS'[[Raspberry]]'
p46
I62
sS'[[Chocolate Cake]]'
p47
I85
sS'[[Spicy Pizza]]'
p48
I84
sS'[[Cacao]]'
p49
I89
sS'[[Woolly Chaps]]'
p50
I16
sS'[[Carrot Cake]]'
p51
I17
sS'[[Egg]]'
p52
I8
sS'[[Strawberry Cake]]'
p53
I21
sS'[[Cherry Juice]]'
p54
I28
sS'[[Fish Burger]]'
p55
I27
sS'[[White Sugar]]'
p56
I23
sS'[[Buttered Popcorn]]'
p57
I77
sS'[[Cream Cake]]'
p58
I13
sS'[[Soybean]]'
p59
I9
sS'[[Brown Sugar]]'
p60
I66
sS'[[Blue Woolly Hat]]'
p61
I90
sS'[[Goat Milk]]'
p62
I46
sS'[[Hamburger]]'
p63
I3
sS'[[Cherry Jam]]'
p64
I18
sS"[[Shepherd's Pie]]"
p65
I72
sS'[[Butter]]'
p66
I22
sS'[[Bacon Pie]]'
p67
I59
sS'[[Chili Pepper]]'
p68
I42
sS'[[Corn]]'
p69
I71
sS'[[Fish Fillet]]'
p70
I48
sS'[[Chili Popcorn]]'
p71
I24
sS'[[Bacon]]'
p72
I35
sS'[[Cotton Fabric]]'
p73
I39
sS'[[Pumpkin Pie]]'
p74
I6
sS'[[Potato Feta Cake]]'
p75
I34
sS'[[Sugarcane]]'
p76
I70
sS'[[Cookie]]'
p77
I11
sS'[[Apple Juice]]'
p78
I88
sS'[[Pig Feed]]'
p79
I0
sS'[[Cotton]]'
p80
I82
sS'[[Feta Pie]]'
p81
I40
sS'[[Cheese]]'
p82
I20
sS'[[Chocolate Ice Cream]]'
p83
I75
sS'[[Chicken Feed]]'
p84
I32
sS'[[Corn Bread]]'
p85
I87
sS'[[Wool]]'
p86
I64
sS'[[Roasted Tomatoes]]'
p87
I68
sS'[[Berry Juice]]'
p88
I44
sS'[[Sweater]]'
p89
I74
sS'[[Blackberry Muffin]]'
p90
I51
sS'[[Cow Feed]]'
p91
I63
s.(dp0
S'[[Brown Sugar]]'
p1
I2
sS'[[Pizza]]'
p2
I1
sS'[[Strawberry]]'
p3
I2
sS'[[Carrot Cake]]'
p4
I4
sS'[[Hamburger]]'
p5
I5
sS'[[Cotton Shirt]]'
p6
I0
sS'[[Honeycomb]]'
p7
I1
sS'[[Pancake]]'
p8
I5
sS'[[Cheese]]'
p9
I5
sS'[[Raspberry Jam]]'
p10
I5
sS'[[Cow Feed]]'
p11
I5
s.