(dp0
S'[[Pumpkin]]'
p1
I43
sS'[[Blackberry Jam]]'
p2
I55
sS'[[Violet Dress]]'
p3
I12
sS'[[Strawberry Ice Cream]]'
p4
I38
sS'[[Raspberry Muffin]]'
p5
I33
sS'[[Apple Pie]]'
p6
I59
sS'[[Tomato Juice]]'
p7
I19
sS'[[Honey]]'
p8
I35
sS'[[Vanilla Ice Cream]]'
p9
I41
sS'[[Lure]]'
p10
I24
sS'[[Carrot Pie]]'
p11
I32
sS'[[Tomato]]'
p12
I40
sS'[[Potato]]'
p13
I52
sS'[[Cheesecake]]'
p14
I3
sS'[[Fish Pie]]'
p15
I72
sS'[[Pancake]]'
p16
I49
sS'[[Popcorn]]'
p17
I65
sS'[[Goat Cheese]]'
p18
I11
sS'[[Potato Bread]]'
p19
I86
sS'[[Goat Feed]]'
p20
I82
sS'[[Red Berry Cake]]'
p21
I47
sS'[[Pizza]]'
p22
I2
sS'[[Syrup]]'
p23
I37
sS'[[Sheep Feed]]'
p24
I66
sS'[[Cherry Popsicle]]'
p25
I29
sS'[[Bacon and Eggs]]'
p26
I36
sS'[[Carrot Juice]]'
p27
I51
sS'[[Baked Potato]]'
p28
I75
sS'[[Milk]]'
p29
I69
sS'[[Apple Jam]]'
p30
I34
sS'[[Carrot]]'
p31
I87
sS'[[Blackberry]]'
p32
I0
sS'[[Cotton Shirt]]'
p33
I5
sS'[[Cream]]'
p34
I31
sS'[[Raspberry Jam]]'
p35
I44
sS'[[Cherry]]'
p36
I68
sS'[[Bread]]'
p37
I88
sS'[[Wheat]]'
p38
I28
sS'[[Casserole]]'
p39
I18
sS'[[Strawberry]]'
p40
I54
sS'[[Honey Popcorn]]'
p41
I48
sS'[[Honeycomb]]'
p42
I27
sS'[[Indigo]]'
p43
I74
sS'[[Raspberry]]'
p44
I21
sS'[[Chocolate Cake]]'
p45
I17
sS'[[Spicy Pizza]]'
p46
I73
sS'[[Cacao]]'
p47
I79
sS'[[Woolly Chaps]]'
p48
I25
sS'[[Carrot Cake]]'
p49
I67
sS'[[Egg]]'
p50
I9
sS'[[Strawberry Cake]]'
p51
I20
sS'[[Cherry Juice]]'
p52
I62
sS'[[Fish Burger]]'
p53
I7
sS'[[White Sugar]]'
p54
I64
sS'[[Buttered Popcorn]]'
p55
I81
sS'[[Cream Cake]]'
p56
I4
sS'[[Soybean]]'
p57
I60
sS'[[Apple]]'
p58
I77
sS'[[Blue Woolly Hat]]'
p59
I90
sS'[[Goat Milk]]'
p60
I45
sS'[[Hamburger]]'
p61
I26
sS'[[Cherry Jam]]'
p62
I78
sS"[[Shepherd's Pie]]"
p63
I39
sS'[[Brown Sugar]]'
p64
I53
sS'[[Butter]]'
p65
I71
sS'[[Bacon Pie]]'
p66
I6
sS'[[Chili Pepper]]'
p67
I80
sS'[[Pumpkin Pie]]'
p68
I13
sS'[[Corn]]'
p69
I58
sS'[[Fish Fillet]]'
p70
I1
sS'[[Chili Popcorn]]'
p71
I22
sS'[[Bacon]]'
p72
I83
sS'[[Cotton Fabric]]'
p73
I61
sS'[[Blue Sweater]]'
p74
I70
sS'[[Potato Feta Cake]]'
p75
I42
sS'[[Sugarcane]]'
p76
I50
sS'[[Cookie]]'
p77
I56
sS'[[Apple Juice]]'
p78
I89
sS'[[Pig Feed]]'
p79
I85
sS'[[Cotton]]'
p80
I57
sS'[[Feta Pie]]'
p81
I76
sS'[[Cheese]]'
p82
I84
sS'[[Chocolate Ice Cream]]'
p83
I8
sS'[[Chicken Feed]]'
p84
I14
sS'[[Corn Bread]]'
p85
I46
sS'[[Wool]]'
p86
I30
sS'[[Roasted Tomatoes]]'
p87
I16
sS'[[Berry Juice]]'
p88
I10
sS'[[Sweater]]'
p89
I23
sS'[[Blackberry Muffin]]'
p90
I15
sS'[[Cow Feed]]'
p91
I63
s.(dp0
S'[[Apple]]'
p1
I5
sS'[[Cotton]]'
p2
I0
sS'[[Corn Bread]]'
p3
I0
sS'[[Honey Popcorn]]'
p4
I0
sS'[[Cookie]]'
p5
I0
sS'[[Bacon]]'
p6
I3
sS'[[Cherry]]'
p7
I0
s.