(dp0
S'[[Pumpkin]]'
p1
I69
sS'[[Blackberry Jam]]'
p2
I48
sS'[[Violet Dress]]'
p3
I51
sS'[[Strawberry Ice Cream]]'
p4
I39
sS'[[Raspberry Muffin]]'
p5
I24
sS'[[Apple Pie]]'
p6
I66
sS'[[Tomato Juice]]'
p7
I72
sS'[[Carrot Cake]]'
p8
I79
sS'[[Vanilla Ice Cream]]'
p9
I45
sS'[[Lure]]'
p10
I54
sS'[[Carrot Pie]]'
p11
I43
sS'[[Tomato]]'
p12
I86
sS'[[Cherry Juice]]'
p13
I32
sS'[[Cheesecake]]'
p14
I8
sS'[[Fish Pie]]'
p15
I31
sS'[[Pancake]]'
p16
I85
sS'[[Popcorn]]'
p17
I57
sS'[[Goat Cheese]]'
p18
I3
sS'[[Potato Bread]]'
p19
I41
sS'[[Goat Feed]]'
p20
I77
sS'[[Red Berry Cake]]'
p21
I44
sS'[[Pizza]]'
p22
I12
sS'[[Syrup]]'
p23
I37
sS'[[Sheep Feed]]'
p24
I18
sS'[[Cherry Popsicle]]'
p25
I67
sS'[[Bacon and Eggs]]'
p26
I52
sS'[[Carrot]]'
p27
I23
sS'[[Carrot Juice]]'
p28
I0
sS'[[Baked Potato]]'
p29
I5
sS'[[Milk]]'
p30
I53
sS'[[Apple Jam]]'
p31
I13
sS'[[Apple]]'
p32
I42
sS'[[Blackberry]]'
p33
I40
sS'[[Cotton Shirt]]'
p34
I59
sS'[[Cream]]'
p35
I9
sS'[[Raspberry Jam]]'
p36
I22
sS'[[Cherry]]'
p37
I14
sS'[[Bread]]'
p38
I38
sS'[[Wheat]]'
p39
I80
sS'[[Casserole]]'
p40
I65
sS'[[Strawberry]]'
p41
I25
sS'[[Honey Popcorn]]'
p42
I10
sS'[[Honeycomb]]'
p43
I36
sS'[[Indigo]]'
p44
I34
sS'[[Raspberry]]'
p45
I4
sS'[[Chocolate Cake]]'
p46
I30
sS'[[Spicy Pizza]]'
p47
I71
sS'[[Cacao]]'
p48
I81
sS'[[Woolly Chaps]]'
p49
I75
sS'[[Honey]]'
p50
I35
sS'[[Egg]]'
p51
I74
sS'[[Strawberry Cake]]'
p52
I46
sS'[[Potato]]'
p53
I61
sS'[[Fish Burger]]'
p54
I56
sS'[[White Sugar]]'
p55
I90
sS'[[Buttered Popcorn]]'
p56
I16
sS'[[Cream Cake]]'
p57
I1
sS'[[Soybean]]'
p58
I78
sS'[[Brown Sugar]]'
p59
I73
sS'[[Blue Woolly Hat]]'
p60
I63
sS'[[Goat Milk]]'
p61
I26
sS'[[Hamburger]]'
p62
I28
sS'[[Cherry Jam]]'
p63
I62
sS"[[Shepherd's Pie]]"
p64
I64
sS'[[Butter]]'
p65
I87
sS'[[Bacon Pie]]'
p66
I7
sS'[[Chili Pepper]]'
p67
I19
sS'[[Pumpkin Pie]]'
p68
I83
sS'[[Corn]]'
p69
I50
sS'[[Fish Fillet]]'
p70
I60
sS'[[Chili Popcorn]]'
p71
I58
sS'[[Bacon]]'
p72
I55
sS'[[Cotton Fabric]]'
p73
I15
sS'[[Blue Sweater]]'
p74
I2
sS'[[Potato Feta Cake]]'
p75
I21
sS'[[Sugarcane]]'
p76
I33
sS'[[Cookie]]'
p77
I6
sS'[[Apple Juice]]'
p78
I17
sS'[[Pig Feed]]'
p79
I88
sS'[[Cotton]]'
p80
I89
sS'[[Feta Pie]]'
p81
I11
sS'[[Cheese]]'
p82
I27
sS'[[Chocolate Ice Cream]]'
p83
I70
sS'[[Chicken Feed]]'
p84
I49
sS'[[Corn Bread]]'
p85
I82
sS'[[Wool]]'
p86
I76
sS'[[Roasted Tomatoes]]'
p87
I84
sS'[[Berry Juice]]'
p88
I29
sS'[[Sweater]]'
p89
I68
sS'[[Blackberry Muffin]]'
p90
I47
sS'[[Cow Feed]]'
p91
I20
s.(dp0
S'[[Egg]]'
p1
I3
sS'[[Raspberry Jam]]'
p2
I2
s.