(dp0
S'[[Pumpkin]]'
p1
I14
sS'[[Blackberry Jam]]'
p2
I24
sS'[[Violet Dress]]'
p3
I16
sS'[[Strawberry Ice Cream]]'
p4
I25
sS'[[Raspberry Muffin]]'
p5
I30
sS'[[Apple Pie]]'
p6
I36
sS'[[Tomato Juice]]'
p7
I75
sS'[[Blue Sweater]]'
p8
I6
sS'[[Honey]]'
p9
I60
sS'[[Vanilla Ice Cream]]'
p10
I0
sS'[[Lure]]'
p11
I71
sS'[[Carrot Pie]]'
p12
I23
sS'[[Tomato]]'
p13
I18
sS'[[Potato]]'
p14
I73
sS'[[Cheesecake]]'
p15
I3
sS'[[Fish Pie]]'
p16
I79
sS'[[Pancake]]'
p17
I81
sS'[[Popcorn]]'
p18
I39
sS'[[Goat Cheese]]'
p19
I28
sS'[[Potato Bread]]'
p20
I47
sS'[[Goat Feed]]'
p21
I50
sS'[[Red Berry Cake]]'
p22
I68
sS'[[Pizza]]'
p23
I31
sS'[[Syrup]]'
p24
I42
sS'[[Sheep Feed]]'
p25
I46
sS'[[Cherry Popsicle]]'
p26
I11
sS'[[Bacon and Eggs]]'
p27
I32
sS'[[Carrot]]'
p28
I65
sS'[[Carrot Juice]]'
p29
I44
sS'[[Baked Potato]]'
p30
I57
sS'[[Milk]]'
p31
I52
sS'[[Apple Jam]]'
p32
I37
sS'[[Apple]]'
p33
I49
sS'[[Blackberry]]'
p34
I22
sS'[[Cotton Shirt]]'
p35
I56
sS'[[Cream]]'
p36
I89
sS'[[Raspberry Jam]]'
p37
I35
sS'[[Cherry]]'
p38
I80
sS'[[Bread]]'
p39
I8
sS'[[Wheat]]'
p40
I72
sS'[[Casserole]]'
p41
I13
sS'[[Strawberry]]'
p42
I85
sS'[[Honey Popcorn]]'
p43
I12
sS'[[Honeycomb]]'
p44
I45
sS'[[Indigo]]'
p45
I64
sS'[[Raspberry]]'
p46
I33
sS'[[Chocolate Cake]]'
p47
I40
sS'[[Spicy Pizza]]'
p48
I55
sS'[[Cacao]]'
p49
I9
sS'[[Woolly Chaps]]'
p50
I41
sS'[[Carrot Cake]]'
p51
I78
sS'[[Egg]]'
p52
I27
sS'[[Strawberry Cake]]'
p53
I38
sS'[[Cherry Juice]]'
p54
I17
sS'[[Fish Burger]]'
p55
I90
sS'[[White Sugar]]'
p56
I15
sS'[[Buttered Popcorn]]'
p57
I62
sS'[[Cream Cake]]'
p58
I34
sS'[[Soybean]]'
p59
I10
sS'[[Brown Sugar]]'
p60
I74
sS'[[Blue Woolly Hat]]'
p61
I82
sS'[[Goat Milk]]'
p62
I4
sS'[[Hamburger]]'
p63
I53
sS'[[Cherry Jam]]'
p64
I83
sS"[[Shepherd's Pie]]"
p65
I61
sS'[[Butter]]'
p66
I1
sS'[[Bacon Pie]]'
p67
I7
sS'[[Chili Pepper]]'
p68
I43
sS'[[Corn]]'
p69
I58
sS'[[Fish Fillet]]'
p70
I21
sS'[[Chili Popcorn]]'
p71
I51
sS'[[Bacon]]'
p72
I59
sS'[[Cotton Fabric]]'
p73
I87
sS'[[Pumpkin Pie]]'
p74
I19
sS'[[Potato Feta Cake]]'
p75
I76
sS'[[Sugarcane]]'
p76
I67
sS'[[Cookie]]'
p77
I26
sS'[[Apple Juice]]'
p78
I63
sS'[[Pig Feed]]'
p79
I69
sS'[[Cotton]]'
p80
I48
sS'[[Feta Pie]]'
p81
I77
sS'[[Cheese]]'
p82
I84
sS'[[Chocolate Ice Cream]]'
p83
I20
sS'[[Chicken Feed]]'
p84
I54
sS'[[Corn Bread]]'
p85
I66
sS'[[Wool]]'
p86
I88
sS'[[Roasted Tomatoes]]'
p87
I2
sS'[[Berry Juice]]'
p88
I5
sS'[[Sweater]]'
p89
I86
sS'[[Blackberry Muffin]]'
p90
I70
sS'[[Cow Feed]]'
p91
I29
s.(dp0
S'[[Apple]]'
p1
I2
sS'[[Blue Woolly Hat]]'
p2
I1
sS'[[Potato]]'
p3
I0
sS'[[White Sugar]]'
p4
I3
sS'[[Butter]]'
p5
I2
sS'[[Pancake]]'
p6
I1
sS'[[Bacon]]'
p7
I0
sS'[[Sweater]]'
p8
I0
sS'[[Indigo]]'
p9
I1
s.