(dp0
S'[[Pumpkin]]'
p1
I45
sS'[[Blackberry Jam]]'
p2
I88
sS'[[Violet Dress]]'
p3
I74
sS'[[Strawberry Ice Cream]]'
p4
I61
sS'[[Raspberry Muffin]]'
p5
I87
sS'[[Apple Pie]]'
p6
I29
sS'[[Tomato Juice]]'
p7
I67
sS'[[Carrot Cake]]'
p8
I51
sS'[[Vanilla Ice Cream]]'
p9
I52
sS'[[Lure]]'
p10
I65
sS'[[Carrot Pie]]'
p11
I31
sS'[[Tomato]]'
p12
I10
sS'[[Cherry Juice]]'
p13
I34
sS'[[Cheesecake]]'
p14
I12
sS'[[Fish Pie]]'
p15
I54
sS'[[Pancake]]'
p16
I75
sS'[[Popcorn]]'
p17
I28
sS'[[Goat Cheese]]'
p18
I66
sS'[[Potato Bread]]'
p19
I3
sS'[[Goat Feed]]'
p20
I72
sS'[[Red Berry Cake]]'
p21
I39
sS'[[Pizza]]'
p22
I86
sS'[[Syrup]]'
p23
I78
sS'[[Sheep Feed]]'
p24
I30
sS'[[Cherry Popsicle]]'
p25
I57
sS'[[Bacon and Eggs]]'
p26
I80
sS'[[Carrot]]'
p27
I43
sS'[[Carrot Juice]]'
p28
I40
sS'[[Baked Potato]]'
p29
I42
sS'[[Milk]]'
p30
I27
sS'[[Apple Jam]]'
p31
I20
sS'[[Apple]]'
p32
I25
sS'[[Blackberry]]'
p33
I35
sS'[[Cotton Shirt]]'
p34
I18
sS'[[Cream]]'
p35
I70
sS'[[Raspberry Jam]]'
p36
I76
sS'[[Cherry]]'
p37
I44
sS'[[Bread]]'
p38
I62
sS'[[Wheat]]'
p39
I13
sS'[[Casserole]]'
p40
I33
sS'[[Strawberry]]'
p41
I59
sS'[[Honey Popcorn]]'
p42
I71
sS'[[Honeycomb]]'
p43
I1
sS'[[Indigo]]'
p44
I4
sS'[[Raspberry]]'
p45
I41
sS'[[Chocolate Cake]]'
p46
I5
sS'[[Spicy Pizza]]'
p47
I37
sS'[[Cacao]]'
p48
I90
sS'[[Woolly Chaps]]'
p49
I77
sS'[[Honey]]'
p50
I7
sS'[[Egg]]'
p51
I38
sS'[[Strawberry Cake]]'
p52
I36
sS'[[Potato]]'
p53
I89
sS'[[Fish Burger]]'
p54
I55
sS'[[White Sugar]]'
p55
I8
sS'[[Buttered Popcorn]]'
p56
I32
sS'[[Cream Cake]]'
p57
I21
sS'[[Soybean]]'
p58
I17
sS'[[Brown Sugar]]'
p59
I2
sS'[[Blue Woolly Hat]]'
p60
I9
sS'[[Goat Milk]]'
p61
I49
sS'[[Hamburger]]'
p62
I23
sS'[[Cherry Jam]]'
p63
I47
sS"[[Shepherd's Pie]]"
p64
I73
sS'[[Butter]]'
p65
I79
sS'[[Bacon Pie]]'
p66
I60
sS'[[Chili Pepper]]'
p67
I63
sS'[[Pumpkin Pie]]'
p68
I56
sS'[[Corn]]'
p69
I15
sS'[[Fish Fillet]]'
p70
I6
sS'[[Chili Popcorn]]'
p71
I46
sS'[[Bacon]]'
p72
I58
sS'[[Cotton Fabric]]'
p73
I11
sS'[[Blue Sweater]]'
p74
I69
sS'[[Potato Feta Cake]]'
p75
I53
sS'[[Sugarcane]]'
p76
I83
sS'[[Cookie]]'
p77
I64
sS'[[Apple Juice]]'
p78
I19
sS'[[Pig Feed]]'
p79
I81
sS'[[Cotton]]'
p80
I85
sS'[[Feta Pie]]'
p81
I0
sS'[[Cheese]]'
p82
I26
sS'[[Chocolate Ice Cream]]'
p83
I24
sS'[[Chicken Feed]]'
p84
I82
sS'[[Corn Bread]]'
p85
I50
sS'[[Wool]]'
p86
I14
sS'[[Roasted Tomatoes]]'
p87
I68
sS'[[Berry Juice]]'
p88
I48
sS'[[Sweater]]'
p89
I22
sS'[[Blackberry Muffin]]'
p90
I84
sS'[[Cow Feed]]'
p91
I16
s.(dp0
S'[[Cotton Fabric]]'
p1
I2
sS'[[Cookie]]'
p2
I0
sS'[[Fish Fillet]]'
p3
I2
sS'[[Buttered Popcorn]]'
p4
I3
s.