(dp0
S'[[Pumpkin]]'
p1
I22
sS'[[Blackberry Jam]]'
p2
I39
sS'[[Violet Dress]]'
p3
I46
sS'[[Strawberry Ice Cream]]'
p4
I62
sS'[[Raspberry Muffin]]'
p5
I25
sS'[[Apple Pie]]'
p6
I24
sS'[[Tomato Juice]]'
p7
I20
sS'[[Carrot Cake]]'
p8
I6
sS'[[Vanilla Ice Cream]]'
p9
I40
sS'[[Lure]]'
p10
I87
sS'[[Carrot Pie]]'
p11
I2
sS'[[Tomato]]'
p12
I73
sS'[[Cherry Juice]]'
p13
I76
sS'[[Cheesecake]]'
p14
I50
sS'[[Fish Pie]]'
p15
I21
sS'[[Pancake]]'
p16
I34
sS'[[Popcorn]]'
p17
I63
sS'[[Goat Cheese]]'
p18
I11
sS'[[Potato Bread]]'
p19
I72
sS'[[Goat Feed]]'
p20
I90
sS'[[Red Berry Cake]]'
p21
I5
sS'[[Pizza]]'
p22
I8
sS'[[Syrup]]'
p23
I52
sS'[[Sheep Feed]]'
p24
I47
sS'[[Cherry Popsicle]]'
p25
I37
sS'[[Bacon and Eggs]]'
p26
I77
sS'[[Carrot Juice]]'
p27
I35
sS'[[Baked Potato]]'
p28
I12
sS'[[Milk]]'
p29
I53
sS'[[Apple Jam]]'
p30
I43
sS'[[Carrot]]'
p31
I9
sS'[[Blackberry]]'
p32
I28
sS'[[Cotton Shirt]]'
p33
I59
sS'[[Cream]]'
p34
I84
sS'[[Raspberry Jam]]'
p35
I30
sS'[[Cherry]]'
p36
I89
sS'[[Bread]]'
p37
I42
sS'[[Wheat]]'
p38
I70
sS'[[Casserole]]'
p39
I41
sS'[[Chili Pepper]]'
p40
I55
sS'[[Honey Popcorn]]'
p41
I66
sS'[[Honeycomb]]'
p42
I51
sS'[[Indigo]]'
p43
I17
sS'[[Raspberry]]'
p44
I64
sS'[[Chocolate Cake]]'
p45
I83
sS'[[Spicy Pizza]]'
p46
I79
sS'[[Cacao]]'
p47
I48
sS'[[Woolly Chaps]]'
p48
I69
sS'[[Honey]]'
p49
I27
sS'[[Egg]]'
p50
I16
sS'[[Strawberry Cake]]'
p51
I14
sS'[[Potato]]'
p52
I88
sS'[[Fish Burger]]'
p53
I74
sS'[[White Sugar]]'
p54
I29
sS'[[Buttered Popcorn]]'
p55
I33
sS'[[Cream Cake]]'
p56
I65
sS'[[Soybean]]'
p57
I4
sS'[[Apple]]'
p58
I7
sS'[[Blue Woolly Hat]]'
p59
I44
sS'[[Goat Milk]]'
p60
I80
sS'[[Hamburger]]'
p61
I85
sS'[[Cherry Jam]]'
p62
I78
sS"[[Shepherd's Pie]]"
p63
I86
sS'[[Brown Sugar]]'
p64
I19
sS'[[Butter]]'
p65
I31
sS'[[Bacon Pie]]'
p66
I32
sS'[[Strawberry]]'
p67
I61
sS'[[Pumpkin Pie]]'
p68
I45
sS'[[Corn]]'
p69
I82
sS'[[Fish Fillet]]'
p70
I49
sS'[[Chili Popcorn]]'
p71
I57
sS'[[Bacon]]'
p72
I56
sS'[[Cotton Fabric]]'
p73
I68
sS'[[Blue Sweater]]'
p74
I75
sS'[[Potato Feta Cake]]'
p75
I67
sS'[[Sugarcane]]'
p76
I81
sS'[[Cookie]]'
p77
I36
sS'[[Apple Juice]]'
p78
I54
sS'[[Pig Feed]]'
p79
I1
sS'[[Cotton]]'
p80
I13
sS'[[Feta Pie]]'
p81
I0
sS'[[Cheese]]'
p82
I18
sS'[[Chocolate Ice Cream]]'
p83
I38
sS'[[Chicken Feed]]'
p84
I3
sS'[[Corn Bread]]'
p85
I15
sS'[[Wool]]'
p86
I10
sS'[[Roasted Tomatoes]]'
p87
I23
sS'[[Berry Juice]]'
p88
I60
sS'[[Sweater]]'
p89
I26
sS'[[Blackberry Muffin]]'
p90
I71
sS'[[Cow Feed]]'
p91
I58
s.(dp0
S'[[Apple]]'
p1
I2
sS'[[Cherry Juice]]'
p2
I0
sS'[[Chili Pepper]]'
p3
I2
sS'[[Potato]]'
p4
I0
sS'[[Chili Popcorn]]'
p5
I0
sS'[[White Sugar]]'
p6
I3
sS'[[Indigo]]'
p7
I0
sS'[[Pancake]]'
p8
I1
sS'[[Chocolate Ice Cream]]'
p9
I0
sS'[[Cream Cake]]'
p10
I1
s.