(dp0
S'[[Pumpkin]]'
p1
I33
sS'[[Blackberry Jam]]'
p2
I6
sS'[[Violet Dress]]'
p3
I72
sS'[[Strawberry Ice Cream]]'
p4
I54
sS'[[Raspberry Muffin]]'
p5
I24
sS'[[Apple Pie]]'
p6
I69
sS'[[Tomato Juice]]'
p7
I50
sS'[[Blue Sweater]]'
p8
I14
sS'[[Honey]]'
p9
I20
sS'[[Vanilla Ice Cream]]'
p10
I1
sS'[[Lure]]'
p11
I22
sS'[[Carrot Pie]]'
p12
I80
sS'[[Tomato]]'
p13
I44
sS'[[Potato]]'
p14
I55
sS'[[Cheesecake]]'
p15
I53
sS'[[Fish Pie]]'
p16
I10
sS'[[Pancake]]'
p17
I66
sS'[[Popcorn]]'
p18
I35
sS'[[Goat Cheese]]'
p19
I17
sS'[[Potato Bread]]'
p20
I42
sS'[[Goat Feed]]'
p21
I51
sS'[[Red Berry Cake]]'
p22
I7
sS'[[Pizza]]'
p23
I29
sS'[[Syrup]]'
p24
I74
sS'[[Sheep Feed]]'
p25
I36
sS'[[Cherry Popsicle]]'
p26
I26
sS'[[Bacon and Eggs]]'
p27
I90
sS'[[Carrot Juice]]'
p28
I18
sS'[[Baked Potato]]'
p29
I78
sS'[[Milk]]'
p30
I28
sS'[[Apple Jam]]'
p31
I11
sS'[[Carrot]]'
p32
I82
sS'[[Blackberry]]'
p33
I16
sS'[[Cotton Shirt]]'
p34
I67
sS'[[Cream]]'
p35
I49
sS'[[Raspberry Jam]]'
p36
I2
sS'[[Cherry]]'
p37
I37
sS'[[Bread]]'
p38
I48
sS'[[Wheat]]'
p39
I41
sS'[[Casserole]]'
p40
I5
sS'[[Chili Pepper]]'
p41
I52
sS'[[Honey Popcorn]]'
p42
I45
sS'[[Honeycomb]]'
p43
I61
sS'[[Indigo]]'
p44
I21
sS'[[Raspberry]]'
p45
I81
sS'[[Chocolate Cake]]'
p46
I88
sS'[[Spicy Pizza]]'
p47
I60
sS'[[Cacao]]'
p48
I30
sS'[[Woolly Chaps]]'
p49
I79
sS'[[Carrot Cake]]'
p50
I70
sS'[[Egg]]'
p51
I15
sS'[[Strawberry Cake]]'
p52
I59
sS'[[Cherry Juice]]'
p53
I39
sS'[[Fish Burger]]'
p54
I47
sS'[[White Sugar]]'
p55
I84
sS'[[Buttered Popcorn]]'
p56
I25
sS'[[Cream Cake]]'
p57
I63
sS'[[Soybean]]'
p58
I65
sS'[[Apple]]'
p59
I75
sS'[[Blue Woolly Hat]]'
p60
I32
sS'[[Goat Milk]]'
p61
I57
sS'[[Hamburger]]'
p62
I58
sS'[[Cherry Jam]]'
p63
I34
sS"[[Shepherd's Pie]]"
p64
I3
sS'[[Brown Sugar]]'
p65
I71
sS'[[Butter]]'
p66
I40
sS'[[Bacon Pie]]'
p67
I4
sS'[[Strawberry]]'
p68
I86
sS'[[Corn]]'
p69
I83
sS'[[Fish Fillet]]'
p70
I12
sS'[[Chili Popcorn]]'
p71
I19
sS'[[Bacon]]'
p72
I56
sS'[[Cotton Fabric]]'
p73
I76
sS'[[Pumpkin Pie]]'
p74
I62
sS'[[Potato Feta Cake]]'
p75
I13
sS'[[Sugarcane]]'
p76
I38
sS'[[Cookie]]'
p77
I27
sS'[[Apple Juice]]'
p78
I23
sS'[[Pig Feed]]'
p79
I77
sS'[[Cotton]]'
p80
I89
sS'[[Feta Pie]]'
p81
I46
sS'[[Cheese]]'
p82
I9
sS'[[Chocolate Ice Cream]]'
p83
I87
sS'[[Chicken Feed]]'
p84
I43
sS'[[Corn Bread]]'
p85
I31
sS'[[Wool]]'
p86
I0
sS'[[Roasted Tomatoes]]'
p87
I85
sS'[[Berry Juice]]'
p88
I64
sS'[[Sweater]]'
p89
I8
sS'[[Blackberry Muffin]]'
p90
I73
sS'[[Cow Feed]]'
p91
I68
s.(dp0
S'[[Blue Sweater]]'
p1
I2
sS'[[Popcorn]]'
p2
I4
sS'[[Cherry Popsicle]]'
p3
I0
sS'[[Corn Bread]]'
p4
I5
sS'[[Egg]]'
p5
I5
sS'[[Cherry Jam]]'
p6
I4
sS'[[Pancake]]'
p7
I0
sS'[[Wool]]'
p8
I1
sS'[[Cheese]]'
p9
I1
sS'[[Chocolate Cake]]'
p10
I3
sS'[[Apple Jam]]'
p11
I4
s.