(dp0
S'[[Pumpkin]]'
p1
I41
sS'[[Blackberry Jam]]'
p2
I54
sS'[[Violet Dress]]'
p3
I7
sS'[[Strawberry Ice Cream]]'
p4
I43
sS'[[Raspberry Muffin]]'
p5
I87
sS'[[Apple Pie]]'
p6
I66
sS'[[Tomato Juice]]'
p7
I37
sS'[[Blue Sweater]]'
p8
I9
sS'[[Honey]]'
p9
I26
sS'[[Vanilla Ice Cream]]'
p10
I11
sS'[[Lure]]'
p11
I42
sS'[[Carrot Pie]]'
p12
I25
sS'[[Tomato]]'
p13
I33
sS'[[Potato]]'
p14
I5
sS'[[Cheesecake]]'
p15
I76
sS'[[Fish Pie]]'
p16
I36
sS'[[Pancake]]'
p17
I55
sS'[[Popcorn]]'
p18
I70
sS'[[Goat Cheese]]'
p19
I71
sS'[[Potato Bread]]'
p20
I21
sS'[[Goat Feed]]'
p21
I32
sS'[[Red Berry Cake]]'
p22
I28
sS'[[Pizza]]'
p23
I88
sS'[[Syrup]]'
p24
I20
sS'[[Sheep Feed]]'
p25
I73
sS'[[Cherry Popsicle]]'
p26
I4
sS'[[Bacon and Eggs]]'
p27
I75
sS'[[Carrot]]'
p28
I68
sS'[[Carrot Juice]]'
p29
I31
sS'[[Baked Potato]]'
p30
I12
sS'[[Milk]]'
p31
I52
sS'[[Apple Jam]]'
p32
I79
sS'[[Apple]]'
p33
I85
sS'[[Blackberry]]'
p34
I19
sS'[[Cotton Shirt]]'
p35
I81
sS'[[Cream]]'
p36
I51
sS'[[Raspberry Jam]]'
p37
I2
sS'[[Cherry]]'
p38
I86
sS'[[Bread]]'
p39
I47
sS'[[Wheat]]'
p40
I18
sS'[[Casserole]]'
p41
I30
sS'[[Strawberry]]'
p42
I69
sS'[[Honey Popcorn]]'
p43
I67
sS'[[Honeycomb]]'
p44
I27
sS'[[Indigo]]'
p45
I78
sS'[[Raspberry]]'
p46
I53
sS'[[Chocolate Cake]]'
p47
I29
sS'[[Spicy Pizza]]'
p48
I90
sS'[[Cacao]]'
p49
I45
sS'[[Woolly Chaps]]'
p50
I58
sS'[[Carrot Cake]]'
p51
I24
sS'[[Egg]]'
p52
I40
sS'[[Strawberry Cake]]'
p53
I10
sS'[[Cherry Juice]]'
p54
I74
sS'[[Fish Burger]]'
p55
I57
sS'[[White Sugar]]'
p56
I48
sS'[[Buttered Popcorn]]'
p57
I15
sS'[[Cream Cake]]'
p58
I49
sS'[[Soybean]]'
p59
I50
sS'[[Brown Sugar]]'
p60
I64
sS'[[Blue Woolly Hat]]'
p61
I80
sS'[[Goat Milk]]'
p62
I35
sS'[[Hamburger]]'
p63
I62
sS'[[Cherry Jam]]'
p64
I63
sS"[[Shepherd's Pie]]"
p65
I72
sS'[[Butter]]'
p66
I3
sS'[[Bacon Pie]]'
p67
I34
sS'[[Chili Pepper]]'
p68
I89
sS'[[Corn]]'
p69
I84
sS'[[Fish Fillet]]'
p70
I61
sS'[[Chili Popcorn]]'
p71
I22
sS'[[Bacon]]'
p72
I65
sS'[[Cotton Fabric]]'
p73
I46
sS'[[Pumpkin Pie]]'
p74
I14
sS'[[Potato Feta Cake]]'
p75
I59
sS'[[Sugarcane]]'
p76
I39
sS'[[Cookie]]'
p77
I83
sS'[[Apple Juice]]'
p78
I44
sS'[[Pig Feed]]'
p79
I23
sS'[[Cotton]]'
p80
I6
sS'[[Feta Pie]]'
p81
I38
sS'[[Cheese]]'
p82
I77
sS'[[Chocolate Ice Cream]]'
p83
I1
sS'[[Chicken Feed]]'
p84
I16
sS'[[Corn Bread]]'
p85
I8
sS'[[Wool]]'
p86
I17
sS'[[Roasted Tomatoes]]'
p87
I13
sS'[[Berry Juice]]'
p88
I60
sS'[[Sweater]]'
p89
I82
sS'[[Blackberry Muffin]]'
p90
I0
sS'[[Cow Feed]]'
p91
I56
s.(dp0
S'[[Pumpkin Pie]]'
p1
I4
sS'[[Potato]]'
p2
I0
sS'[[Carrot Cake]]'
p3
I4
sS'[[Blackberry]]'
p4
I3
sS'[[Apple Pie]]'
p5
I3
sS'[[Egg]]'
p6
I1
sS'[[Pancake]]'
p7
I4
sS'[[Goat Cheese]]'
p8
I1
sS'[[Raspberry]]'
p9
I0
sS'[[Cherry]]'
p10
I5
sS'[[Cow Feed]]'
p11
I3
s.