(dp0
S'[[Pumpkin]]'
p1
I15
sS'[[Blackberry Jam]]'
p2
I69
sS'[[Violet Dress]]'
p3
I50
sS'[[Strawberry Ice Cream]]'
p4
I22
sS'[[Raspberry Muffin]]'
p5
I19
sS'[[Apple Pie]]'
p6
I7
sS'[[Tomato Juice]]'
p7
I44
sS'[[Carrot Cake]]'
p8
I9
sS'[[Vanilla Ice Cream]]'
p9
I38
sS'[[Lure]]'
p10
I81
sS'[[Carrot Pie]]'
p11
I42
sS'[[Tomato]]'
p12
I55
sS'[[Cherry Juice]]'
p13
I28
sS'[[Cheesecake]]'
p14
I90
sS'[[Fish Pie]]'
p15
I36
sS'[[Pancake]]'
p16
I70
sS'[[Popcorn]]'
p17
I4
sS'[[Goat Cheese]]'
p18
I54
sS'[[Potato Bread]]'
p19
I87
sS'[[Goat Feed]]'
p20
I12
sS'[[Red Berry Cake]]'
p21
I5
sS'[[Pizza]]'
p22
I17
sS'[[Syrup]]'
p23
I39
sS'[[Sheep Feed]]'
p24
I23
sS'[[Cherry Popsicle]]'
p25
I49
sS'[[Bacon and Eggs]]'
p26
I45
sS'[[Carrot]]'
p27
I52
sS'[[Carrot Juice]]'
p28
I11
sS'[[Baked Potato]]'
p29
I41
sS'[[Milk]]'
p30
I56
sS'[[Apple Jam]]'
p31
I71
sS'[[Apple]]'
p32
I20
sS'[[Blackberry]]'
p33
I8
sS'[[Cotton Shirt]]'
p34
I53
sS'[[Cream]]'
p35
I29
sS'[[Raspberry Jam]]'
p36
I21
sS'[[Cherry]]'
p37
I46
sS'[[Bread]]'
p38
I68
sS'[[Wheat]]'
p39
I86
sS'[[Casserole]]'
p40
I82
sS'[[Strawberry]]'
p41
I34
sS'[[Honey Popcorn]]'
p42
I37
sS'[[Honeycomb]]'
p43
I78
sS'[[Indigo]]'
p44
I14
sS'[[Raspberry]]'
p45
I73
sS'[[Chocolate Cake]]'
p46
I51
sS'[[Spicy Pizza]]'
p47
I84
sS'[[Cacao]]'
p48
I32
sS'[[Woolly Chaps]]'
p49
I6
sS'[[Honey]]'
p50
I1
sS'[[Egg]]'
p51
I58
sS'[[Strawberry Cake]]'
p52
I24
sS'[[Potato]]'
p53
I3
sS'[[Fish Burger]]'
p54
I64
sS'[[White Sugar]]'
p55
I16
sS'[[Buttered Popcorn]]'
p56
I40
sS'[[Cream Cake]]'
p57
I89
sS'[[Soybean]]'
p58
I35
sS'[[Brown Sugar]]'
p59
I2
sS'[[Blue Woolly Hat]]'
p60
I72
sS'[[Goat Milk]]'
p61
I60
sS'[[Hamburger]]'
p62
I76
sS'[[Cherry Jam]]'
p63
I74
sS"[[Shepherd's Pie]]"
p64
I30
sS'[[Butter]]'
p65
I85
sS'[[Bacon Pie]]'
p66
I66
sS'[[Chili Pepper]]'
p67
I18
sS'[[Pumpkin Pie]]'
p68
I33
sS'[[Corn]]'
p69
I61
sS'[[Fish Fillet]]'
p70
I13
sS'[[Chili Popcorn]]'
p71
I31
sS'[[Bacon]]'
p72
I27
sS'[[Cotton Fabric]]'
p73
I67
sS'[[Blue Sweater]]'
p74
I62
sS'[[Potato Feta Cake]]'
p75
I48
sS'[[Sugarcane]]'
p76
I80
sS'[[Cookie]]'
p77
I77
sS'[[Apple Juice]]'
p78
I79
sS'[[Pig Feed]]'
p79
I65
sS'[[Cotton]]'
p80
I47
sS'[[Feta Pie]]'
p81
I0
sS'[[Cheese]]'
p82
I25
sS'[[Chocolate Ice Cream]]'
p83
I26
sS'[[Chicken Feed]]'
p84
I88
sS'[[Corn Bread]]'
p85
I63
sS'[[Wool]]'
p86
I43
sS'[[Roasted Tomatoes]]'
p87
I83
sS'[[Berry Juice]]'
p88
I57
sS'[[Sweater]]'
p89
I59
sS'[[Blackberry Muffin]]'
p90
I10
sS'[[Cow Feed]]'
p91
I75
s.(dp0
S'[[Pig Feed]]'
p1
I5
sS'[[Sheep Feed]]'
p2
I3
sS'[[Cherry Juice]]'
p3
I3
sS'[[Cacao]]'
p4
I1
sS'[[Blue Woolly Hat]]'
p5
I0
sS'[[Pumpkin]]'
p6
I4
sS'[[Feta Pie]]'
p7
I5
sS'[[Wool]]'
p8
I2
sS'[[Cheese]]'
p9
I4
sS'[[Goat Milk]]'
p10
I0
sS'[[Cotton]]'
p11
I1
s.