(dp0
S'[[Pumpkin]]'
p1
I15
sS'[[Blackberry Jam]]'
p2
I54
sS'[[Violet Dress]]'
p3
I77
sS'[[Strawberry Ice Cream]]'
p4
I36
sS'[[Raspberry Muffin]]'
p5
I80
sS'[[Apple Pie]]'
p6
I66
sS'[[Tomato Juice]]'
p7
I90
sS'[[Blue Sweater]]'
p8
I72
sS'[[Carrot Cake]]'
p9
I67
sS'[[Vanilla Ice Cream]]'
p10
I64
sS'[[Lure]]'
p11
I45
sS'[[Carrot Pie]]'
p12
I50
sS'[[Tomato]]'
p13
I27
sS'[[Cherry Juice]]'
p14
I35
sS'[[Cheesecake]]'
p15
I41
sS'[[Fish Pie]]'
p16
I78
sS'[[Pancake]]'
p17
I48
sS'[[Popcorn]]'
p18
I18
sS'[[Goat Cheese]]'
p19
I70
sS'[[Potato Bread]]'
p20
I38
sS'[[Goat Feed]]'
p21
I12
sS'[[Red Berry Cake]]'
p22
I79
sS'[[Pizza]]'
p23
I63
sS'[[Syrup]]'
p24
I89
sS'[[Sheep Feed]]'
p25
I47
sS'[[Cherry Popsicle]]'
p26
I51
sS'[[Bacon and Eggs]]'
p27
I23
sS'[[Carrot]]'
p28
I40
sS'[[Carrot Juice]]'
p29
I6
sS'[[Baked Potato]]'
p30
I71
sS'[[Milk]]'
p31
I21
sS'[[Apple Jam]]'
p32
I8
sS'[[Apple]]'
p33
I83
sS'[[Blackberry]]'
p34
I88
sS'[[Cotton Shirt]]'
p35
I74
sS'[[Cream]]'
p36
I0
sS'[[Raspberry Jam]]'
p37
I5
sS'[[Cherry]]'
p38
I1
sS'[[Bread]]'
p39
I86
sS'[[Wheat]]'
p40
I20
sS'[[Casserole]]'
p41
I49
sS'[[Chili Pepper]]'
p42
I68
sS'[[Honey Popcorn]]'
p43
I17
sS'[[Honeycomb]]'
p44
I62
sS'[[Indigo]]'
p45
I81
sS'[[Raspberry]]'
p46
I16
sS'[[Chocolate Cake]]'
p47
I28
sS'[[Spicy Pizza]]'
p48
I76
sS'[[Cacao]]'
p49
I10
sS'[[Woolly Chaps]]'
p50
I37
sS'[[Honey]]'
p51
I82
sS'[[Egg]]'
p52
I31
sS'[[Strawberry Cake]]'
p53
I14
sS'[[Potato]]'
p54
I44
sS'[[Fish Burger]]'
p55
I29
sS'[[White Sugar]]'
p56
I42
sS'[[Buttered Popcorn]]'
p57
I61
sS'[[Cream Cake]]'
p58
I30
sS'[[Soybean]]'
p59
I69
sS'[[Brown Sugar]]'
p60
I19
sS'[[Blue Woolly Hat]]'
p61
I57
sS'[[Goat Milk]]'
p62
I4
sS'[[Hamburger]]'
p63
I55
sS'[[Cherry Jam]]'
p64
I53
sS"[[Shepherd's Pie]]"
p65
I87
sS'[[Butter]]'
p66
I26
sS'[[Bacon Pie]]'
p67
I9
sS'[[Strawberry]]'
p68
I39
sS'[[Corn]]'
p69
I46
sS'[[Fish Fillet]]'
p70
I85
sS'[[Chili Popcorn]]'
p71
I3
sS'[[Bacon]]'
p72
I24
sS'[[Cotton Fabric]]'
p73
I22
sS'[[Pumpkin Pie]]'
p74
I2
sS'[[Potato Feta Cake]]'
p75
I11
sS'[[Sugarcane]]'
p76
I60
sS'[[Cookie]]'
p77
I65
sS'[[Apple Juice]]'
p78
I84
sS'[[Pig Feed]]'
p79
I32
sS'[[Cotton]]'
p80
I75
sS'[[Feta Pie]]'
p81
I59
sS'[[Cheese]]'
p82
I56
sS'[[Chocolate Ice Cream]]'
p83
I7
sS'[[Chicken Feed]]'
p84
I25
sS'[[Corn Bread]]'
p85
I52
sS'[[Wool]]'
p86
I33
sS'[[Roasted Tomatoes]]'
p87
I13
sS'[[Berry Juice]]'
p88
I34
sS'[[Sweater]]'
p89
I58
sS'[[Blackberry Muffin]]'
p90
I73
sS'[[Cow Feed]]'
p91
I43
s.(dp0
S'[[Strawberry]]'
p1
I1
sS'[[Cherry Popsicle]]'
p2
I2
sS'[[Blue Woolly Hat]]'
p3
I3
sS'[[Apple Pie]]'
p4
I4
sS'[[Carrot Juice]]'
p5
I2
sS'[[Goat Cheese]]'
p6
I0
sS'[[Sugarcane]]'
p7
I4
sS'[[Chocolate Cake]]'
p8
I5
sS'[[Bread]]'
p9
I0
sS'[[Syrup]]'
p10
I4
sS'[[Bacon and Eggs]]'
p11
I4
s.