(dp0
S'[[Pumpkin]]'
p1
I17
sS'[[Blackberry Jam]]'
p2
I14
sS'[[Violet Dress]]'
p3
I57
sS'[[Strawberry Ice Cream]]'
p4
I13
sS'[[Raspberry Muffin]]'
p5
I32
sS'[[Apple Pie]]'
p6
I42
sS'[[Tomato Juice]]'
p7
I18
sS'[[Blue Sweater]]'
p8
I80
sS'[[Honey]]'
p9
I84
sS'[[Vanilla Ice Cream]]'
p10
I52
sS'[[Lure]]'
p11
I30
sS'[[Carrot Pie]]'
p12
I29
sS'[[Tomato]]'
p13
I54
sS'[[Potato]]'
p14
I63
sS'[[Cheesecake]]'
p15
I67
sS'[[Fish Pie]]'
p16
I46
sS'[[Pancake]]'
p17
I53
sS'[[Popcorn]]'
p18
I33
sS'[[Goat Cheese]]'
p19
I47
sS'[[Potato Bread]]'
p20
I6
sS'[[Goat Feed]]'
p21
I64
sS'[[Red Berry Cake]]'
p22
I79
sS'[[Pizza]]'
p23
I22
sS'[[Syrup]]'
p24
I88
sS'[[Sheep Feed]]'
p25
I7
sS'[[Cherry Popsicle]]'
p26
I3
sS'[[Bacon and Eggs]]'
p27
I11
sS'[[Carrot Juice]]'
p28
I8
sS'[[Baked Potato]]'
p29
I37
sS'[[Milk]]'
p30
I61
sS'[[Apple Jam]]'
p31
I58
sS'[[Carrot]]'
p32
I55
sS'[[Blackberry]]'
p33
I65
sS'[[Cotton Shirt]]'
p34
I69
sS'[[Cream]]'
p35
I36
sS'[[Raspberry Jam]]'
p36
I59
sS'[[Cherry]]'
p37
I56
sS'[[Bread]]'
p38
I50
sS'[[Wheat]]'
p39
I4
sS'[[Casserole]]'
p40
I62
sS'[[Chili Pepper]]'
p41
I15
sS'[[Honey Popcorn]]'
p42
I66
sS'[[Honeycomb]]'
p43
I0
sS'[[Indigo]]'
p44
I10
sS'[[Raspberry]]'
p45
I82
sS'[[Chocolate Cake]]'
p46
I90
sS'[[Spicy Pizza]]'
p47
I41
sS'[[Cacao]]'
p48
I83
sS'[[Woolly Chaps]]'
p49
I44
sS'[[Carrot Cake]]'
p50
I87
sS'[[Egg]]'
p51
I35
sS'[[Strawberry Cake]]'
p52
I86
sS'[[Cherry Juice]]'
p53
I51
sS'[[Fish Burger]]'
p54
I23
sS'[[White Sugar]]'
p55
I2
sS'[[Buttered Popcorn]]'
p56
I39
sS'[[Cream Cake]]'
p57
I75
sS'[[Soybean]]'
p58
I74
sS'[[Apple]]'
p59
I34
sS'[[Blue Woolly Hat]]'
p60
I60
sS'[[Goat Milk]]'
p61
I49
sS'[[Hamburger]]'
p62
I25
sS'[[Cherry Jam]]'
p63
I20
sS"[[Shepherd's Pie]]"
p64
I73
sS'[[Brown Sugar]]'
p65
I85
sS'[[Butter]]'
p66
I48
sS'[[Bacon Pie]]'
p67
I38
sS'[[Strawberry]]'
p68
I9
sS'[[Corn]]'
p69
I76
sS'[[Fish Fillet]]'
p70
I89
sS'[[Chili Popcorn]]'
p71
I43
sS'[[Bacon]]'
p72
I77
sS'[[Cotton Fabric]]'
p73
I12
sS'[[Pumpkin Pie]]'
p74
I70
sS'[[Potato Feta Cake]]'
p75
I31
sS'[[Sugarcane]]'
p76
I5
sS'[[Cookie]]'
p77
I28
sS'[[Apple Juice]]'
p78
I81
sS'[[Pig Feed]]'
p79
I68
sS'[[Cotton]]'
p80
I26
sS'[[Feta Pie]]'
p81
I78
sS'[[Cheese]]'
p82
I71
sS'[[Chocolate Ice Cream]]'
p83
I21
sS'[[Chicken Feed]]'
p84
I19
sS'[[Corn Bread]]'
p85
I72
sS'[[Wool]]'
p86
I27
sS'[[Roasted Tomatoes]]'
p87
I40
sS'[[Berry Juice]]'
p88
I45
sS'[[Sweater]]'
p89
I1
sS'[[Blackberry Muffin]]'
p90
I24
sS'[[Cow Feed]]'
p91
I16
s.(dp0
S'[[Tomato]]'
p1
I4
sS'[[Strawberry Ice Cream]]'
p2
I2
sS'[[Carrot]]'
p3
I1
sS'[[Apple Pie]]'
p4
I2
sS'[[Cookie]]'
p5
I3
sS'[[Baked Potato]]'
p6
I3
sS'[[Fish Burger]]'
p7
I0
sS'[[Sweater]]'
p8
I1
sS'[[Cotton Fabric]]'
p9
I2
sS'[[Cow Feed]]'
p10
I0
s.