(dp0
S'[[Pumpkin]]'
p1
I24
sS'[[Blackberry Jam]]'
p2
I39
sS'[[Violet Dress]]'
p3
I3
sS'[[Strawberry Ice Cream]]'
p4
I19
sS'[[Raspberry Muffin]]'
p5
I17
sS'[[Apple Pie]]'
p6
I12
sS'[[Tomato Juice]]'
p7
I65
sS'[[Blue Sweater]]'
p8
I45
sS'[[Honey]]'
p9
I11
sS'[[Vanilla Ice Cream]]'
p10
I62
sS'[[Lure]]'
p11
I81
sS'[[Carrot Pie]]'
p12
I52
sS'[[Tomato]]'
p13
I51
sS'[[Potato]]'
p14
I55
sS'[[Cheesecake]]'
p15
I0
sS'[[Fish Pie]]'
p16
I47
sS'[[Pancake]]'
p17
I78
sS'[[Popcorn]]'
p18
I86
sS'[[Goat Cheese]]'
p19
I35
sS'[[Potato Bread]]'
p20
I61
sS'[[Goat Feed]]'
p21
I85
sS'[[Red Berry Cake]]'
p22
I38
sS'[[Pizza]]'
p23
I34
sS'[[Syrup]]'
p24
I49
sS'[[Sheep Feed]]'
p25
I20
sS'[[Cherry Popsicle]]'
p26
I54
sS'[[Bacon and Eggs]]'
p27
I70
sS'[[Carrot Juice]]'
p28
I68
sS'[[Baked Potato]]'
p29
I40
sS'[[Milk]]'
p30
I73
sS'[[Apple Jam]]'
p31
I53
sS'[[Carrot]]'
p32
I6
sS'[[Blackberry]]'
p33
I43
sS'[[Cotton Shirt]]'
p34
I75
sS'[[Cream]]'
p35
I33
sS'[[Raspberry Jam]]'
p36
I37
sS'[[Cherry]]'
p37
I84
sS'[[Bread]]'
p38
I7
sS'[[Wheat]]'
p39
I13
sS'[[Casserole]]'
p40
I21
sS'[[Chili Pepper]]'
p41
I22
sS'[[Honey Popcorn]]'
p42
I41
sS'[[Honeycomb]]'
p43
I82
sS'[[Indigo]]'
p44
I28
sS'[[Raspberry]]'
p45
I31
sS'[[Chocolate Cake]]'
p46
I5
sS'[[Spicy Pizza]]'
p47
I69
sS'[[Cacao]]'
p48
I83
sS'[[Woolly Chaps]]'
p49
I2
sS'[[Carrot Cake]]'
p50
I88
sS'[[Egg]]'
p51
I59
sS'[[Strawberry Cake]]'
p52
I14
sS'[[Cherry Juice]]'
p53
I26
sS'[[Fish Burger]]'
p54
I36
sS'[[White Sugar]]'
p55
I25
sS'[[Buttered Popcorn]]'
p56
I72
sS'[[Cream Cake]]'
p57
I18
sS'[[Soybean]]'
p58
I15
sS'[[Apple]]'
p59
I60
sS'[[Blue Woolly Hat]]'
p60
I10
sS'[[Goat Milk]]'
p61
I44
sS'[[Hamburger]]'
p62
I32
sS'[[Cherry Jam]]'
p63
I42
sS"[[Shepherd's Pie]]"
p64
I90
sS'[[Brown Sugar]]'
p65
I77
sS'[[Butter]]'
p66
I80
sS'[[Bacon Pie]]'
p67
I4
sS'[[Strawberry]]'
p68
I48
sS'[[Corn]]'
p69
I87
sS'[[Fish Fillet]]'
p70
I9
sS'[[Chili Popcorn]]'
p71
I57
sS'[[Bacon]]'
p72
I46
sS'[[Cotton Fabric]]'
p73
I16
sS'[[Pumpkin Pie]]'
p74
I74
sS'[[Potato Feta Cake]]'
p75
I67
sS'[[Sugarcane]]'
p76
I50
sS'[[Cookie]]'
p77
I89
sS'[[Apple Juice]]'
p78
I30
sS'[[Pig Feed]]'
p79
I76
sS'[[Cotton]]'
p80
I8
sS'[[Feta Pie]]'
p81
I23
sS'[[Cheese]]'
p82
I29
sS'[[Chocolate Ice Cream]]'
p83
I58
sS'[[Chicken Feed]]'
p84
I56
sS'[[Corn Bread]]'
p85
I71
sS'[[Wool]]'
p86
I1
sS'[[Roasted Tomatoes]]'
p87
I27
sS'[[Berry Juice]]'
p88
I66
sS'[[Sweater]]'
p89
I79
sS'[[Blackberry Muffin]]'
p90
I64
sS'[[Cow Feed]]'
p91
I63
s.(dp0
S'[[Woolly Chaps]]'
p1
I0
sS'[[Egg]]'
p2
I3
sS'[[Wool]]'
p3
I1
sS'[[Bacon]]'
p4
I3
sS'[[Raspberry Jam]]'
p5
I2
sS'[[Bread]]'
p6
I0
s.