(dp0
S'[[Pumpkin]]'
p1
I54
sS'[[Carrot Pie]]'
p2
I55
sS'[[Violet Dress]]'
p3
I9
sS'[[Strawberry Ice Cream]]'
p4
I74
sS'[[Raspberry Muffin]]'
p5
I24
sS'[[Apple Pie]]'
p6
I17
sS'[[Tomato Juice]]'
p7
I25
sS'[[Honey]]'
p8
I29
sS'[[Vanilla Ice Cream]]'
p9
I60
sS'[[Lure]]'
p10
I62
sS'[[Blackberry Jam]]'
p11
I48
sS'[[Tomato]]'
p12
I7
sS'[[Potato]]'
p13
I16
sS'[[Cheesecake]]'
p14
I42
sS'[[Fish Pie]]'
p15
I46
sS'[[Pancake]]'
p16
I44
sS'[[Popcorn]]'
p17
I86
sS'[[Goat Cheese]]'
p18
I30
sS'[[Potato Bread]]'
p19
I33
sS'[[Goat Feed]]'
p20
I19
sS'[[Red Berry Cake]]'
p21
I80
sS'[[Pizza]]'
p22
I4
sS'[[Syrup]]'
p23
I57
sS'[[Sheep Feed]]'
p24
I87
sS'[[Cherry Popsicle]]'
p25
I79
sS'[[Bacon and Eggs]]'
p26
I53
sS'[[Carrot Juice]]'
p27
I34
sS'[[Baked Potato]]'
p28
I18
sS'[[Milk]]'
p29
I71
sS'[[Apple Jam]]'
p30
I23
sS'[[Carrot]]'
p31
I66
sS'[[Blackberry]]'
p32
I65
sS'[[Cotton Shirt]]'
p33
I83
sS'[[Cream]]'
p34
I10
sS'[[Raspberry Jam]]'
p35
I15
sS'[[Cherry]]'
p36
I51
sS'[[Bread]]'
p37
I73
sS'[[Wheat]]'
p38
I75
sS'[[Casserole]]'
p39
I59
sS'[[Chili Pepper]]'
p40
I43
sS'[[Honey Popcorn]]'
p41
I12
sS'[[Honeycomb]]'
p42
I89
sS'[[Indigo]]'
p43
I45
sS'[[Raspberry]]'
p44
I36
sS'[[Chocolate Cake]]'
p45
I35
sS'[[Spicy Pizza]]'
p46
I39
sS'[[Cacao]]'
p47
I3
sS'[[Woolly Chaps]]'
p48
I52
sS'[[Carrot Cake]]'
p49
I26
sS'[[Egg]]'
p50
I11
sS'[[Strawberry Cake]]'
p51
I37
sS'[[Cherry Juice]]'
p52
I90
sS'[[Fish Burger]]'
p53
I21
sS'[[White Sugar]]'
p54
I69
sS'[[Buttered Popcorn]]'
p55
I49
sS'[[Cream Cake]]'
p56
I58
sS'[[Soybean]]'
p57
I20
sS'[[Apple]]'
p58
I50
sS'[[Blue Woolly Hat]]'
p59
I32
sS'[[Goat Milk]]'
p60
I81
sS'[[Hamburger]]'
p61
I47
sS'[[Cherry Jam]]'
p62
I5
sS"[[Shepherd's Pie]]"
p63
I77
sS'[[Brown Sugar]]'
p64
I70
sS'[[Butter]]'
p65
I76
sS'[[Bacon Pie]]'
p66
I22
sS'[[Strawberry]]'
p67
I67
sS'[[Pumpkin Pie]]'
p68
I38
sS'[[Corn]]'
p69
I72
sS'[[Fish Fillet]]'
p70
I61
sS'[[Chili Popcorn]]'
p71
I88
sS'[[Sugarcane]]'
p72
I13
sS'[[Cotton Fabric]]'
p73
I14
sS'[[Blue Sweater]]'
p74
I28
sS'[[Potato Feta Cake]]'
p75
I85
sS'[[Cookie]]'
p76
I63
sS'[[Apple Juice]]'
p77
I82
sS'[[Pig Feed]]'
p78
I8
sS'[[Cotton]]'
p79
I78
sS'[[Feta Pie]]'
p80
I27
sS'[[Cheese]]'
p81
I68
sS'[[Chocolate Ice Cream]]'
p82
I64
sS'[[Bacon]]'
p83
I40
sS'[[Chicken Feed]]'
p84
I1
sS'[[Corn Bread]]'
p85
I6
sS'[[Wool]]'
p86
I31
sS'[[Roasted Tomatoes]]'
p87
I41
sS'[[Berry Juice]]'
p88
I56
sS'[[Sweater]]'
p89
I0
sS'[[Blackberry Muffin]]'
p90
I2
sS'[[Cow Feed]]'
p91
I84
s.(dp0
S'[[Honey Popcorn]]'
p1
I0
sS'[[Chili Pepper]]'
p2
I2
sS'[[Corn Bread]]'
p3
I0
sS'[[Goat Milk]]'
p4
I1
sS'[[Wool]]'
p5
I0
sS'[[Pizza]]'
p6
I0
sS'[[Syrup]]'
p7
I2
s.