(dp0
S'[[Pumpkin]]'
p1
I57
sS'[[Blackberry Jam]]'
p2
I33
sS'[[Violet Dress]]'
p3
I40
sS'[[Strawberry Ice Cream]]'
p4
I0
sS'[[Raspberry Muffin]]'
p5
I39
sS'[[Apple Pie]]'
p6
I3
sS'[[Tomato Juice]]'
p7
I49
sS'[[Honey]]'
p8
I38
sS'[[Vanilla Ice Cream]]'
p9
I13
sS'[[Lure]]'
p10
I26
sS'[[Carrot Pie]]'
p11
I54
sS'[[Tomato]]'
p12
I4
sS'[[Potato]]'
p13
I23
sS'[[Cheesecake]]'
p14
I42
sS'[[Fish Pie]]'
p15
I76
sS'[[Pancake]]'
p16
I7
sS'[[Popcorn]]'
p17
I61
sS'[[Goat Cheese]]'
p18
I25
sS'[[Potato Bread]]'
p19
I37
sS'[[Goat Feed]]'
p20
I51
sS'[[Red Berry Cake]]'
p21
I71
sS'[[Pizza]]'
p22
I62
sS'[[Syrup]]'
p23
I31
sS'[[Sheep Feed]]'
p24
I44
sS'[[Cherry Popsicle]]'
p25
I10
sS'[[Bacon and Eggs]]'
p26
I43
sS'[[Carrot Juice]]'
p27
I68
sS'[[Baked Potato]]'
p28
I21
sS'[[Milk]]'
p29
I15
sS'[[Apple Jam]]'
p30
I81
sS'[[Carrot]]'
p31
I45
sS'[[Blackberry]]'
p32
I84
sS'[[Cotton Shirt]]'
p33
I48
sS'[[Cream]]'
p34
I85
sS'[[Raspberry Jam]]'
p35
I55
sS'[[Cherry]]'
p36
I63
sS'[[Bread]]'
p37
I86
sS'[[Wheat]]'
p38
I1
sS'[[Casserole]]'
p39
I18
sS'[[Strawberry]]'
p40
I17
sS'[[Honey Popcorn]]'
p41
I41
sS'[[Honeycomb]]'
p42
I53
sS'[[Indigo]]'
p43
I89
sS'[[Raspberry]]'
p44
I50
sS'[[Chocolate Cake]]'
p45
I82
sS'[[Spicy Pizza]]'
p46
I52
sS'[[Cacao]]'
p47
I79
sS'[[Woolly Chaps]]'
p48
I16
sS'[[Carrot Cake]]'
p49
I64
sS'[[Egg]]'
p50
I12
sS'[[Strawberry Cake]]'
p51
I22
sS'[[Cherry Juice]]'
p52
I5
sS'[[Fish Burger]]'
p53
I60
sS'[[White Sugar]]'
p54
I35
sS'[[Buttered Popcorn]]'
p55
I72
sS'[[Cream Cake]]'
p56
I80
sS'[[Soybean]]'
p57
I75
sS'[[Apple]]'
p58
I56
sS'[[Blue Woolly Hat]]'
p59
I19
sS'[[Goat Milk]]'
p60
I34
sS'[[Hamburger]]'
p61
I46
sS'[[Cherry Jam]]'
p62
I59
sS"[[Shepherd's Pie]]"
p63
I74
sS'[[Brown Sugar]]'
p64
I20
sS'[[Butter]]'
p65
I24
sS'[[Bacon Pie]]'
p66
I69
sS'[[Chili Pepper]]'
p67
I6
sS'[[Pumpkin Pie]]'
p68
I73
sS'[[Corn]]'
p69
I32
sS'[[Fish Fillet]]'
p70
I66
sS'[[Chili Popcorn]]'
p71
I28
sS'[[Bacon]]'
p72
I11
sS'[[Cotton Fabric]]'
p73
I87
sS'[[Blue Sweater]]'
p74
I2
sS'[[Potato Feta Cake]]'
p75
I77
sS'[[Sugarcane]]'
p76
I47
sS'[[Cookie]]'
p77
I67
sS'[[Apple Juice]]'
p78
I30
sS'[[Pig Feed]]'
p79
I8
sS'[[Cotton]]'
p80
I36
sS'[[Feta Pie]]'
p81
I58
sS'[[Cheese]]'
p82
I70
sS'[[Chocolate Ice Cream]]'
p83
I27
sS'[[Chicken Feed]]'
p84
I14
sS'[[Corn Bread]]'
p85
I9
sS'[[Wool]]'
p86
I88
sS'[[Roasted Tomatoes]]'
p87
I65
sS'[[Berry Juice]]'
p88
I90
sS'[[Sweater]]'
p89
I78
sS'[[Blackberry Muffin]]'
p90
I29
sS'[[Cow Feed]]'
p91
I83
s.(dp0
S'[[Apple]]'
p1
I5
sS'[[Corn Bread]]'
p2
I0
sS'[[Indigo]]'
p3
I1
sS'[[Pancake]]'
p4
I1
sS'[[Wool]]'
p5
I1
sS'[[Bacon]]'
p6
I3
s.