(dp0
S'[[Pumpkin]]'
p1
I15
sS'[[Blackberry Jam]]'
p2
I89
sS'[[Violet Dress]]'
p3
I85
sS'[[Strawberry Ice Cream]]'
p4
I59
sS'[[Raspberry Muffin]]'
p5
I9
sS'[[Apple Pie]]'
p6
I6
sS'[[Tomato Juice]]'
p7
I52
sS'[[Blue Sweater]]'
p8
I49
sS'[[Honey]]'
p9
I26
sS'[[Vanilla Ice Cream]]'
p10
I34
sS'[[Lure]]'
p11
I62
sS'[[Carrot Pie]]'
p12
I56
sS'[[Tomato]]'
p13
I65
sS'[[Potato]]'
p14
I57
sS'[[Cheesecake]]'
p15
I13
sS'[[Fish Pie]]'
p16
I10
sS'[[Pancake]]'
p17
I79
sS'[[Popcorn]]'
p18
I71
sS'[[Goat Cheese]]'
p19
I5
sS'[[Potato Bread]]'
p20
I73
sS'[[Goat Feed]]'
p21
I88
sS'[[Red Berry Cake]]'
p22
I20
sS'[[Pizza]]'
p23
I1
sS'[[Syrup]]'
p24
I22
sS'[[Sheep Feed]]'
p25
I74
sS'[[Cherry Popsicle]]'
p26
I70
sS'[[Bacon and Eggs]]'
p27
I39
sS'[[Carrot Juice]]'
p28
I4
sS'[[Baked Potato]]'
p29
I18
sS'[[Milk]]'
p30
I86
sS'[[Apple Jam]]'
p31
I11
sS'[[Carrot]]'
p32
I61
sS'[[Blackberry]]'
p33
I37
sS'[[Cotton Shirt]]'
p34
I48
sS'[[Cream]]'
p35
I30
sS'[[Raspberry Jam]]'
p36
I77
sS'[[Cherry]]'
p37
I40
sS'[[Bread]]'
p38
I51
sS'[[Wheat]]'
p39
I8
sS'[[Casserole]]'
p40
I31
sS'[[Chili Pepper]]'
p41
I82
sS'[[Honey Popcorn]]'
p42
I41
sS'[[Honeycomb]]'
p43
I19
sS'[[Indigo]]'
p44
I58
sS'[[Raspberry]]'
p45
I38
sS'[[Chocolate Cake]]'
p46
I35
sS'[[Spicy Pizza]]'
p47
I36
sS'[[Cacao]]'
p48
I53
sS'[[Woolly Chaps]]'
p49
I81
sS'[[Carrot Cake]]'
p50
I69
sS'[[Egg]]'
p51
I68
sS'[[Strawberry Cake]]'
p52
I72
sS'[[Cherry Juice]]'
p53
I76
sS'[[Fish Burger]]'
p54
I47
sS'[[White Sugar]]'
p55
I55
sS'[[Buttered Popcorn]]'
p56
I83
sS'[[Cream Cake]]'
p57
I28
sS'[[Soybean]]'
p58
I50
sS'[[Apple]]'
p59
I84
sS'[[Blue Woolly Hat]]'
p60
I80
sS'[[Goat Milk]]'
p61
I23
sS'[[Hamburger]]'
p62
I63
sS'[[Cherry Jam]]'
p63
I27
sS"[[Shepherd's Pie]]"
p64
I0
sS'[[Brown Sugar]]'
p65
I43
sS'[[Butter]]'
p66
I44
sS'[[Bacon Pie]]'
p67
I33
sS'[[Strawberry]]'
p68
I3
sS'[[Corn]]'
p69
I67
sS'[[Fish Fillet]]'
p70
I87
sS'[[Chili Popcorn]]'
p71
I54
sS'[[Bacon]]'
p72
I60
sS'[[Cotton Fabric]]'
p73
I25
sS'[[Pumpkin Pie]]'
p74
I24
sS'[[Potato Feta Cake]]'
p75
I75
sS'[[Sugarcane]]'
p76
I64
sS'[[Cookie]]'
p77
I21
sS'[[Apple Juice]]'
p78
I29
sS'[[Pig Feed]]'
p79
I32
sS'[[Cotton]]'
p80
I66
sS'[[Feta Pie]]'
p81
I2
sS'[[Cheese]]'
p82
I16
sS'[[Chocolate Ice Cream]]'
p83
I90
sS'[[Chicken Feed]]'
p84
I42
sS'[[Corn Bread]]'
p85
I46
sS'[[Wool]]'
p86
I7
sS'[[Roasted Tomatoes]]'
p87
I17
sS'[[Berry Juice]]'
p88
I12
sS'[[Sweater]]'
p89
I78
sS'[[Blackberry Muffin]]'
p90
I45
sS'[[Cow Feed]]'
p91
I14
s.(dp0
S'[[Pig Feed]]'
p1
I3
sS'[[Honey Popcorn]]'
p2
I3
sS'[[Strawberry Ice Cream]]'
p3
I3
sS'[[Potato]]'
p4
I1
sS'[[Fish Pie]]'
p5
I1
sS'[[Sugarcane]]'
p6
I5
sS'[[Milk]]'
p7
I3
sS'[[Apple Jam]]'
p8
I2
sS'[[Cotton Fabric]]'
p9
I3
sS'[[Cow Feed]]'
p10
I2
sS"[[Shepherd's Pie]]"
p11
I0
s.