(dp0
S'[[Pumpkin]]'
p1
I60
sS'[[Blackberry Jam]]'
p2
I21
sS'[[Violet Dress]]'
p3
I25
sS'[[Strawberry Ice Cream]]'
p4
I72
sS'[[Raspberry Muffin]]'
p5
I58
sS'[[Apple Pie]]'
p6
I18
sS'[[Tomato Juice]]'
p7
I87
sS'[[Blue Sweater]]'
p8
I83
sS'[[Carrot Cake]]'
p9
I33
sS'[[Vanilla Ice Cream]]'
p10
I11
sS'[[Lure]]'
p11
I31
sS'[[Carrot Pie]]'
p12
I27
sS'[[Tomato]]'
p13
I81
sS'[[Cherry Juice]]'
p14
I17
sS'[[Cheesecake]]'
p15
I84
sS'[[Fish Pie]]'
p16
I41
sS'[[Pancake]]'
p17
I20
sS'[[Popcorn]]'
p18
I78
sS'[[Goat Cheese]]'
p19
I37
sS'[[Potato Bread]]'
p20
I69
sS'[[Goat Feed]]'
p21
I76
sS'[[Red Berry Cake]]'
p22
I80
sS'[[Pizza]]'
p23
I54
sS'[[Syrup]]'
p24
I44
sS'[[Sheep Feed]]'
p25
I49
sS'[[Cherry Popsicle]]'
p26
I62
sS'[[Bacon and Eggs]]'
p27
I46
sS'[[Carrot]]'
p28
I32
sS'[[Carrot Juice]]'
p29
I7
sS'[[Baked Potato]]'
p30
I5
sS'[[Milk]]'
p31
I19
sS'[[Apple Jam]]'
p32
I52
sS'[[Apple]]'
p33
I56
sS'[[Blackberry]]'
p34
I4
sS'[[Cotton Shirt]]'
p35
I35
sS'[[Cream]]'
p36
I23
sS'[[Raspberry Jam]]'
p37
I53
sS'[[Cherry]]'
p38
I65
sS'[[Bread]]'
p39
I42
sS'[[Wheat]]'
p40
I64
sS'[[Casserole]]'
p41
I57
sS'[[Chili Pepper]]'
p42
I73
sS'[[Honey Popcorn]]'
p43
I47
sS'[[Honeycomb]]'
p44
I45
sS'[[Indigo]]'
p45
I88
sS'[[Raspberry]]'
p46
I48
sS'[[Chocolate Cake]]'
p47
I85
sS'[[Spicy Pizza]]'
p48
I66
sS'[[Cacao]]'
p49
I74
sS'[[Woolly Chaps]]'
p50
I38
sS'[[Honey]]'
p51
I63
sS'[[Egg]]'
p52
I79
sS'[[Strawberry Cake]]'
p53
I30
sS'[[Potato]]'
p54
I68
sS'[[Fish Burger]]'
p55
I67
sS'[[White Sugar]]'
p56
I70
sS'[[Buttered Popcorn]]'
p57
I50
sS'[[Cream Cake]]'
p58
I16
sS'[[Soybean]]'
p59
I3
sS'[[Brown Sugar]]'
p60
I6
sS'[[Blue Woolly Hat]]'
p61
I36
sS'[[Goat Milk]]'
p62
I12
sS'[[Hamburger]]'
p63
I55
sS'[[Cherry Jam]]'
p64
I13
sS"[[Shepherd's Pie]]"
p65
I39
sS'[[Butter]]'
p66
I15
sS'[[Bacon Pie]]'
p67
I29
sS'[[Strawberry]]'
p68
I51
sS'[[Corn]]'
p69
I61
sS'[[Fish Fillet]]'
p70
I22
sS'[[Chili Popcorn]]'
p71
I10
sS'[[Bacon]]'
p72
I24
sS'[[Cotton Fabric]]'
p73
I82
sS'[[Pumpkin Pie]]'
p74
I86
sS'[[Potato Feta Cake]]'
p75
I0
sS'[[Sugarcane]]'
p76
I90
sS'[[Cookie]]'
p77
I1
sS'[[Apple Juice]]'
p78
I59
sS'[[Pig Feed]]'
p79
I77
sS'[[Cotton]]'
p80
I28
sS'[[Feta Pie]]'
p81
I14
sS'[[Cheese]]'
p82
I9
sS'[[Chocolate Ice Cream]]'
p83
I8
sS'[[Chicken Feed]]'
p84
I34
sS'[[Corn Bread]]'
p85
I71
sS'[[Wool]]'
p86
I43
sS'[[Roasted Tomatoes]]'
p87
I26
sS'[[Berry Juice]]'
p88
I75
sS'[[Sweater]]'
p89
I40
sS'[[Blackberry Muffin]]'
p90
I2
sS'[[Cow Feed]]'
p91
I89
s.(dp0
S'[[Sheep Feed]]'
p1
I4
sS'[[Cotton]]'
p2
I2
sS'[[Popcorn]]'
p3
I5
sS'[[Fish Fillet]]'
p4
I4
sS'[[Red Berry Cake]]'
p5
I4
sS'[[Bacon and Eggs]]'
p6
I1
sS'[[Potato]]'
p7
I0
sS'[[Fish Pie]]'
p8
I1
sS'[[Baked Potato]]'
p9
I4
sS'[[Blackberry Muffin]]'
p10
I2
sS'[[Cream]]'
p11
I4
s.