(dp0
S'[[Pumpkin]]'
p1
I55
sS'[[Blackberry Jam]]'
p2
I90
sS'[[Violet Dress]]'
p3
I18
sS'[[Strawberry Ice Cream]]'
p4
I8
sS'[[Raspberry Muffin]]'
p5
I41
sS'[[Apple Pie]]'
p6
I23
sS'[[Tomato Juice]]'
p7
I13
sS'[[Carrot Cake]]'
p8
I26
sS'[[Vanilla Ice Cream]]'
p9
I44
sS'[[Lure]]'
p10
I66
sS'[[Carrot Pie]]'
p11
I40
sS'[[Tomato]]'
p12
I85
sS'[[Cherry Juice]]'
p13
I54
sS'[[Cheesecake]]'
p14
I50
sS'[[Fish Pie]]'
p15
I72
sS'[[Pancake]]'
p16
I61
sS'[[Popcorn]]'
p17
I56
sS'[[Goat Cheese]]'
p18
I29
sS'[[Potato Bread]]'
p19
I62
sS'[[Goat Feed]]'
p20
I14
sS'[[Red Berry Cake]]'
p21
I82
sS'[[Pizza]]'
p22
I79
sS'[[Syrup]]'
p23
I24
sS'[[Sheep Feed]]'
p24
I15
sS'[[Cherry Popsicle]]'
p25
I39
sS'[[Bacon and Eggs]]'
p26
I68
sS'[[Carrot]]'
p27
I21
sS'[[Carrot Juice]]'
p28
I37
sS'[[Baked Potato]]'
p29
I11
sS'[[Milk]]'
p30
I58
sS'[[Apple Jam]]'
p31
I2
sS'[[Apple]]'
p32
I33
sS'[[Blackberry]]'
p33
I45
sS'[[Cotton Shirt]]'
p34
I42
sS'[[Cream]]'
p35
I52
sS'[[Raspberry Jam]]'
p36
I53
sS'[[Cherry]]'
p37
I25
sS'[[Bread]]'
p38
I43
sS'[[Wheat]]'
p39
I1
sS'[[Casserole]]'
p40
I27
sS'[[Strawberry]]'
p41
I49
sS'[[Honey Popcorn]]'
p42
I5
sS'[[Honeycomb]]'
p43
I78
sS'[[Indigo]]'
p44
I7
sS'[[Raspberry]]'
p45
I31
sS'[[Chocolate Cake]]'
p46
I4
sS'[[Spicy Pizza]]'
p47
I74
sS'[[Cacao]]'
p48
I87
sS'[[Woolly Chaps]]'
p49
I71
sS'[[Honey]]'
p50
I69
sS'[[Egg]]'
p51
I65
sS'[[Strawberry Cake]]'
p52
I10
sS'[[Potato]]'
p53
I35
sS'[[Fish Burger]]'
p54
I51
sS'[[White Sugar]]'
p55
I75
sS'[[Buttered Popcorn]]'
p56
I9
sS'[[Cream Cake]]'
p57
I3
sS'[[Soybean]]'
p58
I20
sS'[[Brown Sugar]]'
p59
I73
sS'[[Blue Woolly Hat]]'
p60
I38
sS'[[Goat Milk]]'
p61
I12
sS'[[Hamburger]]'
p62
I64
sS'[[Cherry Jam]]'
p63
I6
sS"[[Shepherd's Pie]]"
p64
I81
sS'[[Butter]]'
p65
I80
sS'[[Bacon Pie]]'
p66
I0
sS'[[Chili Pepper]]'
p67
I57
sS'[[Pumpkin Pie]]'
p68
I70
sS'[[Corn]]'
p69
I17
sS'[[Fish Fillet]]'
p70
I22
sS'[[Chili Popcorn]]'
p71
I16
sS'[[Bacon]]'
p72
I84
sS'[[Cotton Fabric]]'
p73
I88
sS'[[Blue Sweater]]'
p74
I76
sS'[[Potato Feta Cake]]'
p75
I89
sS'[[Sugarcane]]'
p76
I59
sS'[[Cookie]]'
p77
I36
sS'[[Apple Juice]]'
p78
I63
sS'[[Pig Feed]]'
p79
I48
sS'[[Cotton]]'
p80
I34
sS'[[Feta Pie]]'
p81
I83
sS'[[Cheese]]'
p82
I47
sS'[[Chocolate Ice Cream]]'
p83
I46
sS'[[Chicken Feed]]'
p84
I77
sS'[[Corn Bread]]'
p85
I30
sS'[[Wool]]'
p86
I28
sS'[[Roasted Tomatoes]]'
p87
I60
sS'[[Berry Juice]]'
p88
I67
sS'[[Sweater]]'
p89
I86
sS'[[Blackberry Muffin]]'
p90
I19
sS'[[Cow Feed]]'
p91
I32
s.(dp0
S'[[Pumpkin Pie]]'
p1
I3
sS'[[Corn]]'
p2
I4
sS'[[Chili Pepper]]'
p3
I2
sS'[[Feta Pie]]'
p4
I0
sS'[[Blue Woolly Hat]]'
p5
I1
sS'[[Fish Pie]]'
p6
I4
sS'[[Carrot Juice]]'
p7
I3
sS'[[Cheese]]'
p8
I0
sS'[[Cow Feed]]'
p9
I3
s.