(dp0
S'[[Pumpkin]]'
p1
I9
sS'[[Blackberry Jam]]'
p2
I31
sS'[[Violet Dress]]'
p3
I50
sS'[[Strawberry Ice Cream]]'
p4
I33
sS'[[Raspberry Muffin]]'
p5
I15
sS'[[Apple Pie]]'
p6
I81
sS'[[Tomato Juice]]'
p7
I34
sS'[[Honey]]'
p8
I26
sS'[[Vanilla Ice Cream]]'
p9
I68
sS'[[Lure]]'
p10
I80
sS'[[Carrot Pie]]'
p11
I62
sS'[[Tomato]]'
p12
I24
sS'[[Potato]]'
p13
I66
sS'[[Cheesecake]]'
p14
I4
sS'[[Fish Pie]]'
p15
I46
sS'[[Pancake]]'
p16
I56
sS'[[Popcorn]]'
p17
I51
sS'[[Goat Cheese]]'
p18
I36
sS'[[Potato Bread]]'
p19
I21
sS'[[Goat Feed]]'
p20
I18
sS'[[Red Berry Cake]]'
p21
I63
sS'[[Pizza]]'
p22
I6
sS'[[Syrup]]'
p23
I65
sS'[[Sheep Feed]]'
p24
I22
sS'[[Cherry Popsicle]]'
p25
I12
sS'[[Bacon and Eggs]]'
p26
I87
sS'[[Carrot Juice]]'
p27
I77
sS'[[Baked Potato]]'
p28
I3
sS'[[Milk]]'
p29
I29
sS'[[Apple Jam]]'
p30
I47
sS'[[Carrot]]'
p31
I39
sS'[[Blackberry]]'
p32
I79
sS'[[Cotton Shirt]]'
p33
I20
sS'[[Cream]]'
p34
I60
sS'[[Raspberry Jam]]'
p35
I10
sS'[[Cherry]]'
p36
I83
sS'[[Bread]]'
p37
I61
sS'[[Wheat]]'
p38
I44
sS'[[Casserole]]'
p39
I67
sS'[[Strawberry]]'
p40
I78
sS'[[Honey Popcorn]]'
p41
I73
sS'[[Honeycomb]]'
p42
I49
sS'[[Indigo]]'
p43
I71
sS'[[Raspberry]]'
p44
I17
sS'[[Chocolate Cake]]'
p45
I11
sS'[[Spicy Pizza]]'
p46
I54
sS'[[Cacao]]'
p47
I42
sS'[[Woolly Chaps]]'
p48
I72
sS'[[Carrot Cake]]'
p49
I84
sS'[[Egg]]'
p50
I53
sS'[[Strawberry Cake]]'
p51
I37
sS'[[Cherry Juice]]'
p52
I28
sS'[[Fish Burger]]'
p53
I70
sS'[[White Sugar]]'
p54
I69
sS'[[Buttered Popcorn]]'
p55
I0
sS'[[Cream Cake]]'
p56
I1
sS'[[Soybean]]'
p57
I19
sS'[[Apple]]'
p58
I41
sS'[[Blue Woolly Hat]]'
p59
I35
sS'[[Goat Milk]]'
p60
I14
sS'[[Hamburger]]'
p61
I2
sS'[[Cherry Jam]]'
p62
I82
sS"[[Shepherd's Pie]]"
p63
I55
sS'[[Brown Sugar]]'
p64
I13
sS'[[Butter]]'
p65
I86
sS'[[Bacon Pie]]'
p66
I57
sS'[[Chili Pepper]]'
p67
I40
sS'[[Pumpkin Pie]]'
p68
I7
sS'[[Corn]]'
p69
I45
sS'[[Fish Fillet]]'
p70
I90
sS'[[Chili Popcorn]]'
p71
I76
sS'[[Bacon]]'
p72
I64
sS'[[Cotton Fabric]]'
p73
I30
sS'[[Blue Sweater]]'
p74
I58
sS'[[Potato Feta Cake]]'
p75
I52
sS'[[Sugarcane]]'
p76
I25
sS'[[Cookie]]'
p77
I43
sS'[[Apple Juice]]'
p78
I48
sS'[[Pig Feed]]'
p79
I75
sS'[[Cotton]]'
p80
I8
sS'[[Feta Pie]]'
p81
I59
sS'[[Cheese]]'
p82
I88
sS'[[Chocolate Ice Cream]]'
p83
I74
sS'[[Chicken Feed]]'
p84
I27
sS'[[Corn Bread]]'
p85
I16
sS'[[Wool]]'
p86
I38
sS'[[Roasted Tomatoes]]'
p87
I5
sS'[[Berry Juice]]'
p88
I23
sS'[[Sweater]]'
p89
I85
sS'[[Blackberry Muffin]]'
p90
I89
sS'[[Cow Feed]]'
p91
I32
s.(dp0
S'[[Tomato]]'
p1
I5
sS'[[Corn]]'
p2
I0
sS'[[Potato Feta Cake]]'
p3
I1
sS'[[Strawberry Ice Cream]]'
p4
I2
sS'[[Cacao]]'
p5
I5
sS'[[Corn Bread]]'
p6
I3
sS'[[Pumpkin]]'
p7
I5
sS'[[Cookie]]'
p8
I5
sS'[[White Sugar]]'
p9
I0
sS'[[Sugarcane]]'
p10
I4
sS'[[Lure]]'
p11
I2
s.