(dp0
S'[[Pumpkin]]'
p1
I89
sS'[[Blackberry Jam]]'
p2
I29
sS'[[Violet Dress]]'
p3
I25
sS'[[Strawberry Ice Cream]]'
p4
I82
sS'[[Raspberry Muffin]]'
p5
I11
sS'[[Apple Pie]]'
p6
I54
sS'[[Tomato Juice]]'
p7
I45
sS'[[Blue Sweater]]'
p8
I39
sS'[[Honey]]'
p9
I63
sS'[[Vanilla Ice Cream]]'
p10
I7
sS'[[Lure]]'
p11
I87
sS'[[Carrot Pie]]'
p12
I34
sS'[[Tomato]]'
p13
I2
sS'[[Potato]]'
p14
I61
sS'[[Cheesecake]]'
p15
I1
sS'[[Fish Pie]]'
p16
I73
sS'[[Pancake]]'
p17
I85
sS'[[Popcorn]]'
p18
I77
sS'[[Goat Cheese]]'
p19
I83
sS'[[Potato Bread]]'
p20
I62
sS'[[Goat Feed]]'
p21
I14
sS'[[Red Berry Cake]]'
p22
I35
sS'[[Pizza]]'
p23
I26
sS'[[Syrup]]'
p24
I47
sS'[[Sheep Feed]]'
p25
I38
sS'[[Cherry Popsicle]]'
p26
I8
sS'[[Bacon and Eggs]]'
p27
I28
sS'[[Carrot]]'
p28
I21
sS'[[Carrot Juice]]'
p29
I32
sS'[[Baked Potato]]'
p30
I18
sS'[[Milk]]'
p31
I64
sS'[[Apple Jam]]'
p32
I31
sS'[[Apple]]'
p33
I22
sS'[[Blackberry]]'
p34
I50
sS'[[Cotton Shirt]]'
p35
I70
sS'[[Cream]]'
p36
I79
sS'[[Raspberry Jam]]'
p37
I53
sS'[[Cherry]]'
p38
I56
sS'[[Bread]]'
p39
I30
sS'[[Wheat]]'
p40
I72
sS'[[Casserole]]'
p41
I6
sS'[[Strawberry]]'
p42
I60
sS'[[Honey Popcorn]]'
p43
I86
sS'[[Honeycomb]]'
p44
I51
sS'[[Indigo]]'
p45
I43
sS'[[Raspberry]]'
p46
I84
sS'[[Chocolate Cake]]'
p47
I13
sS'[[Spicy Pizza]]'
p48
I41
sS'[[Cacao]]'
p49
I90
sS'[[Woolly Chaps]]'
p50
I46
sS'[[Carrot Cake]]'
p51
I52
sS'[[Egg]]'
p52
I66
sS'[[Strawberry Cake]]'
p53
I42
sS'[[Cherry Juice]]'
p54
I78
sS'[[Fish Burger]]'
p55
I75
sS'[[White Sugar]]'
p56
I74
sS'[[Buttered Popcorn]]'
p57
I33
sS'[[Cream Cake]]'
p58
I15
sS'[[Soybean]]'
p59
I69
sS'[[Brown Sugar]]'
p60
I49
sS'[[Blue Woolly Hat]]'
p61
I57
sS'[[Goat Milk]]'
p62
I58
sS'[[Hamburger]]'
p63
I76
sS'[[Cherry Jam]]'
p64
I88
sS"[[Shepherd's Pie]]"
p65
I17
sS'[[Butter]]'
p66
I44
sS'[[Bacon Pie]]'
p67
I48
sS'[[Chili Pepper]]'
p68
I71
sS'[[Corn]]'
p69
I65
sS'[[Fish Fillet]]'
p70
I67
sS'[[Chili Popcorn]]'
p71
I80
sS'[[Bacon]]'
p72
I3
sS'[[Cotton Fabric]]'
p73
I81
sS'[[Pumpkin Pie]]'
p74
I20
sS'[[Potato Feta Cake]]'
p75
I68
sS'[[Sugarcane]]'
p76
I12
sS'[[Cookie]]'
p77
I4
sS'[[Apple Juice]]'
p78
I55
sS'[[Pig Feed]]'
p79
I16
sS'[[Cotton]]'
p80
I19
sS'[[Feta Pie]]'
p81
I10
sS'[[Cheese]]'
p82
I27
sS'[[Chocolate Ice Cream]]'
p83
I0
sS'[[Chicken Feed]]'
p84
I23
sS'[[Corn Bread]]'
p85
I59
sS'[[Wool]]'
p86
I5
sS'[[Roasted Tomatoes]]'
p87
I36
sS'[[Berry Juice]]'
p88
I40
sS'[[Sweater]]'
p89
I24
sS'[[Blackberry Muffin]]'
p90
I37
sS'[[Cow Feed]]'
p91
I9
s.(dp0
S'[[Feta Pie]]'
p1
I1
sS'[[Bacon and Eggs]]'
p2
I0
sS'[[Egg]]'
p3
I4
sS'[[Cotton Shirt]]'
p4
I0
sS'[[Baked Potato]]'
p5
I4
sS'[[Honeycomb]]'
p6
I3
sS'[[Raspberry]]'
p7
I0
sS'[[Sugarcane]]'
p8
I4
sS'[[Raspberry Jam]]'
p9
I2
sS'[[Chocolate Cake]]'
p10
I4
sS'[[Soybean]]'
p11
I2
s.