(dp0
S'[[Pumpkin]]'
p1
I24
sS'[[Blackberry Jam]]'
p2
I68
sS'[[Violet Dress]]'
p3
I72
sS'[[Strawberry Ice Cream]]'
p4
I20
sS'[[Raspberry Muffin]]'
p5
I48
sS'[[Apple Pie]]'
p6
I79
sS'[[Tomato Juice]]'
p7
I86
sS'[[Carrot Cake]]'
p8
I55
sS'[[Vanilla Ice Cream]]'
p9
I62
sS'[[Lure]]'
p10
I33
sS'[[Carrot Pie]]'
p11
I39
sS'[[Tomato]]'
p12
I3
sS'[[Cherry Juice]]'
p13
I32
sS'[[Cheesecake]]'
p14
I41
sS'[[Fish Pie]]'
p15
I4
sS'[[Pancake]]'
p16
I17
sS'[[Popcorn]]'
p17
I22
sS'[[Goat Cheese]]'
p18
I31
sS'[[Potato Bread]]'
p19
I11
sS'[[Goat Feed]]'
p20
I45
sS'[[Red Berry Cake]]'
p21
I71
sS'[[Pizza]]'
p22
I51
sS'[[Syrup]]'
p23
I12
sS'[[Sheep Feed]]'
p24
I18
sS'[[Cherry Popsicle]]'
p25
I8
sS'[[Bacon and Eggs]]'
p26
I2
sS'[[Carrot Juice]]'
p27
I82
sS'[[Baked Potato]]'
p28
I9
sS'[[Milk]]'
p29
I52
sS'[[Apple Jam]]'
p30
I87
sS'[[Carrot]]'
p31
I0
sS'[[Blackberry]]'
p32
I29
sS'[[Cotton Shirt]]'
p33
I58
sS'[[Cream]]'
p34
I47
sS'[[Raspberry Jam]]'
p35
I73
sS'[[Cherry]]'
p36
I70
sS'[[Bread]]'
p37
I28
sS'[[Wheat]]'
p38
I10
sS'[[Casserole]]'
p39
I14
sS'[[Chili Pepper]]'
p40
I16
sS'[[Honey Popcorn]]'
p41
I80
sS'[[Honeycomb]]'
p42
I6
sS'[[Indigo]]'
p43
I36
sS'[[Raspberry]]'
p44
I40
sS'[[Chocolate Cake]]'
p45
I34
sS'[[Spicy Pizza]]'
p46
I44
sS'[[Cacao]]'
p47
I60
sS'[[Woolly Chaps]]'
p48
I37
sS'[[Honey]]'
p49
I53
sS'[[Egg]]'
p50
I43
sS'[[Strawberry Cake]]'
p51
I35
sS'[[Potato]]'
p52
I49
sS'[[Fish Burger]]'
p53
I54
sS'[[White Sugar]]'
p54
I65
sS'[[Buttered Popcorn]]'
p55
I66
sS'[[Cream Cake]]'
p56
I77
sS'[[Soybean]]'
p57
I26
sS'[[Apple]]'
p58
I38
sS'[[Blue Woolly Hat]]'
p59
I59
sS'[[Goat Milk]]'
p60
I83
sS'[[Hamburger]]'
p61
I21
sS'[[Cherry Jam]]'
p62
I74
sS"[[Shepherd's Pie]]"
p63
I90
sS'[[Brown Sugar]]'
p64
I76
sS'[[Butter]]'
p65
I19
sS'[[Bacon Pie]]'
p66
I5
sS'[[Strawberry]]'
p67
I67
sS'[[Pumpkin Pie]]'
p68
I84
sS'[[Corn]]'
p69
I27
sS'[[Fish Fillet]]'
p70
I56
sS'[[Chili Popcorn]]'
p71
I81
sS'[[Bacon]]'
p72
I1
sS'[[Cotton Fabric]]'
p73
I7
sS'[[Blue Sweater]]'
p74
I64
sS'[[Potato Feta Cake]]'
p75
I46
sS'[[Sugarcane]]'
p76
I15
sS'[[Cookie]]'
p77
I78
sS'[[Apple Juice]]'
p78
I61
sS'[[Pig Feed]]'
p79
I13
sS'[[Cotton]]'
p80
I25
sS'[[Feta Pie]]'
p81
I30
sS'[[Cheese]]'
p82
I42
sS'[[Chocolate Ice Cream]]'
p83
I57
sS'[[Chicken Feed]]'
p84
I23
sS'[[Corn Bread]]'
p85
I69
sS'[[Wool]]'
p86
I85
sS'[[Roasted Tomatoes]]'
p87
I88
sS'[[Berry Juice]]'
p88
I75
sS'[[Sweater]]'
p89
I89
sS'[[Blackberry Muffin]]'
p90
I50
sS'[[Cow Feed]]'
p91
I63
s.(dp0
S'[[Apple]]'
p1
I1
sS'[[Woolly Chaps]]'
p2
I0
sS'[[Hamburger]]'
p3
I1
sS'[[Butter]]'
p4
I2
sS'[[Bacon]]'
p5
I0
sS'[[Sweater]]'
p6
I0
sS'[[Indigo]]'
p7
I1
s.