(dp0
S'[[Pumpkin]]'
p1
I81
sS'[[Blackberry Jam]]'
p2
I82
sS'[[Violet Dress]]'
p3
I3
sS'[[Strawberry Ice Cream]]'
p4
I30
sS'[[Raspberry Muffin]]'
p5
I38
sS'[[Apple Pie]]'
p6
I69
sS'[[Tomato Juice]]'
p7
I53
sS'[[Blue Sweater]]'
p8
I47
sS'[[Honey]]'
p9
I75
sS'[[Vanilla Ice Cream]]'
p10
I42
sS'[[Lure]]'
p11
I67
sS'[[Carrot Pie]]'
p12
I55
sS'[[Tomato]]'
p13
I63
sS'[[Potato]]'
p14
I65
sS'[[Cheesecake]]'
p15
I13
sS'[[Fish Pie]]'
p16
I2
sS'[[Pancake]]'
p17
I88
sS'[[Popcorn]]'
p18
I11
sS'[[Goat Cheese]]'
p19
I84
sS'[[Potato Bread]]'
p20
I23
sS'[[Goat Feed]]'
p21
I29
sS'[[Red Berry Cake]]'
p22
I45
sS'[[Pizza]]'
p23
I1
sS'[[Syrup]]'
p24
I28
sS'[[Sheep Feed]]'
p25
I36
sS'[[Cherry Popsicle]]'
p26
I40
sS'[[Bacon and Eggs]]'
p27
I66
sS'[[Carrot]]'
p28
I35
sS'[[Carrot Juice]]'
p29
I5
sS'[[Baked Potato]]'
p30
I32
sS'[[Milk]]'
p31
I86
sS'[[Apple Jam]]'
p32
I4
sS'[[Apple]]'
p33
I14
sS'[[Blackberry]]'
p34
I90
sS'[[Cotton Shirt]]'
p35
I12
sS'[[Cream]]'
p36
I79
sS'[[Raspberry Jam]]'
p37
I9
sS'[[Cherry]]'
p38
I73
sS'[[Bread]]'
p39
I25
sS'[[Wheat]]'
p40
I78
sS'[[Casserole]]'
p41
I57
sS'[[Strawberry]]'
p42
I20
sS'[[Honey Popcorn]]'
p43
I60
sS'[[Honeycomb]]'
p44
I31
sS'[[Indigo]]'
p45
I43
sS'[[Raspberry]]'
p46
I70
sS'[[Chocolate Cake]]'
p47
I19
sS'[[Spicy Pizza]]'
p48
I37
sS'[[Cacao]]'
p49
I59
sS'[[Woolly Chaps]]'
p50
I62
sS'[[Carrot Cake]]'
p51
I58
sS'[[Egg]]'
p52
I21
sS'[[Strawberry Cake]]'
p53
I48
sS'[[Cherry Juice]]'
p54
I87
sS'[[Fish Burger]]'
p55
I8
sS'[[White Sugar]]'
p56
I10
sS'[[Buttered Popcorn]]'
p57
I7
sS'[[Cream Cake]]'
p58
I24
sS'[[Soybean]]'
p59
I80
sS'[[Brown Sugar]]'
p60
I52
sS'[[Blue Woolly Hat]]'
p61
I51
sS'[[Goat Milk]]'
p62
I6
sS'[[Hamburger]]'
p63
I26
sS'[[Cherry Jam]]'
p64
I54
sS"[[Shepherd's Pie]]"
p65
I44
sS'[[Butter]]'
p66
I34
sS'[[Bacon Pie]]'
p67
I41
sS'[[Chili Pepper]]'
p68
I50
sS'[[Corn]]'
p69
I68
sS'[[Fish Fillet]]'
p70
I71
sS'[[Chili Popcorn]]'
p71
I74
sS'[[Bacon]]'
p72
I72
sS'[[Cotton Fabric]]'
p73
I61
sS'[[Pumpkin Pie]]'
p74
I56
sS'[[Potato Feta Cake]]'
p75
I49
sS'[[Sugarcane]]'
p76
I64
sS'[[Cookie]]'
p77
I16
sS'[[Apple Juice]]'
p78
I77
sS'[[Pig Feed]]'
p79
I22
sS'[[Cotton]]'
p80
I15
sS'[[Feta Pie]]'
p81
I27
sS'[[Cheese]]'
p82
I76
sS'[[Chocolate Ice Cream]]'
p83
I83
sS'[[Chicken Feed]]'
p84
I46
sS'[[Corn Bread]]'
p85
I39
sS'[[Wool]]'
p86
I18
sS'[[Roasted Tomatoes]]'
p87
I17
sS'[[Berry Juice]]'
p88
I33
sS'[[Sweater]]'
p89
I0
sS'[[Blackberry Muffin]]'
p90
I85
sS'[[Cow Feed]]'
p91
I89
s.(dp0
S'[[Cherry Juice]]'
p1
I0
sS'[[Pumpkin]]'
p2
I0
sS'[[Egg]]'
p3
I1
sS'[[Butter]]'
p4
I2
sS'[[Vanilla Ice Cream]]'
p5
I2
sS'[[Bacon]]'
p6
I0
sS'[[Sweater]]'
p7
I0
s.