(dp0
S'[[Pumpkin]]'
p1
I58
sS'[[Blackberry Jam]]'
p2
I45
sS'[[Violet Dress]]'
p3
I88
sS'[[Strawberry Ice Cream]]'
p4
I42
sS'[[Raspberry Muffin]]'
p5
I90
sS'[[Apple Pie]]'
p6
I3
sS'[[Tomato Juice]]'
p7
I18
sS'[[Carrot Cake]]'
p8
I72
sS'[[Vanilla Ice Cream]]'
p9
I11
sS'[[Lure]]'
p10
I89
sS'[[Carrot Pie]]'
p11
I44
sS'[[Tomato]]'
p12
I27
sS'[[Cherry Juice]]'
p13
I41
sS'[[Cheesecake]]'
p14
I67
sS'[[Fish Pie]]'
p15
I31
sS'[[Pancake]]'
p16
I20
sS'[[Popcorn]]'
p17
I23
sS'[[Goat Cheese]]'
p18
I49
sS'[[Potato Bread]]'
p19
I76
sS'[[Goat Feed]]'
p20
I34
sS'[[Red Berry Cake]]'
p21
I12
sS'[[Pizza]]'
p22
I81
sS'[[Syrup]]'
p23
I62
sS'[[Sheep Feed]]'
p24
I79
sS'[[Cherry Popsicle]]'
p25
I33
sS'[[Bacon and Eggs]]'
p26
I26
sS'[[Carrot]]'
p27
I36
sS'[[Carrot Juice]]'
p28
I40
sS'[[Baked Potato]]'
p29
I53
sS'[[Milk]]'
p30
I55
sS'[[Apple Jam]]'
p31
I59
sS'[[Apple]]'
p32
I80
sS'[[Blackberry]]'
p33
I6
sS'[[Cotton Shirt]]'
p34
I10
sS'[[Cream]]'
p35
I0
sS'[[Raspberry Jam]]'
p36
I17
sS'[[Cherry]]'
p37
I86
sS'[[Bread]]'
p38
I54
sS'[[Wheat]]'
p39
I13
sS'[[Casserole]]'
p40
I46
sS'[[Strawberry]]'
p41
I9
sS'[[Honey Popcorn]]'
p42
I38
sS'[[Honeycomb]]'
p43
I4
sS'[[Indigo]]'
p44
I29
sS'[[Raspberry]]'
p45
I19
sS'[[Chocolate Cake]]'
p46
I5
sS'[[Spicy Pizza]]'
p47
I51
sS'[[Cacao]]'
p48
I15
sS'[[Woolly Chaps]]'
p49
I2
sS'[[Honey]]'
p50
I75
sS'[[Egg]]'
p51
I66
sS'[[Strawberry Cake]]'
p52
I65
sS'[[Potato]]'
p53
I83
sS'[[Fish Burger]]'
p54
I24
sS'[[White Sugar]]'
p55
I77
sS'[[Buttered Popcorn]]'
p56
I78
sS'[[Cream Cake]]'
p57
I57
sS'[[Soybean]]'
p58
I61
sS'[[Brown Sugar]]'
p59
I30
sS'[[Blue Woolly Hat]]'
p60
I1
sS'[[Goat Milk]]'
p61
I52
sS'[[Hamburger]]'
p62
I64
sS'[[Cherry Jam]]'
p63
I25
sS"[[Shepherd's Pie]]"
p64
I14
sS'[[Butter]]'
p65
I68
sS'[[Bacon Pie]]'
p66
I43
sS'[[Chili Pepper]]'
p67
I84
sS'[[Pumpkin Pie]]'
p68
I70
sS'[[Corn]]'
p69
I60
sS'[[Fish Fillet]]'
p70
I16
sS'[[Chili Popcorn]]'
p71
I47
sS'[[Bacon]]'
p72
I35
sS'[[Cotton Fabric]]'
p73
I8
sS'[[Blue Sweater]]'
p74
I56
sS'[[Potato Feta Cake]]'
p75
I50
sS'[[Sugarcane]]'
p76
I48
sS'[[Cookie]]'
p77
I71
sS'[[Apple Juice]]'
p78
I39
sS'[[Pig Feed]]'
p79
I63
sS'[[Cotton]]'
p80
I7
sS'[[Feta Pie]]'
p81
I82
sS'[[Cheese]]'
p82
I21
sS'[[Chocolate Ice Cream]]'
p83
I73
sS'[[Chicken Feed]]'
p84
I69
sS'[[Corn Bread]]'
p85
I28
sS'[[Wool]]'
p86
I37
sS'[[Roasted Tomatoes]]'
p87
I87
sS'[[Berry Juice]]'
p88
I32
sS'[[Sweater]]'
p89
I85
sS'[[Blackberry Muffin]]'
p90
I74
sS'[[Cow Feed]]'
p91
I22
s.(dp0
S'[[Sheep Feed]]'
p1
I5
sS'[[Egg]]'
p2
I5
sS'[[Carrot Cake]]'
p3
I5
sS'[[Feta Pie]]'
p4
I4
sS'[[Pumpkin]]'
p5
I5
sS'[[Cookie]]'
p6
I2
sS'[[Baked Potato]]'
p7
I1
sS'[[Blackberry Muffin]]'
p8
I3
sS'[[Cherry Jam]]'
p9
I4
sS'[[Milk]]'
p10
I5
sS'[[Cotton Fabric]]'
p11
I4
s.