(dp0
S'[[Pumpkin]]'
p1
I57
sS'[[Blackberry Jam]]'
p2
I53
sS'[[Violet Dress]]'
p3
I20
sS'[[Strawberry Ice Cream]]'
p4
I25
sS'[[Raspberry Muffin]]'
p5
I19
sS'[[Apple Pie]]'
p6
I50
sS'[[Tomato Juice]]'
p7
I61
sS'[[Honey]]'
p8
I58
sS'[[Vanilla Ice Cream]]'
p9
I21
sS'[[Lure]]'
p10
I71
sS'[[Carrot Pie]]'
p11
I13
sS'[[Tomato]]'
p12
I54
sS'[[Potato]]'
p13
I11
sS'[[Cheesecake]]'
p14
I39
sS'[[Fish Pie]]'
p15
I22
sS'[[Pancake]]'
p16
I26
sS'[[Popcorn]]'
p17
I34
sS'[[Goat Cheese]]'
p18
I68
sS'[[Potato Bread]]'
p19
I64
sS'[[Goat Feed]]'
p20
I2
sS'[[Red Berry Cake]]'
p21
I82
sS'[[Pizza]]'
p22
I84
sS'[[Syrup]]'
p23
I72
sS'[[Sheep Feed]]'
p24
I62
sS'[[Cherry Popsicle]]'
p25
I85
sS'[[Bacon and Eggs]]'
p26
I79
sS'[[Carrot Juice]]'
p27
I10
sS'[[Baked Potato]]'
p28
I46
sS'[[Milk]]'
p29
I41
sS'[[Apple Jam]]'
p30
I67
sS'[[Carrot]]'
p31
I44
sS'[[Blackberry]]'
p32
I37
sS'[[Cotton Shirt]]'
p33
I15
sS'[[Cream]]'
p34
I30
sS'[[Raspberry Jam]]'
p35
I18
sS'[[Cherry]]'
p36
I42
sS'[[Bread]]'
p37
I7
sS'[[Wheat]]'
p38
I49
sS'[[Casserole]]'
p39
I3
sS'[[Strawberry]]'
p40
I5
sS'[[Honey Popcorn]]'
p41
I14
sS'[[Honeycomb]]'
p42
I51
sS'[[Indigo]]'
p43
I73
sS'[[Raspberry]]'
p44
I0
sS'[[Chocolate Cake]]'
p45
I12
sS'[[Spicy Pizza]]'
p46
I23
sS'[[Cacao]]'
p47
I55
sS'[[Woolly Chaps]]'
p48
I40
sS'[[Carrot Cake]]'
p49
I45
sS'[[Egg]]'
p50
I4
sS'[[Strawberry Cake]]'
p51
I75
sS'[[Cherry Juice]]'
p52
I33
sS'[[Fish Burger]]'
p53
I29
sS'[[White Sugar]]'
p54
I65
sS'[[Buttered Popcorn]]'
p55
I74
sS'[[Cream Cake]]'
p56
I9
sS'[[Soybean]]'
p57
I59
sS'[[Apple]]'
p58
I35
sS'[[Blue Woolly Hat]]'
p59
I43
sS'[[Goat Milk]]'
p60
I17
sS'[[Hamburger]]'
p61
I69
sS'[[Cherry Jam]]'
p62
I86
sS"[[Shepherd's Pie]]"
p63
I88
sS'[[Brown Sugar]]'
p64
I6
sS'[[Butter]]'
p65
I27
sS'[[Bacon Pie]]'
p66
I63
sS'[[Chili Pepper]]'
p67
I32
sS'[[Pumpkin Pie]]'
p68
I70
sS'[[Corn]]'
p69
I80
sS'[[Fish Fillet]]'
p70
I87
sS'[[Chili Popcorn]]'
p71
I31
sS'[[Bacon]]'
p72
I48
sS'[[Cotton Fabric]]'
p73
I78
sS'[[Blue Sweater]]'
p74
I76
sS'[[Potato Feta Cake]]'
p75
I81
sS'[[Sugarcane]]'
p76
I66
sS'[[Cookie]]'
p77
I47
sS'[[Apple Juice]]'
p78
I90
sS'[[Pig Feed]]'
p79
I56
sS'[[Cotton]]'
p80
I8
sS'[[Feta Pie]]'
p81
I36
sS'[[Cheese]]'
p82
I38
sS'[[Chocolate Ice Cream]]'
p83
I16
sS'[[Chicken Feed]]'
p84
I60
sS'[[Corn Bread]]'
p85
I1
sS'[[Wool]]'
p86
I89
sS'[[Roasted Tomatoes]]'
p87
I28
sS'[[Berry Juice]]'
p88
I77
sS'[[Sweater]]'
p89
I83
sS'[[Blackberry Muffin]]'
p90
I52
sS'[[Cow Feed]]'
p91
I24
s.(dp0
S'[[Apple]]'
p1
I5
sS'[[Woolly Chaps]]'
p2
I0
sS'[[Corn Bread]]'
p3
I0
sS'[[Indigo]]'
p4
I0
sS'[[Pancake]]'
p5
I1
sS'[[Wool]]'
p6
I1
sS'[[Chocolate Ice Cream]]'
p7
I0
sS'[[Cream Cake]]'
p8
I1
sS'[[Pizza]]'
p9
I0
s.