(dp0
S'[[Pumpkin]]'
p1
I89
sS'[[Blackberry Jam]]'
p2
I58
sS'[[Violet Dress]]'
p3
I31
sS'[[Strawberry Ice Cream]]'
p4
I4
sS'[[Raspberry Muffin]]'
p5
I56
sS'[[Apple Pie]]'
p6
I25
sS'[[Tomato Juice]]'
p7
I60
sS'[[Blue Sweater]]'
p8
I41
sS'[[Honey]]'
p9
I66
sS'[[Vanilla Ice Cream]]'
p10
I69
sS'[[Lure]]'
p11
I36
sS'[[Carrot Pie]]'
p12
I26
sS'[[Tomato]]'
p13
I18
sS'[[Potato]]'
p14
I38
sS'[[Cheesecake]]'
p15
I53
sS'[[Fish Pie]]'
p16
I51
sS'[[Pancake]]'
p17
I67
sS'[[Popcorn]]'
p18
I45
sS'[[Goat Cheese]]'
p19
I63
sS'[[Potato Bread]]'
p20
I83
sS'[[Goat Feed]]'
p21
I87
sS'[[Red Berry Cake]]'
p22
I85
sS'[[Pizza]]'
p23
I19
sS'[[Syrup]]'
p24
I86
sS'[[Sheep Feed]]'
p25
I11
sS'[[Cherry Popsicle]]'
p26
I90
sS'[[Bacon and Eggs]]'
p27
I30
sS'[[Carrot Juice]]'
p28
I47
sS'[[Baked Potato]]'
p29
I64
sS'[[Milk]]'
p30
I13
sS'[[Apple Jam]]'
p31
I23
sS'[[Carrot]]'
p32
I54
sS'[[Blackberry]]'
p33
I88
sS'[[Cotton Shirt]]'
p34
I76
sS'[[Cream]]'
p35
I74
sS'[[Raspberry Jam]]'
p36
I43
sS'[[Cherry]]'
p37
I73
sS'[[Bread]]'
p38
I22
sS'[[Wheat]]'
p39
I34
sS'[[Casserole]]'
p40
I14
sS'[[Chili Pepper]]'
p41
I28
sS'[[Honey Popcorn]]'
p42
I8
sS'[[Honeycomb]]'
p43
I29
sS'[[Indigo]]'
p44
I78
sS'[[Raspberry]]'
p45
I52
sS'[[Chocolate Cake]]'
p46
I7
sS'[[Spicy Pizza]]'
p47
I70
sS'[[Cacao]]'
p48
I81
sS'[[Woolly Chaps]]'
p49
I17
sS'[[Carrot Cake]]'
p50
I46
sS'[[Egg]]'
p51
I27
sS'[[Strawberry Cake]]'
p52
I75
sS'[[Cherry Juice]]'
p53
I62
sS'[[Fish Burger]]'
p54
I35
sS'[[White Sugar]]'
p55
I72
sS'[[Buttered Popcorn]]'
p56
I20
sS'[[Cream Cake]]'
p57
I39
sS'[[Soybean]]'
p58
I37
sS'[[Apple]]'
p59
I77
sS'[[Blue Woolly Hat]]'
p60
I61
sS'[[Goat Milk]]'
p61
I48
sS'[[Hamburger]]'
p62
I33
sS'[[Cherry Jam]]'
p63
I57
sS"[[Shepherd's Pie]]"
p64
I80
sS'[[Brown Sugar]]'
p65
I0
sS'[[Butter]]'
p66
I79
sS'[[Bacon Pie]]'
p67
I42
sS'[[Strawberry]]'
p68
I59
sS'[[Corn]]'
p69
I12
sS'[[Fish Fillet]]'
p70
I24
sS'[[Chili Popcorn]]'
p71
I2
sS'[[Bacon]]'
p72
I50
sS'[[Cotton Fabric]]'
p73
I40
sS'[[Pumpkin Pie]]'
p74
I16
sS'[[Potato Feta Cake]]'
p75
I44
sS'[[Sugarcane]]'
p76
I84
sS'[[Cookie]]'
p77
I82
sS'[[Apple Juice]]'
p78
I3
sS'[[Pig Feed]]'
p79
I9
sS'[[Cotton]]'
p80
I68
sS'[[Feta Pie]]'
p81
I21
sS'[[Cheese]]'
p82
I1
sS'[[Chocolate Ice Cream]]'
p83
I49
sS'[[Chicken Feed]]'
p84
I15
sS'[[Corn Bread]]'
p85
I55
sS'[[Wool]]'
p86
I6
sS'[[Roasted Tomatoes]]'
p87
I65
sS'[[Berry Juice]]'
p88
I32
sS'[[Sweater]]'
p89
I5
sS'[[Blackberry Muffin]]'
p90
I71
sS'[[Cow Feed]]'
p91
I10
s.(dp0
S'[[Pumpkin Pie]]'
p1
I5
sS'[[Apple]]'
p2
I4
sS'[[Woolly Chaps]]'
p3
I2
sS'[[Carrot Cake]]'
p4
I5
sS'[[Blackberry]]'
p5
I5
sS'[[Strawberry Cake]]'
p6
I3
sS'[[Potato Feta Cake]]'
p7
I1
sS'[[Chocolate Ice Cream]]'
p8
I1
sS'[[Raspberry Jam]]'
p9
I2
sS'[[Potato Bread]]'
p10
I5
sS'[[Violet Dress]]'
p11
I5
s.