(dp0
S'[[Pumpkin]]'
p1
I39
sS'[[Blackberry Jam]]'
p2
I18
sS'[[Violet Dress]]'
p3
I67
sS'[[Strawberry Ice Cream]]'
p4
I11
sS'[[Raspberry Muffin]]'
p5
I56
sS'[[Apple Pie]]'
p6
I79
sS'[[Tomato Juice]]'
p7
I49
sS'[[Carrot Cake]]'
p8
I42
sS'[[Vanilla Ice Cream]]'
p9
I30
sS'[[Lure]]'
p10
I66
sS'[[Carrot Pie]]'
p11
I5
sS'[[Tomato]]'
p12
I60
sS'[[Cherry Juice]]'
p13
I57
sS'[[Cheesecake]]'
p14
I52
sS'[[Fish Pie]]'
p15
I3
sS'[[Pancake]]'
p16
I53
sS'[[Popcorn]]'
p17
I41
sS'[[Goat Cheese]]'
p18
I15
sS'[[Potato Bread]]'
p19
I0
sS'[[Goat Feed]]'
p20
I74
sS'[[Red Berry Cake]]'
p21
I17
sS'[[Pizza]]'
p22
I4
sS'[[Syrup]]'
p23
I12
sS'[[Sheep Feed]]'
p24
I50
sS'[[Cherry Popsicle]]'
p25
I36
sS'[[Bacon and Eggs]]'
p26
I89
sS'[[Carrot Juice]]'
p27
I63
sS'[[Baked Potato]]'
p28
I40
sS'[[Milk]]'
p29
I8
sS'[[Apple Jam]]'
p30
I73
sS'[[Carrot]]'
p31
I80
sS'[[Blackberry]]'
p32
I44
sS'[[Cotton Shirt]]'
p33
I45
sS'[[Cream]]'
p34
I86
sS'[[Raspberry Jam]]'
p35
I19
sS'[[Cherry]]'
p36
I55
sS'[[Bread]]'
p37
I22
sS'[[Wheat]]'
p38
I76
sS'[[Casserole]]'
p39
I7
sS'[[Chili Pepper]]'
p40
I9
sS'[[Honey Popcorn]]'
p41
I85
sS'[[Honeycomb]]'
p42
I72
sS'[[Indigo]]'
p43
I26
sS'[[Raspberry]]'
p44
I13
sS'[[Chocolate Cake]]'
p45
I59
sS'[[Spicy Pizza]]'
p46
I70
sS'[[Cacao]]'
p47
I6
sS'[[Woolly Chaps]]'
p48
I65
sS'[[Honey]]'
p49
I16
sS'[[Egg]]'
p50
I61
sS'[[Strawberry Cake]]'
p51
I88
sS'[[Potato]]'
p52
I84
sS'[[Fish Burger]]'
p53
I81
sS'[[White Sugar]]'
p54
I82
sS'[[Buttered Popcorn]]'
p55
I71
sS'[[Cream Cake]]'
p56
I69
sS'[[Soybean]]'
p57
I77
sS'[[Apple]]'
p58
I68
sS'[[Blue Woolly Hat]]'
p59
I90
sS'[[Goat Milk]]'
p60
I43
sS'[[Hamburger]]'
p61
I31
sS'[[Cherry Jam]]'
p62
I14
sS"[[Shepherd's Pie]]"
p63
I10
sS'[[Brown Sugar]]'
p64
I33
sS'[[Butter]]'
p65
I37
sS'[[Bacon Pie]]'
p66
I78
sS'[[Strawberry]]'
p67
I29
sS'[[Pumpkin Pie]]'
p68
I32
sS'[[Corn]]'
p69
I24
sS'[[Fish Fillet]]'
p70
I28
sS'[[Chili Popcorn]]'
p71
I38
sS'[[Bacon]]'
p72
I1
sS'[[Cotton Fabric]]'
p73
I35
sS'[[Blue Sweater]]'
p74
I47
sS'[[Potato Feta Cake]]'
p75
I34
sS'[[Sugarcane]]'
p76
I62
sS'[[Cookie]]'
p77
I23
sS'[[Apple Juice]]'
p78
I64
sS'[[Pig Feed]]'
p79
I83
sS'[[Cotton]]'
p80
I54
sS'[[Feta Pie]]'
p81
I87
sS'[[Cheese]]'
p82
I2
sS'[[Chocolate Ice Cream]]'
p83
I27
sS'[[Chicken Feed]]'
p84
I48
sS'[[Corn Bread]]'
p85
I25
sS'[[Wool]]'
p86
I51
sS'[[Roasted Tomatoes]]'
p87
I46
sS'[[Berry Juice]]'
p88
I75
sS'[[Sweater]]'
p89
I58
sS'[[Blackberry Muffin]]'
p90
I21
sS'[[Cow Feed]]'
p91
I20
s.(dp0
S'[[Wheat]]'
p1
I4
sS'[[Cherry Popsicle]]'
p2
I5
sS'[[Carrot Cake]]'
p3
I1
sS'[[Strawberry Cake]]'
p4
I0
sS'[[Blue Woolly Hat]]'
p5
I1
sS'[[Cherry Jam]]'
p6
I0
sS'[[Cheese]]'
p7
I0
sS'[[Cherry]]'
p8
I4
sS'[[Cow Feed]]'
p9
I1
sS'[[Corn Bread]]'
p10
I3
sS'[[Goat Feed]]'
p11
I5
s.