(dp0
S'[[Pumpkin]]'
p1
I19
sS'[[Blackberry Jam]]'
p2
I80
sS'[[Violet Dress]]'
p3
I27
sS'[[Strawberry Ice Cream]]'
p4
I42
sS'[[Raspberry Muffin]]'
p5
I9
sS'[[Apple Pie]]'
p6
I36
sS'[[Tomato Juice]]'
p7
I48
sS'[[Blue Sweater]]'
p8
I25
sS'[[Honey]]'
p9
I67
sS'[[Vanilla Ice Cream]]'
p10
I8
sS'[[Lure]]'
p11
I45
sS'[[Carrot Pie]]'
p12
I2
sS'[[Tomato]]'
p13
I31
sS'[[Potato]]'
p14
I61
sS'[[Cheesecake]]'
p15
I74
sS'[[Fish Pie]]'
p16
I52
sS'[[Pancake]]'
p17
I23
sS'[[Popcorn]]'
p18
I59
sS'[[Goat Cheese]]'
p19
I16
sS'[[Potato Bread]]'
p20
I39
sS'[[Goat Feed]]'
p21
I82
sS'[[Red Berry Cake]]'
p22
I18
sS'[[Pizza]]'
p23
I63
sS'[[Syrup]]'
p24
I33
sS'[[Sheep Feed]]'
p25
I43
sS'[[Cherry Popsicle]]'
p26
I24
sS'[[Bacon and Eggs]]'
p27
I47
sS'[[Carrot Juice]]'
p28
I69
sS'[[Baked Potato]]'
p29
I5
sS'[[Milk]]'
p30
I73
sS'[[Apple Jam]]'
p31
I56
sS'[[Carrot]]'
p32
I0
sS'[[Blackberry]]'
p33
I3
sS'[[Cotton Shirt]]'
p34
I51
sS'[[Cream]]'
p35
I12
sS'[[Raspberry Jam]]'
p36
I44
sS'[[Cherry]]'
p37
I62
sS'[[Bread]]'
p38
I77
sS'[[Wheat]]'
p39
I1
sS'[[Casserole]]'
p40
I85
sS'[[Chili Pepper]]'
p41
I4
sS'[[Honey Popcorn]]'
p42
I13
sS'[[Honeycomb]]'
p43
I70
sS'[[Indigo]]'
p44
I58
sS'[[Raspberry]]'
p45
I68
sS'[[Chocolate Cake]]'
p46
I86
sS'[[Spicy Pizza]]'
p47
I28
sS'[[Cacao]]'
p48
I53
sS'[[Woolly Chaps]]'
p49
I21
sS'[[Carrot Cake]]'
p50
I37
sS'[[Egg]]'
p51
I29
sS'[[Strawberry Cake]]'
p52
I26
sS'[[Cherry Juice]]'
p53
I10
sS'[[Fish Burger]]'
p54
I71
sS'[[White Sugar]]'
p55
I66
sS'[[Buttered Popcorn]]'
p56
I60
sS'[[Cream Cake]]'
p57
I84
sS'[[Soybean]]'
p58
I17
sS'[[Apple]]'
p59
I57
sS'[[Blue Woolly Hat]]'
p60
I54
sS'[[Goat Milk]]'
p61
I89
sS'[[Hamburger]]'
p62
I11
sS'[[Cherry Jam]]'
p63
I6
sS"[[Shepherd's Pie]]"
p64
I72
sS'[[Brown Sugar]]'
p65
I87
sS'[[Butter]]'
p66
I35
sS'[[Bacon Pie]]'
p67
I7
sS'[[Strawberry]]'
p68
I32
sS'[[Corn]]'
p69
I65
sS'[[Fish Fillet]]'
p70
I49
sS'[[Chili Popcorn]]'
p71
I46
sS'[[Bacon]]'
p72
I83
sS'[[Cotton Fabric]]'
p73
I40
sS'[[Pumpkin Pie]]'
p74
I79
sS'[[Potato Feta Cake]]'
p75
I50
sS'[[Sugarcane]]'
p76
I55
sS'[[Cookie]]'
p77
I76
sS'[[Apple Juice]]'
p78
I41
sS'[[Pig Feed]]'
p79
I38
sS'[[Cotton]]'
p80
I78
sS'[[Feta Pie]]'
p81
I88
sS'[[Cheese]]'
p82
I75
sS'[[Chocolate Ice Cream]]'
p83
I15
sS'[[Chicken Feed]]'
p84
I14
sS'[[Corn Bread]]'
p85
I64
sS'[[Wool]]'
p86
I90
sS'[[Roasted Tomatoes]]'
p87
I20
sS'[[Berry Juice]]'
p88
I22
sS'[[Sweater]]'
p89
I30
sS'[[Blackberry Muffin]]'
p90
I81
sS'[[Cow Feed]]'
p91
I34
s.(dp0
S'[[Wheat]]'
p1
I1
sS'[[Potato Feta Cake]]'
p2
I1
sS'[[Carrot Pie]]'
p3
I1
sS'[[Corn Bread]]'
p4
I3
sS'[[Apple Pie]]'
p5
I3
sS'[[Feta Pie]]'
p6
I0
sS'[[Cotton Shirt]]'
p7
I3
sS'[[White Sugar]]'
p8
I2
sS'[[Spicy Pizza]]'
p9
I1
sS'[[Chocolate Ice Cream]]'
p10
I3
sS'[[Cotton Fabric]]'
p11
I0
s.