(dp0
S'[[Pumpkin]]'
p1
I45
sS'[[Blackberry Jam]]'
p2
I77
sS'[[Violet Dress]]'
p3
I60
sS'[[Strawberry Ice Cream]]'
p4
I32
sS'[[Raspberry Muffin]]'
p5
I89
sS'[[Apple Pie]]'
p6
I78
sS'[[Tomato Juice]]'
p7
I41
sS'[[Blue Sweater]]'
p8
I85
sS'[[Honey]]'
p9
I35
sS'[[Vanilla Ice Cream]]'
p10
I72
sS'[[Lure]]'
p11
I55
sS'[[Carrot Pie]]'
p12
I0
sS'[[Tomato]]'
p13
I80
sS'[[Potato]]'
p14
I56
sS'[[Cheesecake]]'
p15
I61
sS'[[Fish Pie]]'
p16
I86
sS'[[Pancake]]'
p17
I74
sS'[[Popcorn]]'
p18
I48
sS'[[Goat Cheese]]'
p19
I83
sS'[[Potato Bread]]'
p20
I12
sS'[[Goat Feed]]'
p21
I30
sS'[[Red Berry Cake]]'
p22
I33
sS'[[Pizza]]'
p23
I24
sS'[[Syrup]]'
p24
I27
sS'[[Sheep Feed]]'
p25
I59
sS'[[Cherry Popsicle]]'
p26
I13
sS'[[Bacon and Eggs]]'
p27
I34
sS'[[Carrot]]'
p28
I20
sS'[[Carrot Juice]]'
p29
I84
sS'[[Baked Potato]]'
p30
I88
sS'[[Milk]]'
p31
I42
sS'[[Apple Jam]]'
p32
I47
sS'[[Apple]]'
p33
I46
sS'[[Blackberry]]'
p34
I52
sS'[[Cotton Shirt]]'
p35
I4
sS'[[Cream]]'
p36
I36
sS'[[Raspberry Jam]]'
p37
I28
sS'[[Cherry]]'
p38
I75
sS'[[Bread]]'
p39
I70
sS'[[Wheat]]'
p40
I14
sS'[[Casserole]]'
p41
I53
sS'[[Strawberry]]'
p42
I6
sS'[[Honey Popcorn]]'
p43
I40
sS'[[Honeycomb]]'
p44
I90
sS'[[Indigo]]'
p45
I51
sS'[[Raspberry]]'
p46
I7
sS'[[Chocolate Cake]]'
p47
I17
sS'[[Spicy Pizza]]'
p48
I16
sS'[[Cacao]]'
p49
I79
sS'[[Woolly Chaps]]'
p50
I8
sS'[[Carrot Cake]]'
p51
I54
sS'[[Egg]]'
p52
I82
sS'[[Strawberry Cake]]'
p53
I68
sS'[[Cherry Juice]]'
p54
I39
sS'[[Fish Burger]]'
p55
I44
sS'[[White Sugar]]'
p56
I65
sS'[[Buttered Popcorn]]'
p57
I37
sS'[[Cream Cake]]'
p58
I73
sS'[[Soybean]]'
p59
I62
sS'[[Brown Sugar]]'
p60
I67
sS'[[Blue Woolly Hat]]'
p61
I31
sS'[[Goat Milk]]'
p62
I57
sS'[[Hamburger]]'
p63
I2
sS'[[Cherry Jam]]'
p64
I87
sS"[[Shepherd's Pie]]"
p65
I49
sS'[[Butter]]'
p66
I71
sS'[[Bacon Pie]]'
p67
I19
sS'[[Chili Pepper]]'
p68
I58
sS'[[Corn]]'
p69
I23
sS'[[Fish Fillet]]'
p70
I81
sS'[[Chili Popcorn]]'
p71
I66
sS'[[Bacon]]'
p72
I25
sS'[[Cotton Fabric]]'
p73
I9
sS'[[Pumpkin Pie]]'
p74
I18
sS'[[Potato Feta Cake]]'
p75
I3
sS'[[Sugarcane]]'
p76
I63
sS'[[Cookie]]'
p77
I69
sS'[[Apple Juice]]'
p78
I21
sS'[[Pig Feed]]'
p79
I11
sS'[[Cotton]]'
p80
I29
sS'[[Feta Pie]]'
p81
I10
sS'[[Cheese]]'
p82
I50
sS'[[Chocolate Ice Cream]]'
p83
I64
sS'[[Chicken Feed]]'
p84
I22
sS'[[Corn Bread]]'
p85
I26
sS'[[Wool]]'
p86
I15
sS'[[Roasted Tomatoes]]'
p87
I43
sS'[[Berry Juice]]'
p88
I1
sS'[[Sweater]]'
p89
I38
sS'[[Blackberry Muffin]]'
p90
I76
sS'[[Cow Feed]]'
p91
I5
s.(dp0
S'[[Pig Feed]]'
p1
I5
sS'[[Blue Sweater]]'
p2
I4
sS'[[Strawberry Ice Cream]]'
p3
I4
sS'[[Pumpkin Pie]]'
p4
I2
sS'[[Honey Popcorn]]'
p5
I2
sS'[[Apple]]'
p6
I4
sS'[[Indigo]]'
p7
I4
sS'[[Cherry Jam]]'
p8
I5
sS'[[Cream]]'
p9
I1
sS'[[Bacon]]'
p10
I1
sS'[[Goat Feed]]'
p11
I4
s.