(dp0
S'[[Pumpkin]]'
p1
I16
sS'[[Blackberry Jam]]'
p2
I41
sS'[[Violet Dress]]'
p3
I86
sS'[[Strawberry Ice Cream]]'
p4
I9
sS'[[Raspberry Muffin]]'
p5
I1
sS'[[Apple Pie]]'
p6
I39
sS'[[Tomato Juice]]'
p7
I85
sS'[[Blue Sweater]]'
p8
I73
sS'[[Honey]]'
p9
I33
sS'[[Vanilla Ice Cream]]'
p10
I61
sS'[[Lure]]'
p11
I66
sS'[[Carrot Pie]]'
p12
I52
sS'[[Tomato]]'
p13
I50
sS'[[Potato]]'
p14
I69
sS'[[Cheesecake]]'
p15
I47
sS'[[Fish Pie]]'
p16
I14
sS'[[Pancake]]'
p17
I70
sS'[[Popcorn]]'
p18
I11
sS'[[Goat Cheese]]'
p19
I53
sS'[[Potato Bread]]'
p20
I72
sS'[[Goat Feed]]'
p21
I60
sS'[[Red Berry Cake]]'
p22
I59
sS'[[Pizza]]'
p23
I13
sS'[[Syrup]]'
p24
I27
sS'[[Sheep Feed]]'
p25
I31
sS'[[Cherry Popsicle]]'
p26
I40
sS'[[Bacon and Eggs]]'
p27
I38
sS'[[Carrot Juice]]'
p28
I28
sS'[[Baked Potato]]'
p29
I51
sS'[[Milk]]'
p30
I80
sS'[[Apple Jam]]'
p31
I74
sS'[[Carrot]]'
p32
I4
sS'[[Blackberry]]'
p33
I57
sS'[[Cotton Shirt]]'
p34
I89
sS'[[Cream]]'
p35
I21
sS'[[Raspberry Jam]]'
p36
I24
sS'[[Cherry]]'
p37
I46
sS'[[Bread]]'
p38
I18
sS'[[Wheat]]'
p39
I76
sS'[[Casserole]]'
p40
I30
sS'[[Chili Pepper]]'
p41
I67
sS'[[Honey Popcorn]]'
p42
I6
sS'[[Honeycomb]]'
p43
I68
sS'[[Indigo]]'
p44
I37
sS'[[Raspberry]]'
p45
I29
sS'[[Chocolate Cake]]'
p46
I7
sS'[[Spicy Pizza]]'
p47
I2
sS'[[Cacao]]'
p48
I49
sS'[[Woolly Chaps]]'
p49
I64
sS'[[Carrot Cake]]'
p50
I26
sS'[[Egg]]'
p51
I20
sS'[[Strawberry Cake]]'
p52
I79
sS'[[Cherry Juice]]'
p53
I48
sS'[[Fish Burger]]'
p54
I3
sS'[[White Sugar]]'
p55
I55
sS'[[Buttered Popcorn]]'
p56
I88
sS'[[Cream Cake]]'
p57
I71
sS'[[Soybean]]'
p58
I42
sS'[[Apple]]'
p59
I62
sS'[[Blue Woolly Hat]]'
p60
I5
sS'[[Goat Milk]]'
p61
I54
sS'[[Hamburger]]'
p62
I23
sS'[[Cherry Jam]]'
p63
I35
sS"[[Shepherd's Pie]]"
p64
I56
sS'[[Brown Sugar]]'
p65
I77
sS'[[Butter]]'
p66
I0
sS'[[Bacon Pie]]'
p67
I22
sS'[[Strawberry]]'
p68
I25
sS'[[Corn]]'
p69
I12
sS'[[Fish Fillet]]'
p70
I32
sS'[[Chili Popcorn]]'
p71
I65
sS'[[Bacon]]'
p72
I87
sS'[[Cotton Fabric]]'
p73
I58
sS'[[Pumpkin Pie]]'
p74
I45
sS'[[Potato Feta Cake]]'
p75
I44
sS'[[Sugarcane]]'
p76
I8
sS'[[Cookie]]'
p77
I83
sS'[[Apple Juice]]'
p78
I81
sS'[[Pig Feed]]'
p79
I36
sS'[[Cotton]]'
p80
I75
sS'[[Feta Pie]]'
p81
I34
sS'[[Cheese]]'
p82
I82
sS'[[Chocolate Ice Cream]]'
p83
I63
sS'[[Chicken Feed]]'
p84
I43
sS'[[Corn Bread]]'
p85
I90
sS'[[Wool]]'
p86
I17
sS'[[Roasted Tomatoes]]'
p87
I78
sS'[[Berry Juice]]'
p88
I15
sS'[[Sweater]]'
p89
I10
sS'[[Blackberry Muffin]]'
p90
I84
sS'[[Cow Feed]]'
p91
I19
s.(dp0
S'[[Blue Sweater]]'
p1
I0
sS'[[Cheesecake]]'
p2
I3
sS'[[Carrot]]'
p3
I0
sS'[[Pumpkin]]'
p4
I5
sS'[[Carrot Juice]]'
p5
I5
sS'[[Tomato Juice]]'
p6
I4
sS'[[Spicy Pizza]]'
p7
I2
sS'[[Lure]]'
p8
I1
sS'[[Raspberry Jam]]'
p9
I2
sS'[[Syrup]]'
p10
I5
sS'[[Cherry Popsicle]]'
p11
I1
s.