(dp0
S'[[Pumpkin]]'
p1
I4
sS'[[Blackberry Jam]]'
p2
I25
sS'[[Violet Dress]]'
p3
I70
sS'[[Strawberry Ice Cream]]'
p4
I71
sS'[[Raspberry Muffin]]'
p5
I69
sS'[[Apple Pie]]'
p6
I19
sS'[[Tomato Juice]]'
p7
I89
sS'[[Carrot Cake]]'
p8
I43
sS'[[Vanilla Ice Cream]]'
p9
I87
sS'[[Lure]]'
p10
I21
sS'[[Carrot Pie]]'
p11
I13
sS'[[Tomato]]'
p12
I44
sS'[[Cherry Juice]]'
p13
I47
sS'[[Cheesecake]]'
p14
I56
sS'[[Fish Pie]]'
p15
I49
sS'[[Pancake]]'
p16
I58
sS'[[Popcorn]]'
p17
I32
sS'[[Goat Cheese]]'
p18
I59
sS'[[Potato Bread]]'
p19
I53
sS'[[Goat Feed]]'
p20
I11
sS'[[Red Berry Cake]]'
p21
I24
sS'[[Pizza]]'
p22
I63
sS'[[Syrup]]'
p23
I74
sS'[[Sheep Feed]]'
p24
I18
sS'[[Cherry Popsicle]]'
p25
I67
sS'[[Bacon and Eggs]]'
p26
I39
sS'[[Carrot]]'
p27
I60
sS'[[Carrot Juice]]'
p28
I61
sS'[[Baked Potato]]'
p29
I27
sS'[[Milk]]'
p30
I84
sS'[[Apple Jam]]'
p31
I9
sS'[[Apple]]'
p32
I33
sS'[[Blackberry]]'
p33
I62
sS'[[Cotton Shirt]]'
p34
I12
sS'[[Cream]]'
p35
I76
sS'[[Raspberry Jam]]'
p36
I88
sS'[[Cherry]]'
p37
I34
sS'[[Bread]]'
p38
I37
sS'[[Wheat]]'
p39
I10
sS'[[Casserole]]'
p40
I41
sS'[[Strawberry]]'
p41
I2
sS'[[Honey Popcorn]]'
p42
I83
sS'[[Honeycomb]]'
p43
I14
sS'[[Indigo]]'
p44
I66
sS'[[Raspberry]]'
p45
I5
sS'[[Chocolate Cake]]'
p46
I75
sS'[[Spicy Pizza]]'
p47
I8
sS'[[Cacao]]'
p48
I46
sS'[[Woolly Chaps]]'
p49
I48
sS'[[Honey]]'
p50
I42
sS'[[Egg]]'
p51
I29
sS'[[Strawberry Cake]]'
p52
I7
sS'[[Potato]]'
p53
I16
sS'[[Fish Burger]]'
p54
I57
sS'[[White Sugar]]'
p55
I31
sS'[[Buttered Popcorn]]'
p56
I36
sS'[[Cream Cake]]'
p57
I51
sS'[[Soybean]]'
p58
I85
sS'[[Brown Sugar]]'
p59
I52
sS'[[Blue Woolly Hat]]'
p60
I86
sS'[[Goat Milk]]'
p61
I55
sS'[[Hamburger]]'
p62
I22
sS'[[Cherry Jam]]'
p63
I17
sS"[[Shepherd's Pie]]"
p64
I15
sS'[[Butter]]'
p65
I54
sS'[[Bacon Pie]]'
p66
I0
sS'[[Chili Pepper]]'
p67
I23
sS'[[Pumpkin Pie]]'
p68
I6
sS'[[Corn]]'
p69
I72
sS'[[Fish Fillet]]'
p70
I28
sS'[[Chili Popcorn]]'
p71
I35
sS'[[Bacon]]'
p72
I38
sS'[[Cotton Fabric]]'
p73
I20
sS'[[Blue Sweater]]'
p74
I79
sS'[[Potato Feta Cake]]'
p75
I90
sS'[[Sugarcane]]'
p76
I78
sS'[[Cookie]]'
p77
I40
sS'[[Apple Juice]]'
p78
I3
sS'[[Pig Feed]]'
p79
I81
sS'[[Cotton]]'
p80
I73
sS'[[Feta Pie]]'
p81
I45
sS'[[Cheese]]'
p82
I50
sS'[[Chocolate Ice Cream]]'
p83
I65
sS'[[Chicken Feed]]'
p84
I82
sS'[[Corn Bread]]'
p85
I68
sS'[[Wool]]'
p86
I26
sS'[[Roasted Tomatoes]]'
p87
I80
sS'[[Berry Juice]]'
p88
I1
sS'[[Sweater]]'
p89
I64
sS'[[Blackberry Muffin]]'
p90
I77
sS'[[Cow Feed]]'
p91
I30
s.(dp0
S'[[Pumpkin Pie]]'
p1
I1
sS'[[Cheesecake]]'
p2
I0
sS'[[Feta Pie]]'
p3
I0
sS'[[Blue Woolly Hat]]'
p4
I1
sS'[[Cotton]]'
p5
I2
sS'[[Fish Pie]]'
p6
I4
sS'[[Blackberry]]'
p7
I1
sS'[[Chocolate Cake]]'
p8
I0
sS'[[Potato Bread]]'
p9
I0
s.