(dp0
S'[[Pumpkin]]'
p1
I10
sS'[[Blackberry Jam]]'
p2
I26
sS'[[Violet Dress]]'
p3
I64
sS'[[Strawberry Ice Cream]]'
p4
I23
sS'[[Raspberry Muffin]]'
p5
I34
sS'[[Apple Pie]]'
p6
I87
sS'[[Tomato Juice]]'
p7
I88
sS'[[Carrot Cake]]'
p8
I70
sS'[[Vanilla Ice Cream]]'
p9
I63
sS'[[Lure]]'
p10
I52
sS'[[Carrot Pie]]'
p11
I78
sS'[[Tomato]]'
p12
I4
sS'[[Cherry Juice]]'
p13
I17
sS'[[Cheesecake]]'
p14
I25
sS'[[Fish Pie]]'
p15
I71
sS'[[Pancake]]'
p16
I8
sS'[[Popcorn]]'
p17
I22
sS'[[Goat Cheese]]'
p18
I50
sS'[[Potato Bread]]'
p19
I37
sS'[[Goat Feed]]'
p20
I36
sS'[[Red Berry Cake]]'
p21
I55
sS'[[Pizza]]'
p22
I81
sS'[[Syrup]]'
p23
I48
sS'[[Sheep Feed]]'
p24
I41
sS'[[Cherry Popsicle]]'
p25
I21
sS'[[Bacon and Eggs]]'
p26
I31
sS'[[Carrot Juice]]'
p27
I49
sS'[[Baked Potato]]'
p28
I42
sS'[[Milk]]'
p29
I66
sS'[[Apple Jam]]'
p30
I90
sS'[[Carrot]]'
p31
I2
sS'[[Blackberry]]'
p32
I65
sS'[[Cotton Shirt]]'
p33
I51
sS'[[Cream]]'
p34
I35
sS'[[Raspberry Jam]]'
p35
I27
sS'[[Cherry]]'
p36
I46
sS'[[Bread]]'
p37
I9
sS'[[Wheat]]'
p38
I20
sS'[[Casserole]]'
p39
I39
sS'[[Chili Pepper]]'
p40
I58
sS'[[Honey Popcorn]]'
p41
I12
sS'[[Honeycomb]]'
p42
I16
sS'[[Indigo]]'
p43
I75
sS'[[Raspberry]]'
p44
I13
sS'[[Chocolate Cake]]'
p45
I59
sS'[[Spicy Pizza]]'
p46
I5
sS'[[Cacao]]'
p47
I30
sS'[[Woolly Chaps]]'
p48
I43
sS'[[Honey]]'
p49
I29
sS'[[Egg]]'
p50
I74
sS'[[Strawberry Cake]]'
p51
I85
sS'[[Potato]]'
p52
I32
sS'[[Fish Burger]]'
p53
I18
sS'[[White Sugar]]'
p54
I7
sS'[[Buttered Popcorn]]'
p55
I40
sS'[[Cream Cake]]'
p56
I53
sS'[[Soybean]]'
p57
I76
sS'[[Apple]]'
p58
I61
sS'[[Blue Woolly Hat]]'
p59
I28
sS'[[Goat Milk]]'
p60
I33
sS'[[Hamburger]]'
p61
I1
sS'[[Cherry Jam]]'
p62
I15
sS"[[Shepherd's Pie]]"
p63
I45
sS'[[Brown Sugar]]'
p64
I84
sS'[[Butter]]'
p65
I14
sS'[[Bacon Pie]]'
p66
I80
sS'[[Strawberry]]'
p67
I77
sS'[[Pumpkin Pie]]'
p68
I56
sS'[[Corn]]'
p69
I83
sS'[[Fish Fillet]]'
p70
I86
sS'[[Chili Popcorn]]'
p71
I69
sS'[[Bacon]]'
p72
I89
sS'[[Cotton Fabric]]'
p73
I11
sS'[[Blue Sweater]]'
p74
I73
sS'[[Potato Feta Cake]]'
p75
I24
sS'[[Sugarcane]]'
p76
I38
sS'[[Cookie]]'
p77
I44
sS'[[Apple Juice]]'
p78
I54
sS'[[Pig Feed]]'
p79
I19
sS'[[Cotton]]'
p80
I68
sS'[[Feta Pie]]'
p81
I82
sS'[[Cheese]]'
p82
I0
sS'[[Chocolate Ice Cream]]'
p83
I57
sS'[[Chicken Feed]]'
p84
I67
sS'[[Corn Bread]]'
p85
I6
sS'[[Wool]]'
p86
I62
sS'[[Roasted Tomatoes]]'
p87
I3
sS'[[Berry Juice]]'
p88
I47
sS'[[Sweater]]'
p89
I72
sS'[[Blackberry Muffin]]'
p90
I60
sS'[[Cow Feed]]'
p91
I79
s.(dp0
S'[[Apple]]'
p1
I2
sS'[[Cacao]]'
p2
I1
sS'[[Pumpkin Pie]]'
p3
I5
sS'[[Carrot Pie]]'
p4
I1
sS'[[Pumpkin]]'
p5
I0
sS'[[Indigo]]'
p6
I0
sS'[[Pancake]]'
p7
I0
sS'[[Sweater]]'
p8
I2
s.