(dp0
S'[[Pumpkin]]'
p1
I53
sS'[[Blackberry Jam]]'
p2
I21
sS'[[Violet Dress]]'
p3
I78
sS'[[Strawberry Ice Cream]]'
p4
I88
sS'[[Raspberry Muffin]]'
p5
I47
sS'[[Apple Pie]]'
p6
I65
sS'[[Tomato Juice]]'
p7
I1
sS'[[Carrot Cake]]'
p8
I46
sS'[[Vanilla Ice Cream]]'
p9
I49
sS'[[Lure]]'
p10
I3
sS'[[Carrot Pie]]'
p11
I48
sS'[[Tomato]]'
p12
I45
sS'[[Cherry Juice]]'
p13
I68
sS'[[Cheesecake]]'
p14
I15
sS'[[Fish Pie]]'
p15
I23
sS'[[Pancake]]'
p16
I81
sS'[[Popcorn]]'
p17
I17
sS'[[Goat Cheese]]'
p18
I44
sS'[[Potato Bread]]'
p19
I20
sS'[[Goat Feed]]'
p20
I38
sS'[[Red Berry Cake]]'
p21
I83
sS'[[Pizza]]'
p22
I43
sS'[[Syrup]]'
p23
I0
sS'[[Sheep Feed]]'
p24
I28
sS'[[Cherry Popsicle]]'
p25
I64
sS'[[Bacon and Eggs]]'
p26
I12
sS'[[Carrot]]'
p27
I2
sS'[[Carrot Juice]]'
p28
I75
sS'[[Baked Potato]]'
p29
I72
sS'[[Milk]]'
p30
I31
sS'[[Apple Jam]]'
p31
I18
sS'[[Apple]]'
p32
I76
sS'[[Blackberry]]'
p33
I16
sS'[[Cotton Shirt]]'
p34
I37
sS'[[Cream]]'
p35
I58
sS'[[Raspberry Jam]]'
p36
I71
sS'[[Cherry]]'
p37
I51
sS'[[Bread]]'
p38
I79
sS'[[Wheat]]'
p39
I27
sS'[[Casserole]]'
p40
I26
sS'[[Strawberry]]'
p41
I40
sS'[[Honey Popcorn]]'
p42
I36
sS'[[Honeycomb]]'
p43
I62
sS'[[Indigo]]'
p44
I85
sS'[[Raspberry]]'
p45
I24
sS'[[Chocolate Cake]]'
p46
I54
sS'[[Spicy Pizza]]'
p47
I41
sS'[[Cacao]]'
p48
I73
sS'[[Woolly Chaps]]'
p49
I69
sS'[[Honey]]'
p50
I70
sS'[[Egg]]'
p51
I57
sS'[[Strawberry Cake]]'
p52
I25
sS'[[Potato]]'
p53
I84
sS'[[Fish Burger]]'
p54
I89
sS'[[White Sugar]]'
p55
I6
sS'[[Buttered Popcorn]]'
p56
I77
sS'[[Cream Cake]]'
p57
I61
sS'[[Soybean]]'
p58
I10
sS'[[Brown Sugar]]'
p59
I60
sS'[[Blue Woolly Hat]]'
p60
I9
sS'[[Goat Milk]]'
p61
I63
sS'[[Hamburger]]'
p62
I74
sS'[[Cherry Jam]]'
p63
I13
sS"[[Shepherd's Pie]]"
p64
I30
sS'[[Butter]]'
p65
I22
sS'[[Bacon Pie]]'
p66
I87
sS'[[Chili Pepper]]'
p67
I14
sS'[[Pumpkin Pie]]'
p68
I39
sS'[[Corn]]'
p69
I11
sS'[[Fish Fillet]]'
p70
I5
sS'[[Chili Popcorn]]'
p71
I52
sS'[[Bacon]]'
p72
I29
sS'[[Cotton Fabric]]'
p73
I90
sS'[[Blue Sweater]]'
p74
I33
sS'[[Potato Feta Cake]]'
p75
I59
sS'[[Sugarcane]]'
p76
I86
sS'[[Cookie]]'
p77
I66
sS'[[Apple Juice]]'
p78
I67
sS'[[Pig Feed]]'
p79
I56
sS'[[Cotton]]'
p80
I50
sS'[[Feta Pie]]'
p81
I80
sS'[[Cheese]]'
p82
I19
sS'[[Chocolate Ice Cream]]'
p83
I55
sS'[[Chicken Feed]]'
p84
I42
sS'[[Corn Bread]]'
p85
I34
sS'[[Wool]]'
p86
I8
sS'[[Roasted Tomatoes]]'
p87
I4
sS'[[Berry Juice]]'
p88
I82
sS'[[Sweater]]'
p89
I32
sS'[[Blackberry Muffin]]'
p90
I7
sS'[[Cow Feed]]'
p91
I35
s.(dp0
S'[[Corn]]'
p1
I1
sS'[[Strawberry]]'
p2
I0
sS'[[Fish Fillet]]'
p3
I4
sS'[[Fish Pie]]'
p4
I2
sS'[[Carrot Juice]]'
p5
I5
sS'[[White Sugar]]'
p6
I1
sS'[[Fish Burger]]'
p7
I3
sS'[[Chocolate Ice Cream]]'
p8
I4
sS'[[Potato Bread]]'
p9
I1
sS'[[Raspberry Muffin]]'
p10
I4
s.