(dp0
S'[[Pumpkin]]'
p1
I56
sS'[[Blackberry Jam]]'
p2
I55
sS'[[Violet Dress]]'
p3
I12
sS'[[Strawberry Ice Cream]]'
p4
I71
sS'[[Raspberry Muffin]]'
p5
I60
sS'[[Apple Pie]]'
p6
I18
sS'[[Tomato Juice]]'
p7
I84
sS'[[Carrot Cake]]'
p8
I85
sS'[[Vanilla Ice Cream]]'
p9
I32
sS'[[Lure]]'
p10
I42
sS'[[Carrot Pie]]'
p11
I19
sS'[[Tomato]]'
p12
I9
sS'[[Cherry Juice]]'
p13
I23
sS'[[Cheesecake]]'
p14
I59
sS'[[Fish Pie]]'
p15
I75
sS'[[Pancake]]'
p16
I7
sS'[[Popcorn]]'
p17
I21
sS'[[Goat Cheese]]'
p18
I44
sS'[[Potato Bread]]'
p19
I62
sS'[[Goat Feed]]'
p20
I66
sS'[[Red Berry Cake]]'
p21
I70
sS'[[Pizza]]'
p22
I2
sS'[[Syrup]]'
p23
I69
sS'[[Sheep Feed]]'
p24
I31
sS'[[Cherry Popsicle]]'
p25
I67
sS'[[Bacon and Eggs]]'
p26
I24
sS'[[Carrot]]'
p27
I83
sS'[[Carrot Juice]]'
p28
I28
sS'[[Baked Potato]]'
p29
I4
sS'[[Milk]]'
p30
I27
sS'[[Apple Jam]]'
p31
I63
sS'[[Apple]]'
p32
I76
sS'[[Blackberry]]'
p33
I14
sS'[[Cotton Shirt]]'
p34
I89
sS'[[Cream]]'
p35
I16
sS'[[Raspberry Jam]]'
p36
I51
sS'[[Cherry]]'
p37
I61
sS'[[Bread]]'
p38
I37
sS'[[Wheat]]'
p39
I57
sS'[[Casserole]]'
p40
I82
sS'[[Strawberry]]'
p41
I43
sS'[[Honey Popcorn]]'
p42
I8
sS'[[Honeycomb]]'
p43
I74
sS'[[Indigo]]'
p44
I10
sS'[[Raspberry]]'
p45
I79
sS'[[Chocolate Cake]]'
p46
I39
sS'[[Spicy Pizza]]'
p47
I87
sS'[[Cacao]]'
p48
I22
sS'[[Woolly Chaps]]'
p49
I53
sS'[[Honey]]'
p50
I25
sS'[[Egg]]'
p51
I49
sS'[[Strawberry Cake]]'
p52
I81
sS'[[Potato]]'
p53
I13
sS'[[Fish Burger]]'
p54
I1
sS'[[White Sugar]]'
p55
I40
sS'[[Buttered Popcorn]]'
p56
I46
sS'[[Cream Cake]]'
p57
I64
sS'[[Soybean]]'
p58
I36
sS'[[Brown Sugar]]'
p59
I78
sS'[[Blue Woolly Hat]]'
p60
I41
sS'[[Goat Milk]]'
p61
I58
sS'[[Hamburger]]'
p62
I30
sS'[[Cherry Jam]]'
p63
I77
sS"[[Shepherd's Pie]]"
p64
I17
sS'[[Butter]]'
p65
I33
sS'[[Bacon Pie]]'
p66
I34
sS'[[Chili Pepper]]'
p67
I20
sS'[[Pumpkin Pie]]'
p68
I52
sS'[[Corn]]'
p69
I90
sS'[[Fish Fillet]]'
p70
I72
sS'[[Chili Popcorn]]'
p71
I29
sS'[[Bacon]]'
p72
I48
sS'[[Cotton Fabric]]'
p73
I6
sS'[[Blue Sweater]]'
p74
I68
sS'[[Potato Feta Cake]]'
p75
I47
sS'[[Sugarcane]]'
p76
I54
sS'[[Cookie]]'
p77
I45
sS'[[Apple Juice]]'
p78
I15
sS'[[Pig Feed]]'
p79
I88
sS'[[Cotton]]'
p80
I11
sS'[[Feta Pie]]'
p81
I86
sS'[[Cheese]]'
p82
I65
sS'[[Chocolate Ice Cream]]'
p83
I38
sS'[[Chicken Feed]]'
p84
I50
sS'[[Corn Bread]]'
p85
I5
sS'[[Wool]]'
p86
I35
sS'[[Roasted Tomatoes]]'
p87
I73
sS'[[Berry Juice]]'
p88
I3
sS'[[Sweater]]'
p89
I0
sS'[[Blackberry Muffin]]'
p90
I26
sS'[[Cow Feed]]'
p91
I80
s.(dp0
S'[[Blue Woolly Hat]]'
p1
I1
sS'[[Potato]]'
p2
I0
sS'[[Fish Pie]]'
p3
I4
sS'[[Indigo]]'
p4
I0
sS'[[Pancake]]'
p5
I1
sS'[[Bacon]]'
p6
I2
sS'[[Chocolate Ice Cream]]'
p7
I0
sS'[[Pizza]]'
p8
I0
sS'[[Corn Bread]]'
p9
I0
s.