(dp0
S'[[Pumpkin]]'
p1
I73
sS'[[Blackberry Jam]]'
p2
I49
sS'[[Violet Dress]]'
p3
I29
sS'[[Strawberry Ice Cream]]'
p4
I74
sS'[[Raspberry Muffin]]'
p5
I51
sS'[[Apple Pie]]'
p6
I41
sS'[[Tomato Juice]]'
p7
I52
sS'[[Blue Sweater]]'
p8
I33
sS'[[Honey]]'
p9
I53
sS'[[Vanilla Ice Cream]]'
p10
I13
sS'[[Lure]]'
p11
I79
sS'[[Carrot Pie]]'
p12
I61
sS'[[Tomato]]'
p13
I5
sS'[[Potato]]'
p14
I25
sS'[[Cheesecake]]'
p15
I4
sS'[[Fish Pie]]'
p16
I46
sS'[[Pancake]]'
p17
I64
sS'[[Popcorn]]'
p18
I10
sS'[[Goat Cheese]]'
p19
I69
sS'[[Potato Bread]]'
p20
I37
sS'[[Goat Feed]]'
p21
I70
sS'[[Red Berry Cake]]'
p22
I6
sS'[[Pizza]]'
p23
I66
sS'[[Syrup]]'
p24
I3
sS'[[Sheep Feed]]'
p25
I23
sS'[[Cherry Popsicle]]'
p26
I86
sS'[[Bacon and Eggs]]'
p27
I78
sS'[[Carrot Juice]]'
p28
I65
sS'[[Baked Potato]]'
p29
I32
sS'[[Milk]]'
p30
I20
sS'[[Apple Jam]]'
p31
I31
sS'[[Carrot]]'
p32
I0
sS'[[Blackberry]]'
p33
I17
sS'[[Cotton Shirt]]'
p34
I21
sS'[[Cream]]'
p35
I15
sS'[[Raspberry Jam]]'
p36
I16
sS'[[Cherry]]'
p37
I72
sS'[[Bread]]'
p38
I9
sS'[[Wheat]]'
p39
I27
sS'[[Casserole]]'
p40
I55
sS'[[Chili Pepper]]'
p41
I47
sS'[[Honey Popcorn]]'
p42
I22
sS'[[Honeycomb]]'
p43
I82
sS'[[Indigo]]'
p44
I56
sS'[[Raspberry]]'
p45
I77
sS'[[Chocolate Cake]]'
p46
I75
sS'[[Spicy Pizza]]'
p47
I28
sS'[[Cacao]]'
p48
I57
sS'[[Woolly Chaps]]'
p49
I59
sS'[[Carrot Cake]]'
p50
I40
sS'[[Egg]]'
p51
I83
sS'[[Strawberry Cake]]'
p52
I62
sS'[[Cherry Juice]]'
p53
I85
sS'[[Fish Burger]]'
p54
I36
sS'[[White Sugar]]'
p55
I63
sS'[[Buttered Popcorn]]'
p56
I38
sS'[[Cream Cake]]'
p57
I18
sS'[[Soybean]]'
p58
I12
sS'[[Apple]]'
p59
I2
sS'[[Blue Woolly Hat]]'
p60
I67
sS'[[Goat Milk]]'
p61
I8
sS'[[Hamburger]]'
p62
I88
sS'[[Cherry Jam]]'
p63
I68
sS"[[Shepherd's Pie]]"
p64
I30
sS'[[Brown Sugar]]'
p65
I44
sS'[[Butter]]'
p66
I11
sS'[[Bacon Pie]]'
p67
I81
sS'[[Strawberry]]'
p68
I84
sS'[[Corn]]'
p69
I54
sS'[[Fish Fillet]]'
p70
I76
sS'[[Chili Popcorn]]'
p71
I87
sS'[[Bacon]]'
p72
I1
sS'[[Cotton Fabric]]'
p73
I48
sS'[[Pumpkin Pie]]'
p74
I43
sS'[[Potato Feta Cake]]'
p75
I45
sS'[[Sugarcane]]'
p76
I7
sS'[[Cookie]]'
p77
I26
sS'[[Apple Juice]]'
p78
I24
sS'[[Pig Feed]]'
p79
I42
sS'[[Cotton]]'
p80
I80
sS'[[Feta Pie]]'
p81
I34
sS'[[Cheese]]'
p82
I14
sS'[[Chocolate Ice Cream]]'
p83
I71
sS'[[Chicken Feed]]'
p84
I35
sS'[[Corn Bread]]'
p85
I19
sS'[[Wool]]'
p86
I39
sS'[[Roasted Tomatoes]]'
p87
I58
sS'[[Berry Juice]]'
p88
I90
sS'[[Sweater]]'
p89
I60
sS'[[Blackberry Muffin]]'
p90
I89
sS'[[Cow Feed]]'
p91
I50
s.(dp0
S'[[Wheat]]'
p1
I3
sS'[[Raspberry Muffin]]'
p2
I1
sS'[[Cacao]]'
p3
I5
sS'[[Honey]]'
p4
I4
sS'[[Red Berry Cake]]'
p5
I1
sS'[[Corn Bread]]'
p6
I4
sS'[[Cherry Juice]]'
p7
I0
sS'[[Tomato Juice]]'
p8
I1
sS'[[Sweater]]'
p9
I5
sS'[[Chicken Feed]]'
p10
I1
sS'[[Fish Fillet]]'
p11
I0
s.